
smart_door_lock.elf:     file format elf32-littleriscv
smart_door_lock.elf
architecture: riscv:rv32, flags 0x00000112:
EXEC_P, HAS_SYMS, D_PAGED
start address 0x00000000

Program Header:
    LOAD off    0x00001000 vaddr 0x00000000 paddr 0x00000000 align 2**12
         filesz 0x00015ea4 memsz 0x00015ea4 flags r-x
    LOAD off    0x00017000 vaddr 0x20000000 paddr 0x00015ea4 align 2**12
         filesz 0x00000440 memsz 0x0000059c flags rw-
    LOAD off    0x00017800 vaddr 0x20007800 paddr 0x20007800 align 2**12
         filesz 0x00000000 memsz 0x00000800 flags rw-

Sections:
Idx Name          Size      VMA       LMA       File off  Algn
  0 .init         00000004  00000000  00000000  00001000  2**1
                  CONTENTS, ALLOC, LOAD, READONLY, CODE
  1 .vector       000001bc  00000004  00000004  00001004  2**1
                  CONTENTS, ALLOC, LOAD, READONLY, CODE
  2 .text         00015ce4  000001c0  000001c0  000011c0  2**2
                  CONTENTS, ALLOC, LOAD, READONLY, CODE
  3 .fini         00000000  00015ea4  00015ea4  00017440  2**0
                  CONTENTS, ALLOC, LOAD, CODE
  4 .dalign       00000000  20000000  20000000  00017440  2**0
                  CONTENTS
  5 .dlalign      00000000  00015ea4  00015ea4  00017440  2**0
                  CONTENTS
  6 .data         00000440  20000000  00015ea4  00017000  2**2
                  CONTENTS, ALLOC, LOAD, DATA
  7 .bss          0000015c  20000440  000162e4  00017440  2**2
                  ALLOC
  8 .stack        00000800  20007800  20007800  00017800  2**0
                  ALLOC
  9 .debug_info   00016b97  00000000  00000000  00017440  2**0
                  CONTENTS, READONLY, DEBUGGING
 10 .debug_abbrev 00003658  00000000  00000000  0002dfd7  2**0
                  CONTENTS, READONLY, DEBUGGING
 11 .debug_aranges 00000b30  00000000  00000000  00031630  2**3
                  CONTENTS, READONLY, DEBUGGING
 12 .debug_ranges 00000b10  00000000  00000000  00032160  2**3
                  CONTENTS, READONLY, DEBUGGING
 13 .debug_line   0001043a  00000000  00000000  00032c70  2**0
                  CONTENTS, READONLY, DEBUGGING
 14 .debug_str    00003393  00000000  00000000  000430aa  2**0
                  CONTENTS, READONLY, DEBUGGING
 15 .comment      00000033  00000000  00000000  0004643d  2**0
                  CONTENTS, READONLY
 16 .debug_frame  0000241c  00000000  00000000  00046470  2**2
                  CONTENTS, READONLY, DEBUGGING
 17 .debug_loc    000057d7  00000000  00000000  0004888c  2**0
                  CONTENTS, READONLY, DEBUGGING
 18 .stabstr      000000a9  00000000  00000000  0004e063  2**0
                  CONTENTS, READONLY, DEBUGGING
SYMBOL TABLE:
00000000 l    d  .init	00000000 .init
00000004 l    d  .vector	00000000 .vector
000001c0 l    d  .text	00000000 .text
00015ea4 l    d  .fini	00000000 .fini
20000000 l    d  .dalign	00000000 .dalign
00015ea4 l    d  .dlalign	00000000 .dlalign
20000000 l    d  .data	00000000 .data
20000440 l    d  .bss	00000000 .bss
20007800 l    d  .stack	00000000 .stack
00000000 l    d  .debug_info	00000000 .debug_info
00000000 l    d  .debug_abbrev	00000000 .debug_abbrev
00000000 l    d  .debug_aranges	00000000 .debug_aranges
00000000 l    d  .debug_ranges	00000000 .debug_ranges
00000000 l    d  .debug_line	00000000 .debug_line
00000000 l    d  .debug_str	00000000 .debug_str
00000000 l    d  .comment	00000000 .comment
00000000 l    d  .debug_frame	00000000 .debug_frame
00000000 l    d  .debug_loc	00000000 .debug_loc
00000000 l    d  .stabstr	00000000 .stabstr
00000000 l    df *ABS*	00000000 ./Startup/startup_ch32v30x_D8C.o
00000004 l       .vector	00000000 _vector_base
00000000 l    df *ABS*	00000000 ch32v30x_it.c
00000000 l    df *ABS*	00000000 main.c
00000000 l    df *ABS*	00000000 system_ch32v30x.c
00000000 l    df *ABS*	00000000 ch32v30x_gpio.c
00000000 l    df *ABS*	00000000 ch32v30x_misc.c
00000000 l    df *ABS*	00000000 ch32v30x_rcc.c
2000004c l     O .data	00000010 APBAHBPrescTable
20000430 l     O .data	00000004 ADCPrescTable
00000000 l    df *ABS*	00000000 ch32v30x_spi.c
00000000 l    df *ABS*	00000000 ch32v30x_tim.c
00000000 l    df *ABS*	00000000 ch32v30x_usart.c
00000000 l    df *ABS*	00000000 as608.c
00000000 l    df *ABS*	00000000 audio.c
00000000 l    df *ABS*	00000000 esp8266.c
00000000 l    df *ABS*	00000000 iic.c
00000000 l    df *ABS*	00000000 key.c
00000000 l    df *ABS*	00000000 lcd.c
00000000 l    df *ABS*	00000000 timer.c
00000000 l    df *ABS*	00000000 uart.c
00000000 l    df *ABS*	00000000 debug.c
20000468 l     O .bss	00000002 p_ms
2000046a l     O .bss	00000001 p_us
20000434 l     O .data	00000004 curbrk.5273
00000000 l    df *ABS*	00000000 memcpy.c
00000000 l    df *ABS*	00000000 sscanf.c
00000000 l    df *ABS*	00000000 stdio.c
00000000 l    df *ABS*	00000000 strlen.c
00000000 l    df *ABS*	00000000 strstr.c
00000000 l    df *ABS*	00000000 nano-vfscanf.c
00000000 l    df *ABS*	00000000 nano-vfscanf_i.c
00000000 l    df *ABS*	00000000 sccl.c
00000000 l    df *ABS*	00000000 strtol.c
00003302 l     F .text	00000138 _strtol_l.isra.0
00000000 l    df *ABS*	00000000 strtoul.c
00003450 l     F .text	0000012e _strtoul_l.isra.0
00000000 l    df *ABS*	00000000 ungetc.c
00000000 l    df *ABS*	00000000 locale.c
00000000 l    df *ABS*	00000000 mbtowc_r.c
00000000 l    df *ABS*	00000000 memchr.c
00000000 l    df *ABS*	00000000 nano-mallocr.c
00000000 l    df *ABS*	00000000 nano-mallocr.c
00000000 l    df *ABS*	00000000 nano-mallocr.c
00000000 l    df *ABS*	00000000 sbrkr.c
00000000 l    df *ABS*	00000000 wctomb_r.c
00000000 l    df *ABS*	00000000 mlock.c
00000000 l    df *ABS*	00000000 nano-mallocr.c
00000000 l    df *ABS*	00000000 findfp.c
00000000 l    df *ABS*	00000000 ctype_.c
00000000 l    df *ABS*	00000000 impure.c
20000244 l     O .data	00000060 impure_data
00000000 l    df *ABS*	00000000 reent.c
00000000 l    df *ABS*	00000000 close.c
00003894 g     F .text	00000014 _malloc_usable_size_r
00000e46  w      .text	00000000 EXTI2_IRQHandler
00002f4a g     F .text	000000e0 _scanf_chars
00000e46  w      .text	00000000 TIM8_TRG_COM_IRQHandler
2000041c g     O .data	00000006 password
00000e46  w      .text	00000000 TIM8_CC_IRQHandler
00002170 g     F .text	00000018 LCD_DrawPoint
000022b8 g     F .text	000000e6 LCD_ShowChar
00000e46  w      .text	00000000 UART8_IRQHandler
2000045d g     O .bss	00000001 uart6_rec_tick
20000c10 g       .data	00000000 __global_pointer$
000001c8 g     F .text	00000028 .hidden __riscv_save_8
00000e46  w      .text	00000000 TIM1_CC_IRQHandler
20000458 g     O .bss	00000002 time1000ms
00001210 g     F .text	00000004 SPI_I2S_SendData
00000222 g     F .text	00000010 HardFault_Handler
00003892 g     F .text	00000002 __malloc_unlock
000019ac g     F .text	00000092 key_init
00000692 g     F .text	00000250 key_proc
00000214 g     F .text	0000000c .hidden __riscv_restore_3
00000e46  w      .text	00000000 TIM6_IRQHandler
00001392 g     F .text	0000000e TIM_OC1PreloadConfig
00000e46  w      .text	00000000 SysTick_Handler
20000410 g     O .data	00000001 as608_store_index
00000faa g     F .text	0000005c NVIC_Init
00000e46  w      .text	00000000 PVD_IRQHandler
00000e46  w      .text	00000000 SDIO_IRQHandler
00000e46  w      .text	00000000 TIM9_BRK_IRQHandler
00000200 g     F .text	00000020 .hidden __riscv_restore_10
00014150 g     O .text	000017c0 ascii_3216
00001214 g     F .text	00000004 SPI_I2S_ReceiveData
0000361c g     F .text	00000018 __locale_ctype_ptr
00000e46  w      .text	00000000 DMA2_Channel8_IRQHandler
00000220 g     F .text	00000002 NMI_Handler
00000e46  w      .text	00000000 CAN2_RX1_IRQHandler
00000e46  w      .text	00000000 EXTI3_IRQHandler
000001c8 g     F .text	00000028 .hidden __riscv_save_11
00001d22 g     F .text	00000062 spi_readwrite
00000e46  w      .text	00000000 USBHS_IRQHandler
0000251e g     F .text	0000001a lock
000014b2 g     F .text	0000000a USART_GetFlagStatus
00000e46  w      .text	00000000 DMA2_Channel9_IRQHandler
0000196c g     F .text	00000040 EEPROM_Write
00000e46  w      .text	00000000 TIM10_CC_IRQHandler
20000598 g     O .bss	00000004 errno
0000302a g     F .text	00000256 _scanf_i
00002a84 g     F .text	00000004 __seofread
00001616 g     F .text	0000000c audio_init
20000440 g       .bss	00000000 _sbss
00000800 g       *ABS*	00000000 __stack_size
00001dec g     F .text	00000032 LCD_WR_REG
00002902 g     F .text	0000005a USART_Printf_Init
00001948 g     F .text	00000024 I2C_Write8Bit
00000e46  w      .text	00000000 USBFS_IRQHandler
00000214 g     F .text	0000000c .hidden __riscv_restore_2
20000440 g     O .bss	00000001 as608_proc_falg
000018f0 g     F .text	00000058 I2C_Check_Ack
0000166a g     F .text	0000004a audio_yinliang
00002982 g     F .text	000000b2 memcpy
20000584 g     O .bss	00000014 uart7_rec_string
20000444 g     O .bss	00000001 key_index_old
00000e46  w      .text	00000000 EXTI0_IRQHandler
00000e46  w      .text	00000000 I2C2_EV_IRQHandler
00000e46  w      .text	00000000 TIM10_TRG_COM_IRQHandler
0000134e g     F .text	00000018 TIM_Cmd
000017aa g     F .text	00000032 AT24C02_Init
2000042c g     O .data	00000004 SystemCoreClock
000014aa g     F .text	00000008 USART_ReceiveData
00000004 g       .init	00000000 _einit
000013bc g     F .text	0000000c TIM_ClearITPendingBit
20000068 g     O .data	0000000e string2
20000188 g     O .data	0000003b string7
0000117c g     F .text	0000001e RCC_APB2PeriphClockCmd
000001c0 g     F .text	00000030 .hidden __riscv_save_12
00000e46  w      .text	00000000 CAN2_SCE_IRQHandler
00000e46  w      .text	00000000 ADC1_2_IRQHandler
00002b64 g     F .text	00000044 __ssrefill_r
00002494 g     F .text	0000008a TIM2_PWM_Init
00000ed2 g     F .text	000000c0 GPIO_Init
00000e46  w      .text	00000000 Break_Point_Handler
00000200 g     F .text	00000020 .hidden __riscv_restore_11
20000464 g     O .bss	00000004 NVIC_Priority_Group
00000e46  w      .text	00000000 SPI1_IRQHandler
00001456 g     F .text	00000016 USART_Cmd
00003848 g     F .text	0000002a _sbrk_r
00000e46  w      .text	00000000 TAMPER_IRQHandler
000001f0 g     F .text	0000000c .hidden __riscv_save_1
00002748 g     F .text	00000096 Usart3_Init
00000214 g     F .text	0000000c .hidden __riscv_restore_0
000001d6 g     F .text	0000001a .hidden __riscv_save_7
00001504 g     F .text	00000014 USART_ClearITPendingBit
00000e46  w      .text	00000000 CAN2_RX0_IRQHandler
00002ba8 g     F .text	000003a2 __ssvfscanf_r
00000e46  w      .text	00000000 TIM8_UP_IRQHandler
0000119a g     F .text	0000001e RCC_APB1PeriphClockCmd
00000e46  w      .text	00000000 Ecall_M_Mode_Handler
20007800 g       .stack	00000000 _heap_end
00002896 g     F .text	00000036 Delay_Us
00001546 g     F .text	00000034 PS_GenChar
0000020a g     F .text	00000016 .hidden __riscv_restore_5
00015910 g     O .text	000003fc tfont16
000037f0 g     F .text	00000058 _realloc_r
2000015c g     O .data	0000002c string6
00001218 g     F .text	0000000a SPI_I2S_GetFlagStatus
00000e46  w      .text	00000000 DMA2_Channel2_IRQHandler
00000e46  w      .text	00000000 DMA1_Channel4_IRQHandler
0000295c g     F .text	00000026 _sbrk
20000454 g     O .bss	00000001 show_flag
00000e46  w      .text	00000000 TIM9_UP_IRQHandler
0000020a g     F .text	00000016 .hidden __riscv_restore_6
00000e46  w      .text	00000000 USART3_IRQHandler
20000447 g     O .bss	00000001 key_val
00000e46  w      .text	00000000 RTC_IRQHandler
2000059c g       .bss	00000000 _ebss
000014c8 g     F .text	0000003c USART_GetITStatus
00000e46  w      .text	00000000 DMA1_Channel7_IRQHandler
000012cc g     F .text	00000082 TIM_OC1Init
000008e2 g     F .text	00000032 rfid_chek
00000e46  w      .text	00000000 CAN1_RX1_IRQHandler
2000044b g     O .bss	00000001 rfid_index
00002870 g     F .text	00000026 Delay_Init
2000044a g     O .bss	00000001 ps_wait_flag
0000bb1c g     O .text	00008000 gImage_2
200000b0 g     O .data	000000ab string5
00000e46  w      .text	00000000 DVP_IRQHandler
00000e46  w      .text	00000000 UART5_IRQHandler
00001a3e g     F .text	00000204 key_read
20000445 g     O .bss	00000001 key_old
20000441 g     O .bss	00000001 as608_proc_falg_old
00001db4 g     F .text	00000038 LCD_WR_DATA
20000474 g     O .bss	00000010 rfid
20000424 g     O .data	00000006 password_cmd
00001622 g     F .text	00000048 audio_play
00001c42 g     F .text	000000dc SPI_LCD_Init
00000f9c g     F .text	00000004 GPIO_SetBits
00000e46  w      .text	00000000 TIM4_IRQHandler
00001378 g     F .text	0000001a TIM_ARRPreloadConfig
000001c8 g     F .text	00000028 .hidden __riscv_save_9
00000e46  w      .text	00000000 DMA2_Channel1_IRQHandler
00015d30 g     O .text	00000020 __sf_fake_stderr
000001d6 g     F .text	0000001a .hidden __riscv_save_4
00000e46  w      .text	00000000 I2C1_EV_IRQHandler
00002188 g     F .text	000000e8 LCD_ShowChinese16x16
20000448 g     O .bss	00000001 mode
000013a4 g     F .text	00000018 TIM_GetITStatus
00003b1c g     O .text	00008000 gImage_1
00001006 g     F .text	00000176 RCC_GetClocksFreq
00000e46  w      .text	00000000 DMA1_Channel6_IRQHandler
0000062e g     F .text	0000001c key_clear
00000e46  w      .text	00000000 UART4_IRQHandler
00000e46  w      .text	00000000 DMA2_Channel4_IRQHandler
00003666 g     F .text	00000018 memchr
000013c8 g     F .text	0000008e USART_Init
0000367e g     F .text	000000a4 _free_r
00000486 g     F .text	000000b6 TIM3_IRQHandler
00000e46  w      .text	00000000 RCC_IRQHandler
20000088 g     O .data	00000025 string4
000001f0 g     F .text	0000000c .hidden __riscv_save_3
2000041b g     O .data	00000001 lock_flag
00000e46  w      .text	00000000 TIM1_TRG_COM_IRQHandler
00001524 g     F .text	00000022 PS_GetImage
000018b4 g     F .text	0000003c I2C_Send_Bit_1
00000e46  w      .text	00000000 DMA1_Channel1_IRQHandler
000026d8 g     F .text	00000032 usart1_send_string
00002ace g     F .text	00000096 _sungetc_r
00000000 g       .init	00000000 _start
00000e46  w      .text	00000000 DMA2_Channel7_IRQHandler
2000003c g     O .data	00000010 AHBPrescTable
00002a9a g     F .text	00000034 strstr
0000239e g     F .text	00000094 LCD_ShowIntNum
00002432 g     F .text	00000062 LCD_ShowPicture
0000053c g     F .text	0000003c scheduler_run
00000e46  w      .text	00000000 EXTI15_10_IRQHandler
00001366 g     F .text	00000012 TIM_ITConfig
0000146c g     F .text	00000036 USART_ITConfig
2000005c g     O .data	00000009 string1
0000357e g     F .text	00000016 _strtoul_r
20000414 g     O .data	00000007 key_temp
00000fa0 g     F .text	00000004 GPIO_ResetBits
00000e46  w      .text	00000000 TIM7_IRQHandler
00000e46  w      .text	00000000 CAN2_TX_IRQHandler
20000000 g       .dalign	00000000 _data_vma
2000045e g     O .bss	00000001 uart7_rec_index
00000e46  w      .text	00000000 TIM5_IRQHandler
0000064a g     F .text	0000002c string_chek
20000456 g     O .bss	00000001 task_num
00002a34 g     F .text	00000050 sscanf
00000e46  w      .text	00000000 EXTI9_5_IRQHandler
000001c8 g     F .text	00000028 .hidden __riscv_save_10
00000e46  w      .text	00000000 ETH_WKUP_IRQHandler
00003890 g     F .text	00000002 __malloc_lock
0000020a g     F .text	00000016 .hidden __riscv_restore_4
00000200 g     F .text	00000020 .hidden __riscv_restore_8
00001518 g     F .text	0000000c as608_init
000001d6 g     F .text	0000001a .hidden __riscv_save_6
00000e46  w      .text	00000000 SPI2_IRQHandler
00001d84 g     F .text	00000030 LCD_WR_DATA8
00015d50 g     O .text	00000020 __sf_fake_stdin
000015d2 g     F .text	00000022 PS_Search
20000449 g     O .bss	00000001 password_error
00001e72 g     F .text	000002bc LCD_Init
00000200 g     F .text	00000020 .hidden __riscv_restore_9
0000020a g     F .text	00000016 .hidden __riscv_restore_7
00000af8 g     F .text	0000012a main
00000676 g     F .text	0000001c string_copy
00000e46  w      .text	00000000 TIM10_BRK_IRQHandler
00000e46  w      .text	00000000 TIM9_CC_IRQHandler
00000e46  w      .text	00000000 DMA2_Channel5_IRQHandler
0000343a g     F .text	00000016 _strtol_r
00003722 g     F .text	000000ce _malloc_r
00003872 g     F .text	0000001e __ascii_wctomb
00003594 g     F .text	00000082 __submore
00000e46  w      .text	00000000 DMA1_Channel5_IRQHandler
00000e46  w      .text	00000000 EXTI4_IRQHandler
000028cc g     F .text	00000036 Delay_Ms
00000e46  w      .text	00000000 USB_LP_CAN1_RX0_IRQHandler
000011f6 g     F .text	0000001a SPI_Cmd
00000232 g     F .text	0000000e lock_proc
00002a34 g     F .text	00000050 siscanf
000014bc g     F .text	0000000c USART_ClearFlag
2000045a g     O .bss	00000002 time5000ms
00000c22 g     F .text	000000fa SystemInit
00000e46  w      .text	00000000 RNG_IRQHandler
20000443 g     O .bss	00000001 key_index
2000045c g     O .bss	00000001 uart6_rec_index
0000212e g     F .text	00000042 LCD_Fill
2000042a g     O .data	00000002 time15s
00000e46  w      .text	00000000 USB_HP_CAN1_TX_IRQHandler
00000000 g       .init	00000000 _sinit
00000e46  w      .text	00000000 DMA1_Channel3_IRQHandler
00001e1e g     F .text	00000054 LCD_Address_Set
00002538 g     F .text	0000005a Tim3_Init
00013b60 g     O .text	000005f0 ascii_1608
000017dc g     F .text	0000004e I2C_Start
00000e46  w      .text	00000000 ETH_IRQHandler
20000438 g     O .data	00000004 _impure_ptr
00000e46  w      .text	00000000 TIM1_UP_IRQHandler
2000045f g     O .bss	00000001 uart7_rec_tick
0000037a g     F .text	0000010c lcd_proc
00002270 g     F .text	00000048 lcd_show_chinese
00000e46  w      .text	00000000 WWDG_IRQHandler
00000e46  w      .text	00000000 USBHSWakeup_IRQHandler
00000e46  w      .text	00000000 DMA2_Channel11_IRQHandler
00003634 g     F .text	00000032 __ascii_mbtowc
00000e46  w      .text	00000000 Ecall_U_Mode_Handler
00000e46  w      .text	00000000 DMA2_Channel6_IRQHandler
00000e46  w      .text	00000000 TIM2_IRQHandler
20008000 g       .stack	00000000 _eusrstack
000001f0 g     F .text	0000000c .hidden __riscv_save_2
00000e46  w      .text	00000000 SW_Handler
00002ba8 g     F .text	000003a2 __ssvfiscanf_r
00001878 g     F .text	0000003c I2C_Send_Bit_0
00000e46  w      .text	00000000 TIM1_BRK_IRQHandler
000014a2 g     F .text	00000008 USART_SendData
00000e46  w      .text	00000000 DMA2_Channel10_IRQHandler
00000e46  w      .text	00000000 EXTI1_IRQHandler
20000442 g     O .bss	00000001 key_down
000001d6 g     F .text	0000001a .hidden __riscv_save_5
00000a2a g     F .text	0000001e Ps_Wait
0000261c g     F .text	00000032 uart6_send_string
20000446 g     O .bss	00000001 key_up
20000440 g       .data	00000000 _edata
2000059c g       .bss	00000000 _end
00001222 g     F .text	000000aa TIM_TimeBaseInit
0000270a g     F .text	0000003e uart7_send_string
00000e46  w      .text	00000000 RTCAlarm_IRQHandler
2000044c g     O .bss	00000001 rfid_password_index
20000078 g     O .data	00000010 string3
00015ea4 g       .dlalign	00000000 _data_lma
00000e46  w      .text	00000000 TIM10_UP_IRQHandler
00000e46  w      .text	00000000 TIM9_TRG_COM_IRQHandler
000005c4 g     F .text	0000006a UART7_IRQHandler
20000455 g     O .bss	00000001 show_flag_old
00000914 g     F .text	00000116 USART2_IRQHandler
00000578 g     F .text	0000004c UART6_IRQHandler
00000d1c g     F .text	0000012a SystemCoreClockUpdate
0000157a g     F .text	00000022 PS_RegModel
00000e46  w      .text	00000000 I2C2_ER_IRQHandler
00000e46  w      .text	00000000 DMA1_Channel2_IRQHandler
00015d70 g     O .text	00000020 __sf_fake_stdout
00003280 g     F .text	00000082 __sccl
000001fc g     F .text	00000024 .hidden __riscv_restore_12
00000e46  w      .text	00000000 TIM8_BRK_IRQHandler
00015da0 g     O .text	00000101 _ctype_
00000e48  w      .text	00000000 handle_reset
00000e46  w      .text	00000000 CAN1_SCE_IRQHandler
20000000 g     O .data	0000003c scheduler_task
00002592 g     F .text	0000008a Uart6_Init
00000e46  w      .text	00000000 FLASH_IRQHandler
000001f0 g     F .text	0000000c .hidden __riscv_save_0
0000182a g     F .text	0000004e I2C_Stop
00000a48 g     F .text	000000b0 as608_proc
00000e46  w      .text	00000000 USART1_IRQHandler
000015f4 g     F .text	00000022 PS_Empty
00002a88 g     F .text	00000012 strlen
00001d1e g     F .text	00000004 SPI3_IRQHandler
00003616 g     F .text	00000006 __locale_ctype_ptr_l
000016b4 g     F .text	0000000c esp8266_init
20000470 g     O .bss	00000004 __malloc_sbrk_start
20000484 g     O .bss	00000100 uart6_rec_string
00000e46  w      .text	00000000 I2C1_ER_IRQHandler
200001c4 g     O .data	00000080 string8
000011b8 g     F .text	0000003e SPI_Init
00000fa4 g     F .text	00000006 NVIC_PriorityGroupConfig
0000159c g     F .text	00000036 PS_StoreChar
2000046c g     O .bss	00000004 __malloc_free_list
00000214 g     F .text	0000000c .hidden __riscv_restore_1
000016c0 g     F .text	000000ea onenet_init
20000450 g     O .bss	00000004 rfid_temp
000013a0 g     F .text	00000004 TIM_SetCompare1
00000240 g     F .text	0000013a esp8266_proc
00000f92 g     F .text	0000000a GPIO_ReadInputDataBit
20000460 g     O .bss	00000004 uwtick
200002a4 g     O .data	0000016c __global_locale
00000e46  w      .text	00000000 USBWakeUp_IRQHandler
00000e46  w      .text	00000000 DMA2_Channel3_IRQHandler
0000264e g     F .text	0000008a Uart7_Init
000027de g     F .text	00000092 Usart2_Init



Disassembly of section .init:

00000000 <_sinit>:
   0:	6490006f          	j	e48 <handle_reset>

Disassembly of section .vector:

00000004 <_vector_base>:
	...
   c:	0220                	addi	s0,sp,264
   e:	0000                	unimp
  10:	0222                	slli	tp,tp,0x8
  12:	0000                	unimp
  14:	0000                	unimp
  16:	0000                	unimp
  18:	0e46                	slli	t3,t3,0x11
	...
  22:	0000                	unimp
  24:	0e46                	slli	t3,t3,0x11
  26:	0000                	unimp
  28:	0e46                	slli	t3,t3,0x11
	...
  32:	0000                	unimp
  34:	0e46                	slli	t3,t3,0x11
  36:	0000                	unimp
  38:	0000                	unimp
  3a:	0000                	unimp
  3c:	0e46                	slli	t3,t3,0x11
  3e:	0000                	unimp
  40:	0000                	unimp
  42:	0000                	unimp
  44:	0e46                	slli	t3,t3,0x11
  46:	0000                	unimp
  48:	0e46                	slli	t3,t3,0x11
  4a:	0000                	unimp
  4c:	0e46                	slli	t3,t3,0x11
  4e:	0000                	unimp
  50:	0e46                	slli	t3,t3,0x11
  52:	0000                	unimp
  54:	0e46                	slli	t3,t3,0x11
  56:	0000                	unimp
  58:	0e46                	slli	t3,t3,0x11
  5a:	0000                	unimp
  5c:	0e46                	slli	t3,t3,0x11
  5e:	0000                	unimp
  60:	0e46                	slli	t3,t3,0x11
  62:	0000                	unimp
  64:	0e46                	slli	t3,t3,0x11
  66:	0000                	unimp
  68:	0e46                	slli	t3,t3,0x11
  6a:	0000                	unimp
  6c:	0e46                	slli	t3,t3,0x11
  6e:	0000                	unimp
  70:	0e46                	slli	t3,t3,0x11
  72:	0000                	unimp
  74:	0e46                	slli	t3,t3,0x11
  76:	0000                	unimp
  78:	0e46                	slli	t3,t3,0x11
  7a:	0000                	unimp
  7c:	0e46                	slli	t3,t3,0x11
  7e:	0000                	unimp
  80:	0e46                	slli	t3,t3,0x11
  82:	0000                	unimp
  84:	0e46                	slli	t3,t3,0x11
  86:	0000                	unimp
  88:	0e46                	slli	t3,t3,0x11
  8a:	0000                	unimp
  8c:	0e46                	slli	t3,t3,0x11
  8e:	0000                	unimp
  90:	0e46                	slli	t3,t3,0x11
  92:	0000                	unimp
  94:	0e46                	slli	t3,t3,0x11
  96:	0000                	unimp
  98:	0e46                	slli	t3,t3,0x11
  9a:	0000                	unimp
  9c:	0e46                	slli	t3,t3,0x11
  9e:	0000                	unimp
  a0:	0e46                	slli	t3,t3,0x11
  a2:	0000                	unimp
  a4:	0e46                	slli	t3,t3,0x11
  a6:	0000                	unimp
  a8:	0e46                	slli	t3,t3,0x11
  aa:	0000                	unimp
  ac:	0e46                	slli	t3,t3,0x11
  ae:	0000                	unimp
  b0:	0e46                	slli	t3,t3,0x11
  b2:	0000                	unimp
  b4:	0e46                	slli	t3,t3,0x11
  b6:	0000                	unimp
  b8:	0486                	slli	s1,s1,0x1
  ba:	0000                	unimp
  bc:	0e46                	slli	t3,t3,0x11
  be:	0000                	unimp
  c0:	0e46                	slli	t3,t3,0x11
  c2:	0000                	unimp
  c4:	0e46                	slli	t3,t3,0x11
  c6:	0000                	unimp
  c8:	0e46                	slli	t3,t3,0x11
  ca:	0000                	unimp
  cc:	0e46                	slli	t3,t3,0x11
  ce:	0000                	unimp
  d0:	0e46                	slli	t3,t3,0x11
  d2:	0000                	unimp
  d4:	0e46                	slli	t3,t3,0x11
  d6:	0000                	unimp
  d8:	0e46                	slli	t3,t3,0x11
  da:	0000                	unimp
  dc:	0914                	addi	a3,sp,144
  de:	0000                	unimp
  e0:	0e46                	slli	t3,t3,0x11
  e2:	0000                	unimp
  e4:	0e46                	slli	t3,t3,0x11
  e6:	0000                	unimp
  e8:	0e46                	slli	t3,t3,0x11
  ea:	0000                	unimp
  ec:	0e46                	slli	t3,t3,0x11
  ee:	0000                	unimp
  f0:	0e46                	slli	t3,t3,0x11
  f2:	0000                	unimp
  f4:	0e46                	slli	t3,t3,0x11
  f6:	0000                	unimp
  f8:	0e46                	slli	t3,t3,0x11
  fa:	0000                	unimp
  fc:	0e46                	slli	t3,t3,0x11
  fe:	0000                	unimp
 100:	0e46                	slli	t3,t3,0x11
 102:	0000                	unimp
 104:	0000                	unimp
 106:	0000                	unimp
 108:	0e46                	slli	t3,t3,0x11
 10a:	0000                	unimp
 10c:	0e46                	slli	t3,t3,0x11
 10e:	0000                	unimp
 110:	1d1e                	slli	s10,s10,0x27
 112:	0000                	unimp
 114:	0e46                	slli	t3,t3,0x11
 116:	0000                	unimp
 118:	0e46                	slli	t3,t3,0x11
 11a:	0000                	unimp
 11c:	0e46                	slli	t3,t3,0x11
 11e:	0000                	unimp
 120:	0e46                	slli	t3,t3,0x11
 122:	0000                	unimp
 124:	0e46                	slli	t3,t3,0x11
 126:	0000                	unimp
 128:	0e46                	slli	t3,t3,0x11
 12a:	0000                	unimp
 12c:	0e46                	slli	t3,t3,0x11
 12e:	0000                	unimp
 130:	0e46                	slli	t3,t3,0x11
 132:	0000                	unimp
 134:	0e46                	slli	t3,t3,0x11
 136:	0000                	unimp
 138:	0e46                	slli	t3,t3,0x11
 13a:	0000                	unimp
 13c:	0e46                	slli	t3,t3,0x11
 13e:	0000                	unimp
 140:	0e46                	slli	t3,t3,0x11
 142:	0000                	unimp
 144:	0e46                	slli	t3,t3,0x11
 146:	0000                	unimp
 148:	0e46                	slli	t3,t3,0x11
 14a:	0000                	unimp
 14c:	0e46                	slli	t3,t3,0x11
 14e:	0000                	unimp
 150:	0e46                	slli	t3,t3,0x11
 152:	0000                	unimp
 154:	0e46                	slli	t3,t3,0x11
 156:	0000                	unimp
 158:	0e46                	slli	t3,t3,0x11
 15a:	0000                	unimp
 15c:	0e46                	slli	t3,t3,0x11
 15e:	0000                	unimp
 160:	0578                	addi	a4,sp,652
 162:	0000                	unimp
 164:	05c4                	addi	s1,sp,708
 166:	0000                	unimp
 168:	0e46                	slli	t3,t3,0x11
 16a:	0000                	unimp
 16c:	0e46                	slli	t3,t3,0x11
 16e:	0000                	unimp
 170:	0e46                	slli	t3,t3,0x11
 172:	0000                	unimp
 174:	0e46                	slli	t3,t3,0x11
 176:	0000                	unimp
 178:	0e46                	slli	t3,t3,0x11
 17a:	0000                	unimp
 17c:	0e46                	slli	t3,t3,0x11
 17e:	0000                	unimp
 180:	0e46                	slli	t3,t3,0x11
 182:	0000                	unimp
 184:	0e46                	slli	t3,t3,0x11
 186:	0000                	unimp
 188:	0e46                	slli	t3,t3,0x11
 18a:	0000                	unimp
 18c:	0e46                	slli	t3,t3,0x11
 18e:	0000                	unimp
 190:	0e46                	slli	t3,t3,0x11
 192:	0000                	unimp
 194:	0e46                	slli	t3,t3,0x11
 196:	0000                	unimp
 198:	0e46                	slli	t3,t3,0x11
 19a:	0000                	unimp
 19c:	0e46                	slli	t3,t3,0x11
 19e:	0000                	unimp
 1a0:	0e46                	slli	t3,t3,0x11
	...

Disassembly of section .text:

000001c0 <__riscv_save_12>:
     1c0:	7139                	addi	sp,sp,-64
     1c2:	4301                	li	t1,0
     1c4:	c66e                	sw	s11,12(sp)
     1c6:	a019                	j	1cc <__riscv_save_10+0x4>

000001c8 <__riscv_save_10>:
     1c8:	7139                	addi	sp,sp,-64
     1ca:	5341                	li	t1,-16
     1cc:	c86a                	sw	s10,16(sp)
     1ce:	ca66                	sw	s9,20(sp)
     1d0:	cc62                	sw	s8,24(sp)
     1d2:	ce5e                	sw	s7,28(sp)
     1d4:	a019                	j	1da <__riscv_save_4+0x4>

000001d6 <__riscv_save_4>:
     1d6:	7139                	addi	sp,sp,-64
     1d8:	5301                	li	t1,-32
     1da:	d05a                	sw	s6,32(sp)
     1dc:	d256                	sw	s5,36(sp)
     1de:	d452                	sw	s4,40(sp)
     1e0:	d64e                	sw	s3,44(sp)
     1e2:	d84a                	sw	s2,48(sp)
     1e4:	da26                	sw	s1,52(sp)
     1e6:	dc22                	sw	s0,56(sp)
     1e8:	de06                	sw	ra,60(sp)
     1ea:	40610133          	sub	sp,sp,t1
     1ee:	8282                	jr	t0

000001f0 <__riscv_save_0>:
     1f0:	1141                	addi	sp,sp,-16
     1f2:	c04a                	sw	s2,0(sp)
     1f4:	c226                	sw	s1,4(sp)
     1f6:	c422                	sw	s0,8(sp)
     1f8:	c606                	sw	ra,12(sp)
     1fa:	8282                	jr	t0

000001fc <__riscv_restore_12>:
     1fc:	4db2                	lw	s11,12(sp)
     1fe:	0141                	addi	sp,sp,16

00000200 <__riscv_restore_10>:
     200:	4d02                	lw	s10,0(sp)
     202:	4c92                	lw	s9,4(sp)
     204:	4c22                	lw	s8,8(sp)
     206:	4bb2                	lw	s7,12(sp)
     208:	0141                	addi	sp,sp,16

0000020a <__riscv_restore_4>:
     20a:	4b02                	lw	s6,0(sp)
     20c:	4a92                	lw	s5,4(sp)
     20e:	4a22                	lw	s4,8(sp)
     210:	49b2                	lw	s3,12(sp)
     212:	0141                	addi	sp,sp,16

00000214 <__riscv_restore_0>:
     214:	4902                	lw	s2,0(sp)
     216:	4492                	lw	s1,4(sp)
     218:	4422                	lw	s0,8(sp)
     21a:	40b2                	lw	ra,12(sp)
     21c:	0141                	addi	sp,sp,16
     21e:	8082                	ret

00000220 <NMI_Handler>:
     220:	a001                	j	220 <NMI_Handler>

00000222 <HardFault_Handler>:
     222:	beef07b7          	lui	a5,0xbeef0
     226:	e000e737          	lui	a4,0xe000e
     22a:	08078793          	addi	a5,a5,128 # beef0080 <_eusrstack+0x9eee8080>
     22e:	c73c                	sw	a5,72(a4)
     230:	a001                	j	230 <HardFault_Handler+0xe>

00000232 <lock_proc>:
     232:	fbfff2ef          	jal	t0,1f0 <__riscv_save_0>
     236:	80b1c503          	lbu	a0,-2037(gp) # 2000041b <lock_flag>
     23a:	2e4020ef          	jal	ra,251e <lock>
     23e:	bfd9                	j	214 <__riscv_restore_0>

00000240 <esp8266_proc>:
     240:	fb1ff2ef          	jal	t0,1f0 <__riscv_save_0>
     244:	84c1c583          	lbu	a1,-1972(gp) # 2000045c <uart6_rec_index>
     248:	7111                	addi	sp,sp,-256
     24a:	c5c9                	beqz	a1,2d4 <esp8266_proc+0x94>
     24c:	84d1c703          	lbu	a4,-1971(gp) # 2000045d <uart6_rec_tick>
     250:	47a9                	li	a5,10
     252:	08e7f163          	bgeu	a5,a4,2d4 <esp8266_proc+0x94>
     256:	87418513          	addi	a0,gp,-1932 # 20000484 <uart6_rec_string>
     25a:	47e020ef          	jal	ra,26d8 <usart1_send_string>
     25e:	000045b7          	lui	a1,0x4
     262:	98458593          	addi	a1,a1,-1660 # 3984 <_malloc_usable_size_r+0xf0>
     266:	87418513          	addi	a0,gp,-1932 # 20000484 <uart6_rec_string>
     26a:	031020ef          	jal	ra,2a9a <strstr>
     26e:	000045b7          	lui	a1,0x4
     272:	0030                	addi	a2,sp,8
     274:	98c58593          	addi	a1,a1,-1652 # 398c <_malloc_usable_size_r+0xf8>
     278:	c402                	sw	zero,8(sp)
     27a:	7ba020ef          	jal	ra,2a34 <siscanf>
     27e:	000045b7          	lui	a1,0x4
     282:	99858593          	addi	a1,a1,-1640 # 3998 <_malloc_usable_size_r+0x104>
     286:	87418513          	addi	a0,gp,-1932 # 20000484 <uart6_rec_string>
     28a:	011020ef          	jal	ra,2a9a <strstr>
     28e:	000045b7          	lui	a1,0x4
     292:	0070                	addi	a2,sp,12
     294:	9a458593          	addi	a1,a1,-1628 # 39a4 <_malloc_usable_size_r+0x110>
     298:	c602                	sw	zero,12(sp)
     29a:	79a020ef          	jal	ra,2a34 <siscanf>
     29e:	000045b7          	lui	a1,0x4
     2a2:	07800613          	li	a2,120
     2a6:	9b458593          	addi	a1,a1,-1612 # 39b4 <_malloc_usable_size_r+0x120>
     2aa:	0808                	addi	a0,sp,16
     2ac:	6d6020ef          	jal	ra,2982 <memcpy>
     2b0:	47a2                	lw	a5,8(sp)
     2b2:	471d                	li	a4,7
     2b4:	84c18413          	addi	s0,gp,-1972 # 2000045c <uart6_rec_index>
     2b8:	17fd                	addi	a5,a5,-1
     2ba:	00f76b63          	bltu	a4,a5,2d0 <esp8266_proc+0x90>
     2be:	6711                	lui	a4,0x4
     2c0:	078a                	slli	a5,a5,0x2
     2c2:	8e070713          	addi	a4,a4,-1824 # 38e0 <_malloc_usable_size_r+0x4c>
     2c6:	97ba                	add	a5,a5,a4
     2c8:	439c                	lw	a5,0(a5)
     2ca:	8782                	jr	a5
     2cc:	800185a3          	sb	zero,-2037(gp) # 2000041b <lock_flag>
     2d0:	00040023          	sb	zero,0(s0)
     2d4:	6111                	addi	sp,sp,256
     2d6:	bf3d                	j	214 <__riscv_restore_0>
     2d8:	4705                	li	a4,1
     2da:	80e185a3          	sb	a4,-2037(gp) # 2000041b <lock_flag>
     2de:	bfcd                	j	2d0 <esp8266_proc+0x90>
     2e0:	47b2                	lw	a5,12(sp)
     2e2:	66e1                	lui	a3,0x18
     2e4:	6a068693          	addi	a3,a3,1696 # 186a0 <_data_lma+0x27fc>
     2e8:	02d7c6b3          	div	a3,a5,a3
     2ec:	4729                	li	a4,10
     2ee:	80c18613          	addi	a2,gp,-2036 # 2000041c <password>
     2f2:	45a1                	li	a1,8
     2f4:	80c18513          	addi	a0,gp,-2036 # 2000041c <password>
     2f8:	02e6e6b3          	rem	a3,a3,a4
     2fc:	a214                	sb	a3,0(a2)
     2fe:	6689                	lui	a3,0x2
     300:	71068693          	addi	a3,a3,1808 # 2710 <uart7_send_string+0x6>
     304:	02d7c6b3          	div	a3,a5,a3
     308:	02e6e6b3          	rem	a3,a3,a4
     30c:	b214                	sb	a3,1(a2)
     30e:	3e800693          	li	a3,1000
     312:	02d7c6b3          	div	a3,a5,a3
     316:	02e6e6b3          	rem	a3,a3,a4
     31a:	a234                	sb	a3,2(a2)
     31c:	06400693          	li	a3,100
     320:	02d7c6b3          	div	a3,a5,a3
     324:	02e6e6b3          	rem	a3,a3,a4
     328:	b234                	sb	a3,3(a2)
     32a:	02e7c6b3          	div	a3,a5,a4
     32e:	02e7e7b3          	rem	a5,a5,a4
     332:	02e6e6b3          	rem	a3,a3,a4
     336:	b25c                	sb	a5,5(a2)
     338:	a254                	sb	a3,4(a2)
     33a:	4619                	li	a2,6
     33c:	630010ef          	jal	ra,196c <EEPROM_Write>
     340:	000045b7          	lui	a1,0x4
     344:	07800613          	li	a2,120
     348:	a2c58593          	addi	a1,a1,-1492 # 3a2c <_malloc_usable_size_r+0x198>
     34c:	0128                	addi	a0,sp,136
     34e:	634020ef          	jal	ra,2982 <memcpy>
     352:	07700593          	li	a1,119
     356:	0128                	addi	a0,sp,136
     358:	2c4020ef          	jal	ra,261c <uart6_send_string>
     35c:	bf95                	j	2d0 <esp8266_proc+0x90>
     35e:	8608                	lbu	a0,12(sp)
     360:	30a010ef          	jal	ra,166a <audio_yinliang>
     364:	000045b7          	lui	a1,0x4
     368:	07800613          	li	a2,120
     36c:	aa458593          	addi	a1,a1,-1372 # 3aa4 <_malloc_usable_size_r+0x210>
     370:	bff1                	j	34c <esp8266_proc+0x10c>
     372:	07700593          	li	a1,119
     376:	0808                	addi	a0,sp,16
     378:	b7c5                	j	358 <esp8266_proc+0x118>

0000037a <lcd_proc>:
     37a:	e5dff2ef          	jal	t0,1d6 <__riscv_save_4>
     37e:	8331c403          	lbu	s0,-1997(gp) # 20000443 <key_index>
     382:	8341c703          	lbu	a4,-1996(gp) # 20000444 <key_index_old>
     386:	04870763          	beq	a4,s0,3d4 <lcd_proc+0x5a>
     38a:	6741                	lui	a4,0x10
     38c:	1701                	addi	a4,a4,-32
     38e:	04200693          	li	a3,66
     392:	07000613          	li	a2,112
     396:	02d00593          	li	a1,45
     39a:	4541                	li	a0,16
     39c:	83418993          	addi	s3,gp,-1996 # 20000444 <key_index_old>
     3a0:	83318493          	addi	s1,gp,-1997 # 20000443 <key_index>
     3a4:	58b010ef          	jal	ra,212e <LCD_Fill>
     3a8:	2098                	lbu	a4,0(s1)
     3aa:	479d                	li	a5,7
     3ac:	00f71463          	bne	a4,a5,3b4 <lcd_proc+0x3a>
     3b0:	4799                	li	a5,6
     3b2:	a09c                	sb	a5,0(s1)
     3b4:	66c1                	lui	a3,0x10
     3b6:	0ff00a13          	li	s4,255
     3ba:	4a95                	li	s5,5
     3bc:	fe068b13          	addi	s6,a3,-32 # ffe0 <gImage_2+0x44c4>
     3c0:	80068913          	addi	s2,a3,-2048
     3c4:	147d                	addi	s0,s0,-1
     3c6:	0ff47413          	andi	s0,s0,255
     3ca:	05441363          	bne	s0,s4,410 <lcd_proc+0x96>
     3ce:	209c                	lbu	a5,0(s1)
     3d0:	00f98023          	sb	a5,0(s3)
     3d4:	84518493          	addi	s1,gp,-1979 # 20000455 <show_flag_old>
     3d8:	8441c703          	lbu	a4,-1980(gp) # 20000454 <show_flag>
     3dc:	209c                	lbu	a5,0(s1)
     3de:	84418413          	addi	s0,gp,-1980 # 20000454 <show_flag>
     3e2:	00f70e63          	beq	a4,a5,3fe <lcd_proc+0x84>
     3e6:	6741                	lui	a4,0x10
     3e8:	177d                	addi	a4,a4,-1
     3ea:	02000693          	li	a3,32
     3ee:	08000613          	li	a2,128
     3f2:	4581                	li	a1,0
     3f4:	4501                	li	a0,0
     3f6:	539010ef          	jal	ra,212e <LCD_Fill>
     3fa:	201c                	lbu	a5,0(s0)
     3fc:	a09c                	sb	a5,0(s1)
     3fe:	201c                	lbu	a5,0(s0)
     400:	4705                	li	a4,1
     402:	04e78763          	beq	a5,a4,450 <lcd_proc+0xd6>
     406:	c78d                	beqz	a5,430 <lcd_proc+0xb6>
     408:	4709                	li	a4,2
     40a:	04e78f63          	beq	a5,a4,468 <lcd_proc+0xee>
     40e:	bbf5                	j	20a <__riscv_restore_4>
     410:	fa8aeae3          	bltu	s5,s0,3c4 <lcd_proc+0x4a>
     414:	00441513          	slli	a0,s0,0x4
     418:	4801                	li	a6,0
     41a:	47c1                	li	a5,16
     41c:	875a                	mv	a4,s6
     41e:	86ca                	mv	a3,s2
     420:	02a00613          	li	a2,42
     424:	02d00593          	li	a1,45
     428:	0551                	addi	a0,a0,20
     42a:	68f010ef          	jal	ra,22b8 <LCD_ShowChar>
     42e:	bf59                	j	3c4 <lcd_proc+0x4a>
     430:	66c1                	lui	a3,0x10
     432:	00014637          	lui	a2,0x14
     436:	fff68713          	addi	a4,a3,-1 # ffff <gImage_2+0x44e3>
     43a:	4801                	li	a6,0
     43c:	47c1                	li	a5,16
     43e:	80068693          	addi	a3,a3,-2048
     442:	b1c60613          	addi	a2,a2,-1252 # 13b1c <gImage_2+0x8000>
     446:	4581                	li	a1,0
     448:	4501                	li	a0,0
     44a:	627010ef          	jal	ra,2270 <lcd_show_chinese>
     44e:	b7c1                	j	40e <lcd_proc+0x94>
     450:	66c1                	lui	a3,0x10
     452:	00014637          	lui	a2,0x14
     456:	fff68713          	addi	a4,a3,-1 # ffff <gImage_2+0x44e3>
     45a:	4801                	li	a6,0
     45c:	47c1                	li	a5,16
     45e:	80068693          	addi	a3,a3,-2048
     462:	b3460613          	addi	a2,a2,-1228 # 13b34 <gImage_2+0x8018>
     466:	b7c5                	j	446 <lcd_proc+0xcc>
     468:	81a1d603          	lhu	a2,-2022(gp) # 2000042a <time15s>
     46c:	6741                	lui	a4,0x10
     46e:	fff70793          	addi	a5,a4,-1 # ffff <gImage_2+0x44e3>
     472:	4841                	li	a6,16
     474:	80070713          	addi	a4,a4,-2048
     478:	4689                	li	a3,2
     47a:	45c1                	li	a1,16
     47c:	03200513          	li	a0,50
     480:	71f010ef          	jal	ra,239e <LCD_ShowIntNum>
     484:	b769                	j	40e <lcd_proc+0x94>

00000486 <TIM3_IRQHandler>:
     486:	40000537          	lui	a0,0x40000
     48a:	4585                	li	a1,1
     48c:	40050513          	addi	a0,a0,1024 # 40000400 <_eusrstack+0x1fff8400>
     490:	715000ef          	jal	ra,13a4 <TIM_GetITStatus>
     494:	c12d                	beqz	a0,4f6 <TIM3_IRQHandler+0x70>
     496:	85018793          	addi	a5,gp,-1968 # 20000460 <uwtick>
     49a:	4398                	lw	a4,0(a5)
     49c:	80b18693          	addi	a3,gp,-2037 # 2000041b <lock_flag>
     4a0:	0705                	addi	a4,a4,1
     4a2:	c398                	sw	a4,0(a5)
     4a4:	84f18793          	addi	a5,gp,-1969 # 2000045f <uart7_rec_tick>
     4a8:	2398                	lbu	a4,0(a5)
     4aa:	0705                	addi	a4,a4,1
     4ac:	a398                	sb	a4,0(a5)
     4ae:	84d18793          	addi	a5,gp,-1971 # 2000045d <uart6_rec_tick>
     4b2:	2398                	lbu	a4,0(a5)
     4b4:	0705                	addi	a4,a4,1
     4b6:	a398                	sb	a4,0(a5)
     4b8:	229c                	lbu	a5,0(a3)
     4ba:	ef89                	bnez	a5,4d4 <TIM3_IRQHandler+0x4e>
     4bc:	84a18713          	addi	a4,gp,-1974 # 2000045a <time5000ms>
     4c0:	231e                	lhu	a5,0(a4)
     4c2:	6605                	lui	a2,0x1
     4c4:	38860613          	addi	a2,a2,904 # 1388 <TIM_ARRPreloadConfig+0x10>
     4c8:	0785                	addi	a5,a5,1
     4ca:	07c2                	slli	a5,a5,0x10
     4cc:	83c1                	srli	a5,a5,0x10
     4ce:	02c78d63          	beq	a5,a2,508 <TIM3_IRQHandler+0x82>
     4d2:	a31e                	sh	a5,0(a4)
     4d4:	83918693          	addi	a3,gp,-1991 # 20000449 <password_error>
     4d8:	2298                	lbu	a4,0(a3)
     4da:	478d                	li	a5,3
     4dc:	00f71d63          	bne	a4,a5,4f6 <TIM3_IRQHandler+0x70>
     4e0:	84818713          	addi	a4,gp,-1976 # 20000458 <time1000ms>
     4e4:	231e                	lhu	a5,0(a4)
     4e6:	3e800613          	li	a2,1000
     4ea:	0785                	addi	a5,a5,1
     4ec:	07c2                	slli	a5,a5,0x10
     4ee:	83c1                	srli	a5,a5,0x10
     4f0:	02c78663          	beq	a5,a2,51c <TIM3_IRQHandler+0x96>
     4f4:	a31e                	sh	a5,0(a4)
     4f6:	40000537          	lui	a0,0x40000
     4fa:	4585                	li	a1,1
     4fc:	40050513          	addi	a0,a0,1024 # 40000400 <_eusrstack+0x1fff8400>
     500:	6bd000ef          	jal	ra,13bc <TIM_ClearITPendingBit>
     504:	30200073          	mret
     508:	4785                	li	a5,1
     50a:	a29c                	sb	a5,0(a3)
     50c:	4509                	li	a0,2
     50e:	00071023          	sh	zero,0(a4)
     512:	84018223          	sb	zero,-1980(gp) # 20000454 <show_flag>
     516:	10c010ef          	jal	ra,1622 <audio_play>
     51a:	bf6d                	j	4d4 <TIM3_IRQHandler+0x4e>
     51c:	00071023          	sh	zero,0(a4)
     520:	81a18713          	addi	a4,gp,-2022 # 2000042a <time15s>
     524:	231e                	lhu	a5,0(a4)
     526:	17fd                	addi	a5,a5,-1
     528:	07c2                	slli	a5,a5,0x10
     52a:	83c1                	srli	a5,a5,0x10
     52c:	f7e1                	bnez	a5,4f4 <TIM3_IRQHandler+0x6e>
     52e:	47bd                	li	a5,15
     530:	a31e                	sh	a5,0(a4)
     532:	00068023          	sb	zero,0(a3)
     536:	84018223          	sb	zero,-1980(gp) # 20000454 <show_flag>
     53a:	bf75                	j	4f6 <TIM3_IRQHandler+0x70>

0000053c <scheduler_run>:
     53c:	c9bff2ef          	jal	t0,1d6 <__riscv_save_4>
     540:	200004b7          	lui	s1,0x20000
     544:	4401                	li	s0,0
     546:	00048493          	mv	s1,s1
     54a:	4a31                	li	s4,12
     54c:	8461c783          	lbu	a5,-1978(gp) # 20000456 <task_num>
     550:	00f46363          	bltu	s0,a5,556 <scheduler_run+0x1a>
     554:	b95d                	j	20a <__riscv_restore_4>
     556:	034407b3          	mul	a5,s0,s4
     55a:	8501a683          	lw	a3,-1968(gp) # 20000460 <uwtick>
     55e:	97a6                	add	a5,a5,s1
     560:	4798                	lw	a4,8(a5)
     562:	43d0                	lw	a2,4(a5)
     564:	9732                	add	a4,a4,a2
     566:	00d77563          	bgeu	a4,a3,570 <scheduler_run+0x34>
     56a:	c794                	sw	a3,8(a5)
     56c:	439c                	lw	a5,0(a5)
     56e:	9782                	jalr	a5
     570:	0405                	addi	s0,s0,1
     572:	0ff47413          	andi	s0,s0,255
     576:	bfd9                	j	54c <scheduler_run+0x10>

00000578 <UART6_IRQHandler>:
     578:	1141                	addi	sp,sp,-16
     57a:	c622                	sw	s0,12(sp)
     57c:	40002437          	lui	s0,0x40002
     580:	52500593          	li	a1,1317
     584:	80040513          	addi	a0,s0,-2048 # 40001800 <_eusrstack+0x1fff9800>
     588:	741000ef          	jal	ra,14c8 <USART_GetITStatus>
     58c:	c105                	beqz	a0,5ac <UART6_IRQHandler+0x34>
     58e:	80040513          	addi	a0,s0,-2048
     592:	840186a3          	sb	zero,-1971(gp) # 2000045d <uart6_rec_tick>
     596:	715000ef          	jal	ra,14aa <USART_ReceiveData>
     59a:	84c18713          	addi	a4,gp,-1972 # 2000045c <uart6_rec_index>
     59e:	2314                	lbu	a3,0(a4)
     5a0:	87418793          	addi	a5,gp,-1932 # 20000484 <uart6_rec_string>
     5a4:	97b6                	add	a5,a5,a3
     5a6:	0685                	addi	a3,a3,1
     5a8:	a388                	sb	a0,0(a5)
     5aa:	a314                	sb	a3,0(a4)
     5ac:	40002537          	lui	a0,0x40002
     5b0:	52500593          	li	a1,1317
     5b4:	80050513          	addi	a0,a0,-2048 # 40001800 <_eusrstack+0x1fff9800>
     5b8:	74d000ef          	jal	ra,1504 <USART_ClearITPendingBit>
     5bc:	4432                	lw	s0,12(sp)
     5be:	0141                	addi	sp,sp,16
     5c0:	30200073          	mret

000005c4 <UART7_IRQHandler>:
     5c4:	40002537          	lui	a0,0x40002
     5c8:	1141                	addi	sp,sp,-16
     5ca:	52500593          	li	a1,1317
     5ce:	c0050513          	addi	a0,a0,-1024 # 40001c00 <_eusrstack+0x1fff9c00>
     5d2:	c622                	sw	s0,12(sp)
     5d4:	c426                	sw	s1,8(sp)
     5d6:	6f3000ef          	jal	ra,14c8 <USART_GetITStatus>
     5da:	cd0d                	beqz	a0,614 <UART7_IRQHandler+0x50>
     5dc:	82018d23          	sb	zero,-1990(gp) # 2000044a <ps_wait_flag>
     5e0:	84f1c683          	lbu	a3,-1969(gp) # 2000045f <uart7_rec_tick>
     5e4:	4729                	li	a4,10
     5e6:	84f18493          	addi	s1,gp,-1969 # 2000045f <uart7_rec_tick>
     5ea:	84e18413          	addi	s0,gp,-1970 # 2000045e <uart7_rec_index>
     5ee:	00d77463          	bgeu	a4,a3,5f6 <UART7_IRQHandler+0x32>
     5f2:	00040023          	sb	zero,0(s0)
     5f6:	40002537          	lui	a0,0x40002
     5fa:	c0050513          	addi	a0,a0,-1024 # 40001c00 <_eusrstack+0x1fff9c00>
     5fe:	6ad000ef          	jal	ra,14aa <USART_ReceiveData>
     602:	2018                	lbu	a4,0(s0)
     604:	97418793          	addi	a5,gp,-1676 # 20000584 <uart7_rec_string>
     608:	97ba                	add	a5,a5,a4
     60a:	0705                	addi	a4,a4,1
     60c:	a388                	sb	a0,0(a5)
     60e:	a018                	sb	a4,0(s0)
     610:	00048023          	sb	zero,0(s1) # 20000000 <_data_vma>
     614:	40002537          	lui	a0,0x40002
     618:	52500593          	li	a1,1317
     61c:	c0050513          	addi	a0,a0,-1024 # 40001c00 <_eusrstack+0x1fff9c00>
     620:	6e5000ef          	jal	ra,1504 <USART_ClearITPendingBit>
     624:	4432                	lw	s0,12(sp)
     626:	44a2                	lw	s1,8(sp)
     628:	0141                	addi	sp,sp,16
     62a:	30200073          	mret

0000062e <key_clear>:
     62e:	0a0a1737          	lui	a4,0xa0a1
     632:	80418793          	addi	a5,gp,-2044 # 20000414 <key_temp>
     636:	a0a70713          	addi	a4,a4,-1526 # a0a0a0a <_data_lma+0xa08ab66>
     63a:	c398                	sw	a4,0(a5)
     63c:	6705                	lui	a4,0x1
     63e:	a0a70713          	addi	a4,a4,-1526 # a0a <USART2_IRQHandler+0xf6>
     642:	a3da                	sh	a4,4(a5)
     644:	820189a3          	sb	zero,-1997(gp) # 20000443 <key_index>
     648:	8082                	ret

0000064a <string_chek>:
     64a:	167d                	addi	a2,a2,-1
     64c:	0ff67613          	andi	a2,a2,255
     650:	0ff00713          	li	a4,255
     654:	00e61463          	bne	a2,a4,65c <string_chek+0x12>
     658:	4505                	li	a0,1
     65a:	8082                	ret
     65c:	87b2                	mv	a5,a2
     65e:	00f506b3          	add	a3,a0,a5
     662:	97ae                	add	a5,a5,a1
     664:	2294                	lbu	a3,0(a3)
     666:	239c                	lbu	a5,0(a5)
     668:	167d                	addi	a2,a2,-1
     66a:	0ff67613          	andi	a2,a2,255
     66e:	fef683e3          	beq	a3,a5,654 <string_chek+0xa>
     672:	4501                	li	a0,0
     674:	8082                	ret

00000676 <string_copy>:
     676:	4781                	li	a5,0
     678:	0ff7f713          	andi	a4,a5,255
     67c:	00c76363          	bltu	a4,a2,682 <string_copy+0xc>
     680:	8082                	ret
     682:	00f50733          	add	a4,a0,a5
     686:	2314                	lbu	a3,0(a4)
     688:	00f58733          	add	a4,a1,a5
     68c:	0785                	addi	a5,a5,1
     68e:	a314                	sb	a3,0(a4)
     690:	b7e5                	j	678 <string_copy+0x2>

00000692 <key_proc>:
     692:	b5fff2ef          	jal	t0,1f0 <__riscv_save_0>
     696:	3a8010ef          	jal	ra,1a3e <key_read>
     69a:	83518693          	addi	a3,gp,-1995 # 20000445 <key_old>
     69e:	82a18ba3          	sb	a0,-1993(gp) # 20000447 <key_val>
     6a2:	229c                	lbu	a5,0(a3)
     6a4:	fff7c713          	not	a4,a5
     6a8:	a288                	sb	a0,0(a3)
     6aa:	8fc9                	or	a5,a5,a0
     6ac:	8391c683          	lbu	a3,-1991(gp) # 20000449 <password_error>
     6b0:	8fa9                	xor	a5,a5,a0
     6b2:	8f69                	and	a4,a4,a0
     6b4:	83218493          	addi	s1,gp,-1998 # 20000442 <key_down>
     6b8:	82f18b23          	sb	a5,-1994(gp) # 20000446 <key_up>
     6bc:	a098                	sb	a4,0(s1)
     6be:	478d                	li	a5,3
     6c0:	04f68063          	beq	a3,a5,700 <key_proc+0x6e>
     6c4:	cf15                	beqz	a4,700 <key_proc+0x6e>
     6c6:	4505                	li	a0,1
     6c8:	75b000ef          	jal	ra,1622 <audio_play>
     6cc:	209c                	lbu	a5,0(s1)
     6ce:	473d                	li	a4,15
     6d0:	17fd                	addi	a5,a5,-1
     6d2:	0ff7f793          	andi	a5,a5,255
     6d6:	02f76563          	bltu	a4,a5,700 <key_proc+0x6e>
     6da:	6711                	lui	a4,0x4
     6dc:	078a                	slli	a5,a5,0x2
     6de:	90070713          	addi	a4,a4,-1792 # 3900 <_malloc_usable_size_r+0x6c>
     6e2:	97ba                	add	a5,a5,a4
     6e4:	439c                	lw	a5,0(a5)
     6e6:	83918413          	addi	s0,gp,-1991 # 20000449 <password_error>
     6ea:	8782                	jr	a5
     6ec:	83318713          	addi	a4,gp,-1997 # 20000443 <key_index>
     6f0:	2314                	lbu	a3,0(a4)
     6f2:	80418793          	addi	a5,gp,-2044 # 20000414 <key_temp>
     6f6:	97b6                	add	a5,a5,a3
     6f8:	4605                	li	a2,1
     6fa:	a390                	sb	a2,0(a5)
     6fc:	0685                	addi	a3,a3,1
     6fe:	a314                	sb	a3,0(a4)
     700:	be11                	j	214 <__riscv_restore_0>
     702:	83318713          	addi	a4,gp,-1997 # 20000443 <key_index>
     706:	2314                	lbu	a3,0(a4)
     708:	80418793          	addi	a5,gp,-2044 # 20000414 <key_temp>
     70c:	97b6                	add	a5,a5,a3
     70e:	4609                	li	a2,2
     710:	b7ed                	j	6fa <key_proc+0x68>
     712:	83318713          	addi	a4,gp,-1997 # 20000443 <key_index>
     716:	2314                	lbu	a3,0(a4)
     718:	80418793          	addi	a5,gp,-2044 # 20000414 <key_temp>
     71c:	97b6                	add	a5,a5,a3
     71e:	460d                	li	a2,3
     720:	bfe9                	j	6fa <key_proc+0x68>
     722:	83818793          	addi	a5,gp,-1992 # 20000448 <mode>
     726:	2398                	lbu	a4,0(a5)
     728:	ff61                	bnez	a4,700 <key_proc+0x6e>
     72a:	4705                	li	a4,1
     72c:	a398                	sb	a4,0(a5)
     72e:	4519                	li	a0,6
     730:	6f3000ef          	jal	ra,1622 <audio_play>
     734:	00040023          	sb	zero,0(s0)
     738:	3ddd                	jal	62e <key_clear>
     73a:	b7d9                	j	700 <key_proc+0x6e>
     73c:	83318713          	addi	a4,gp,-1997 # 20000443 <key_index>
     740:	2314                	lbu	a3,0(a4)
     742:	80418793          	addi	a5,gp,-2044 # 20000414 <key_temp>
     746:	97b6                	add	a5,a5,a3
     748:	4611                	li	a2,4
     74a:	bf45                	j	6fa <key_proc+0x68>
     74c:	83318713          	addi	a4,gp,-1997 # 20000443 <key_index>
     750:	2314                	lbu	a3,0(a4)
     752:	80418793          	addi	a5,gp,-2044 # 20000414 <key_temp>
     756:	97b6                	add	a5,a5,a3
     758:	4615                	li	a2,5
     75a:	b745                	j	6fa <key_proc+0x68>
     75c:	83318713          	addi	a4,gp,-1997 # 20000443 <key_index>
     760:	2314                	lbu	a3,0(a4)
     762:	80418793          	addi	a5,gp,-2044 # 20000414 <key_temp>
     766:	97b6                	add	a5,a5,a3
     768:	4619                	li	a2,6
     76a:	bf41                	j	6fa <key_proc+0x68>
     76c:	83818793          	addi	a5,gp,-1992 # 20000448 <mode>
     770:	2398                	lbu	a4,0(a5)
     772:	f759                	bnez	a4,700 <key_proc+0x6e>
     774:	4715                	li	a4,5
     776:	a398                	sb	a4,0(a5)
     778:	4549                	li	a0,18
     77a:	bf5d                	j	730 <key_proc+0x9e>
     77c:	83318713          	addi	a4,gp,-1997 # 20000443 <key_index>
     780:	2314                	lbu	a3,0(a4)
     782:	80418793          	addi	a5,gp,-2044 # 20000414 <key_temp>
     786:	97b6                	add	a5,a5,a3
     788:	461d                	li	a2,7
     78a:	bf85                	j	6fa <key_proc+0x68>
     78c:	83318713          	addi	a4,gp,-1997 # 20000443 <key_index>
     790:	2314                	lbu	a3,0(a4)
     792:	80418793          	addi	a5,gp,-2044 # 20000414 <key_temp>
     796:	97b6                	add	a5,a5,a3
     798:	4621                	li	a2,8
     79a:	b785                	j	6fa <key_proc+0x68>
     79c:	83318713          	addi	a4,gp,-1997 # 20000443 <key_index>
     7a0:	2314                	lbu	a3,0(a4)
     7a2:	80418793          	addi	a5,gp,-2044 # 20000414 <key_temp>
     7a6:	97b6                	add	a5,a5,a3
     7a8:	4625                	li	a2,9
     7aa:	bf81                	j	6fa <key_proc+0x68>
     7ac:	83818793          	addi	a5,gp,-1992 # 20000448 <mode>
     7b0:	2398                	lbu	a4,0(a5)
     7b2:	f40717e3          	bnez	a4,700 <key_proc+0x6e>
     7b6:	470d                	li	a4,3
     7b8:	a398                	sb	a4,0(a5)
     7ba:	4535                	li	a0,13
     7bc:	667000ef          	jal	ra,1622 <audio_play>
     7c0:	bfa5                	j	738 <key_proc+0xa6>
     7c2:	35b5                	jal	62e <key_clear>
     7c4:	83818413          	addi	s0,gp,-1992 # 20000448 <mode>
     7c8:	2018                	lbu	a4,0(s0)
     7ca:	4799                	li	a5,6
     7cc:	f2f71ae3          	bne	a4,a5,700 <key_proc+0x6e>
     7d0:	625000ef          	jal	ra,15f4 <PS_Empty>
     7d4:	00040023          	sb	zero,0(s0)
     7d8:	b725                	j	700 <key_proc+0x6e>
     7da:	83318713          	addi	a4,gp,-1997 # 20000443 <key_index>
     7de:	2314                	lbu	a3,0(a4)
     7e0:	80418793          	addi	a5,gp,-2044 # 20000414 <key_temp>
     7e4:	97b6                	add	a5,a5,a3
     7e6:	00078023          	sb	zero,0(a5)
     7ea:	bf09                	j	6fc <key_proc+0x6a>
     7ec:	83318713          	addi	a4,gp,-1997 # 20000443 <key_index>
     7f0:	231c                	lbu	a5,0(a4)
     7f2:	f00787e3          	beqz	a5,700 <key_proc+0x6e>
     7f6:	17fd                	addi	a5,a5,-1
     7f8:	0ff7f793          	andi	a5,a5,255
     7fc:	a31c                	sb	a5,0(a4)
     7fe:	80418713          	addi	a4,gp,-2044 # 20000414 <key_temp>
     802:	97ba                	add	a5,a5,a4
     804:	4729                	li	a4,10
     806:	a398                	sb	a4,0(a5)
     808:	bde5                	j	700 <key_proc+0x6e>
     80a:	8381c783          	lbu	a5,-1992(gp) # 20000448 <mode>
     80e:	4715                	li	a4,5
     810:	83818493          	addi	s1,gp,-1992 # 20000448 <mode>
     814:	eef766e3          	bltu	a4,a5,700 <key_proc+0x6e>
     818:	6711                	lui	a4,0x4
     81a:	078a                	slli	a5,a5,0x2
     81c:	94070713          	addi	a4,a4,-1728 # 3940 <_malloc_usable_size_r+0xac>
     820:	97ba                	add	a5,a5,a4
     822:	439c                	lw	a5,0(a5)
     824:	8782                	jr	a5
     826:	4619                	li	a2,6
     828:	80c18593          	addi	a1,gp,-2036 # 2000041c <password>
     82c:	80418513          	addi	a0,gp,-2044 # 20000414 <key_temp>
     830:	3d29                	jal	64a <string_chek>
     832:	c919                	beqz	a0,848 <__stack_size+0x48>
     834:	4705                	li	a4,1
     836:	450d                	li	a0,3
     838:	800185a3          	sb	zero,-2037(gp) # 2000041b <lock_flag>
     83c:	84e18223          	sb	a4,-1980(gp) # 20000454 <show_flag>
     840:	5e3000ef          	jal	ra,1622 <audio_play>
     844:	33ed                	jal	62e <key_clear>
     846:	b779                	j	7d4 <key_proc+0x142>
     848:	4511                	li	a0,4
     84a:	5d9000ef          	jal	ra,1622 <audio_play>
     84e:	33c5                	jal	62e <key_clear>
     850:	201c                	lbu	a5,0(s0)
     852:	470d                	li	a4,3
     854:	4515                	li	a0,5
     856:	0785                	addi	a5,a5,1
     858:	0ff7f793          	andi	a5,a5,255
     85c:	a01c                	sb	a5,0(s0)
     85e:	eae791e3          	bne	a5,a4,700 <key_proc+0x6e>
     862:	5c1000ef          	jal	ra,1622 <audio_play>
     866:	4709                	li	a4,2
     868:	84e18223          	sb	a4,-1980(gp) # 20000454 <show_flag>
     86c:	bd51                	j	700 <key_proc+0x6e>
     86e:	4619                	li	a2,6
     870:	81418593          	addi	a1,gp,-2028 # 20000424 <password_cmd>
     874:	80418513          	addi	a0,gp,-2044 # 20000414 <key_temp>
     878:	3bc9                	jal	64a <string_chek>
     87a:	c509                	beqz	a0,884 <__stack_size+0x84>
     87c:	4789                	li	a5,2
     87e:	a09c                	sb	a5,0(s1)
     880:	451d                	li	a0,7
     882:	bf2d                	j	7bc <key_proc+0x12a>
     884:	4525                	li	a0,9
     886:	59d000ef          	jal	ra,1622 <audio_play>
     88a:	201c                	lbu	a5,0(s0)
     88c:	470d                	li	a4,3
     88e:	0785                	addi	a5,a5,1
     890:	0ff7f793          	andi	a5,a5,255
     894:	a01c                	sb	a5,0(s0)
     896:	e6e795e3          	bne	a5,a4,700 <key_proc+0x6e>
     89a:	4529                	li	a0,10
     89c:	b7d9                	j	862 <__stack_size+0x62>
     89e:	4619                	li	a2,6
     8a0:	80c18593          	addi	a1,gp,-2036 # 2000041c <password>
     8a4:	80418513          	addi	a0,gp,-2044 # 20000414 <key_temp>
     8a8:	33f9                	jal	676 <string_copy>
     8aa:	4521                	li	a0,8
     8ac:	577000ef          	jal	ra,1622 <audio_play>
     8b0:	00048023          	sb	zero,0(s1)
     8b4:	b551                	j	738 <key_proc+0xa6>
     8b6:	4619                	li	a2,6
     8b8:	81418593          	addi	a1,gp,-2028 # 20000424 <password_cmd>
     8bc:	80418513          	addi	a0,gp,-2044 # 20000414 <key_temp>
     8c0:	3369                	jal	64a <string_chek>
     8c2:	d169                	beqz	a0,884 <__stack_size+0x84>
     8c4:	4791                	li	a5,4
     8c6:	a09c                	sb	a5,0(s1)
     8c8:	4539                	li	a0,14
     8ca:	bdcd                	j	7bc <key_proc+0x12a>
     8cc:	4619                	li	a2,6
     8ce:	81418593          	addi	a1,gp,-2028 # 20000424 <password_cmd>
     8d2:	80418513          	addi	a0,gp,-2044 # 20000414 <key_temp>
     8d6:	3b95                	jal	64a <string_chek>
     8d8:	d555                	beqz	a0,884 <__stack_size+0x84>
     8da:	4799                	li	a5,6
     8dc:	a09c                	sb	a5,0(s1)
     8de:	454d                	li	a0,19
     8e0:	bdf1                	j	7bc <key_proc+0x12a>

000008e2 <rfid_chek>:
     8e2:	8f5ff2ef          	jal	t0,1d6 <__riscv_save_4>
     8e6:	83c1c903          	lbu	s2,-1988(gp) # 2000044c <rfid_password_index>
     8ea:	86418493          	addi	s1,gp,-1948 # 20000474 <rfid>
     8ee:	4401                	li	s0,0
     8f0:	00891563          	bne	s2,s0,8fa <rfid_chek+0x18>
     8f4:	4501                	li	a0,0
     8f6:	915ff06f          	j	20a <__riscv_restore_4>
     8fa:	85a6                	mv	a1,s1
     8fc:	4611                	li	a2,4
     8fe:	84018513          	addi	a0,gp,-1984 # 20000450 <rfid_temp>
     902:	33a1                	jal	64a <string_chek>
     904:	0491                	addi	s1,s1,4
     906:	e509                	bnez	a0,910 <rfid_chek+0x2e>
     908:	0405                	addi	s0,s0,1
     90a:	0ff47413          	andi	s0,s0,255
     90e:	b7cd                	j	8f0 <rfid_chek+0xe>
     910:	4505                	li	a0,1
     912:	b7d5                	j	8f6 <rfid_chek+0x14>

00000914 <USART2_IRQHandler>:
     914:	1141                	addi	sp,sp,-16
     916:	c622                	sw	s0,12(sp)
     918:	40004437          	lui	s0,0x40004
     91c:	52500593          	li	a1,1317
     920:	40040513          	addi	a0,s0,1024 # 40004400 <_eusrstack+0x1fffc400>
     924:	c426                	sw	s1,8(sp)
     926:	c24a                	sw	s2,4(sp)
     928:	3a1000ef          	jal	ra,14c8 <USART_GetITStatus>
     92c:	cd39                	beqz	a0,98a <USART2_IRQHandler+0x76>
     92e:	40040513          	addi	a0,s0,1024
     932:	379000ef          	jal	ra,14aa <USART_ReceiveData>
     936:	83b1c703          	lbu	a4,-1989(gp) # 2000044b <rfid_index>
     93a:	46a9                	li	a3,10
     93c:	0ff57513          	andi	a0,a0,255
     940:	83b18793          	addi	a5,gp,-1989 # 2000044b <rfid_index>
     944:	04e6e363          	bltu	a3,a4,98a <USART2_IRQHandler+0x76>
     948:	6691                	lui	a3,0x4
     94a:	070a                	slli	a4,a4,0x2
     94c:	95868693          	addi	a3,a3,-1704 # 3958 <_malloc_usable_size_r+0xc4>
     950:	9736                	add	a4,a4,a3
     952:	4318                	lw	a4,0(a4)
     954:	8702                	jr	a4
     956:	4711                	li	a4,4
     958:	02e51963          	bne	a0,a4,98a <USART2_IRQHandler+0x76>
     95c:	4705                	li	a4,1
     95e:	a398                	sb	a4,0(a5)
     960:	a02d                	j	98a <USART2_IRQHandler+0x76>
     962:	4731                	li	a4,12
     964:	02e51163          	bne	a0,a4,986 <USART2_IRQHandler+0x72>
     968:	4709                	li	a4,2
     96a:	bfd5                	j	95e <USART2_IRQHandler+0x4a>
     96c:	4709                	li	a4,2
     96e:	00e51c63          	bne	a0,a4,986 <USART2_IRQHandler+0x72>
     972:	470d                	li	a4,3
     974:	b7ed                	j	95e <USART2_IRQHandler+0x4a>
     976:	03000713          	li	a4,48
     97a:	00e51663          	bne	a0,a4,986 <USART2_IRQHandler+0x72>
     97e:	4711                	li	a4,4
     980:	bff9                	j	95e <USART2_IRQHandler+0x4a>
     982:	4715                	li	a4,5
     984:	dd69                	beqz	a0,95e <USART2_IRQHandler+0x4a>
     986:	00078023          	sb	zero,0(a5)
     98a:	40004537          	lui	a0,0x40004
     98e:	52500593          	li	a1,1317
     992:	40050513          	addi	a0,a0,1024 # 40004400 <_eusrstack+0x1fffc400>
     996:	36f000ef          	jal	ra,1504 <USART_ClearITPendingBit>
     99a:	4432                	lw	s0,12(sp)
     99c:	44a2                	lw	s1,8(sp)
     99e:	4912                	lw	s2,4(sp)
     9a0:	0141                	addi	sp,sp,16
     9a2:	30200073          	mret
     9a6:	4711                	li	a4,4
     9a8:	fce51fe3          	bne	a0,a4,986 <USART2_IRQHandler+0x72>
     9ac:	4719                	li	a4,6
     9ae:	bf45                	j	95e <USART2_IRQHandler+0x4a>
     9b0:	471d                	li	a4,7
     9b2:	d555                	beqz	a0,95e <USART2_IRQHandler+0x4a>
     9b4:	bfc9                	j	986 <USART2_IRQHandler+0x72>
     9b6:	84a18023          	sb	a0,-1984(gp) # 20000450 <rfid_temp>
     9ba:	4721                	li	a4,8
     9bc:	b74d                	j	95e <USART2_IRQHandler+0x4a>
     9be:	84a180a3          	sb	a0,-1983(gp) # 20000451 <rfid_temp+0x1>
     9c2:	4725                	li	a4,9
     9c4:	bf69                	j	95e <USART2_IRQHandler+0x4a>
     9c6:	84a18123          	sb	a0,-1982(gp) # 20000452 <rfid_temp+0x2>
     9ca:	4729                	li	a4,10
     9cc:	bf49                	j	95e <USART2_IRQHandler+0x4a>
     9ce:	00078023          	sb	zero,0(a5)
     9d2:	8381c783          	lbu	a5,-1992(gp) # 20000448 <mode>
     9d6:	84018693          	addi	a3,gp,-1984 # 20000450 <rfid_temp>
     9da:	b2a8                	sb	a0,3(a3)
     9dc:	893a                	mv	s2,a4
     9de:	83818493          	addi	s1,gp,-1992 # 20000448 <mode>
     9e2:	eb81                	bnez	a5,9f2 <USART2_IRQHandler+0xde>
     9e4:	3dfd                	jal	8e2 <rfid_chek>
     9e6:	cd15                	beqz	a0,a22 <USART2_IRQHandler+0x10e>
     9e8:	452d                	li	a0,11
     9ea:	439000ef          	jal	ra,1622 <audio_play>
     9ee:	800185a3          	sb	zero,-2037(gp) # 2000041b <lock_flag>
     9f2:	2098                	lbu	a4,0(s1)
     9f4:	4791                	li	a5,4
     9f6:	f8f71ae3          	bne	a4,a5,98a <USART2_IRQHandler+0x76>
     9fa:	83c18413          	addi	s0,gp,-1988 # 2000044c <rfid_password_index>
     9fe:	201c                	lbu	a5,0(s0)
     a00:	86418593          	addi	a1,gp,-1948 # 20000474 <rfid>
     a04:	078a                	slli	a5,a5,0x2
     a06:	95be                	add	a1,a1,a5
     a08:	4611                	li	a2,4
     a0a:	84018513          	addi	a0,gp,-1984 # 20000450 <rfid_temp>
     a0e:	31a5                	jal	676 <string_copy>
     a10:	453d                	li	a0,15
     a12:	411000ef          	jal	ra,1622 <audio_play>
     a16:	201c                	lbu	a5,0(s0)
     a18:	00048023          	sb	zero,0(s1)
     a1c:	0785                	addi	a5,a5,1
     a1e:	a01c                	sb	a5,0(s0)
     a20:	b7ad                	j	98a <USART2_IRQHandler+0x76>
     a22:	4531                	li	a0,12
     a24:	3ff000ef          	jal	ra,1622 <audio_play>
     a28:	b7e9                	j	9f2 <USART2_IRQHandler+0xde>

00000a2a <Ps_Wait>:
     a2a:	fc6ff2ef          	jal	t0,1f0 <__riscv_save_0>
     a2e:	4705                	li	a4,1
     a30:	82e18d23          	sb	a4,-1990(gp) # 2000044a <ps_wait_flag>
     a34:	83a18413          	addi	s0,gp,-1990 # 2000044a <ps_wait_flag>
     a38:	0c800513          	li	a0,200
     a3c:	691010ef          	jal	ra,28cc <Delay_Ms>
     a40:	201c                	lbu	a5,0(s0)
     a42:	fbfd                	bnez	a5,a38 <Ps_Wait+0xe>
     a44:	fd0ff06f          	j	214 <__riscv_restore_0>

00000a48 <as608_proc>:
     a48:	fa8ff2ef          	jal	t0,1f0 <__riscv_save_0>
     a4c:	40011537          	lui	a0,0x40011
     a50:	4589                	li	a1,2
     a52:	80050513          	addi	a0,a0,-2048 # 40010800 <_eusrstack+0x20008800>
     a56:	2b35                	jal	f92 <GPIO_ReadInputDataBit>
     a58:	82a18823          	sb	a0,-2000(gp) # 20000440 <_edata>
     a5c:	83118793          	addi	a5,gp,-1999 # 20000441 <as608_proc_falg_old>
     a60:	2398                	lbu	a4,0(a5)
     a62:	08a70563          	beq	a4,a0,aec <as608_proc+0xa4>
     a66:	a388                	sb	a0,0(a5)
     a68:	c151                	beqz	a0,aec <as608_proc+0xa4>
     a6a:	83818493          	addi	s1,gp,-1992 # 20000448 <mode>
     a6e:	209c                	lbu	a5,0(s1)
     a70:	4719                	li	a4,6
     a72:	06e79c63          	bne	a5,a4,aea <as608_proc+0xa2>
     a76:	2af000ef          	jal	ra,1524 <PS_GetImage>
     a7a:	3f45                	jal	a2a <Ps_Wait>
     a7c:	4505                	li	a0,1
     a7e:	2c9000ef          	jal	ra,1546 <PS_GenChar>
     a82:	3765                	jal	a2a <Ps_Wait>
     a84:	2a1000ef          	jal	ra,1524 <PS_GetImage>
     a88:	374d                	jal	a2a <Ps_Wait>
     a8a:	4509                	li	a0,2
     a8c:	20000437          	lui	s0,0x20000
     a90:	2b7000ef          	jal	ra,1546 <PS_GenChar>
     a94:	41040413          	addi	s0,s0,1040 # 20000410 <as608_store_index>
     a98:	3f49                	jal	a2a <Ps_Wait>
     a9a:	2e1000ef          	jal	ra,157a <PS_RegModel>
     a9e:	3771                	jal	a2a <Ps_Wait>
     aa0:	2008                	lbu	a0,0(s0)
     aa2:	2fb000ef          	jal	ra,159c <PS_StoreChar>
     aa6:	201c                	lbu	a5,0(s0)
     aa8:	0785                	addi	a5,a5,1
     aaa:	a01c                	sb	a5,0(s0)
     aac:	3fbd                	jal	a2a <Ps_Wait>
     aae:	4555                	li	a0,21
     ab0:	373000ef          	jal	ra,1622 <audio_play>
     ab4:	00048023          	sb	zero,0(s1)
     ab8:	26d000ef          	jal	ra,1524 <PS_GetImage>
     abc:	37bd                	jal	a2a <Ps_Wait>
     abe:	4509                	li	a0,2
     ac0:	287000ef          	jal	ra,1546 <PS_GenChar>
     ac4:	379d                	jal	a2a <Ps_Wait>
     ac6:	30d000ef          	jal	ra,15d2 <PS_Search>
     aca:	3785                	jal	a2a <Ps_Wait>
     acc:	9811c703          	lbu	a4,-1663(gp) # 20000591 <uart7_rec_string+0xd>
     ad0:	03200793          	li	a5,50
     ad4:	00e7fe63          	bgeu	a5,a4,af0 <as608_proc+0xa8>
     ad8:	4541                	li	a0,16
     ada:	349000ef          	jal	ra,1622 <audio_play>
     ade:	800185a3          	sb	zero,-2037(gp) # 2000041b <lock_flag>
     ae2:	4705                	li	a4,1
     ae4:	84e18223          	sb	a4,-1980(gp) # 20000454 <show_flag>
     ae8:	a011                	j	aec <as608_proc+0xa4>
     aea:	d7f9                	beqz	a5,ab8 <as608_proc+0x70>
     aec:	f28ff06f          	j	214 <__riscv_restore_0>
     af0:	4545                	li	a0,17
     af2:	331000ef          	jal	ra,1622 <audio_play>
     af6:	bfdd                	j	aec <as608_proc+0xa4>

00000af8 <main>:
     af8:	ef8ff2ef          	jal	t0,1f0 <__riscv_save_0>
     afc:	4509                	li	a0,2
     afe:	215d                	jal	fa4 <NVIC_PriorityGroupConfig>
     b00:	2c31                	jal	d1c <SystemCoreClockUpdate>
     b02:	6571                	lui	a0,0x1c
     b04:	20050513          	addi	a0,a0,512 # 1c200 <_data_lma+0x635c>
     b08:	5fb010ef          	jal	ra,2902 <USART_Printf_Init>
     b0c:	565010ef          	jal	ra,2870 <Delay_Init>
     b10:	185010ef          	jal	ra,2494 <TIM2_PWM_Init>
     b14:	4505                	li	a0,1
     b16:	209010ef          	jal	ra,251e <lock>
     b1a:	6441                	lui	s0,0x10
     b1c:	356010ef          	jal	ra,1e72 <LCD_Init>
     b20:	fff40713          	addi	a4,s0,-1 # ffff <gImage_2+0x44e3>
     b24:	07f00693          	li	a3,127
     b28:	07f00613          	li	a2,127
     b2c:	4581                	li	a1,0
     b2e:	4501                	li	a0,0
     b30:	5fe010ef          	jal	ra,212e <LCD_Fill>
     b34:	00014637          	lui	a2,0x14
     b38:	4801                	li	a6,0
     b3a:	47c1                	li	a5,16
     b3c:	fff40713          	addi	a4,s0,-1
     b40:	80040693          	addi	a3,s0,-2048
     b44:	b4860613          	addi	a2,a2,-1208 # 13b48 <gImage_2+0x802c>
     b48:	03200593          	li	a1,50
     b4c:	4551                	li	a0,20
     b4e:	722010ef          	jal	ra,2270 <lcd_show_chinese>
     b52:	00014637          	lui	a2,0x14
     b56:	4801                	li	a6,0
     b58:	47c1                	li	a5,16
     b5a:	fff40713          	addi	a4,s0,-1
     b5e:	80040693          	addi	a3,s0,-2048
     b62:	b5460613          	addi	a2,a2,-1196 # 13b54 <gImage_2+0x8038>
     b66:	03200593          	li	a1,50
     b6a:	4551                	li	a0,20
     b6c:	704010ef          	jal	ra,2270 <lcd_show_chinese>
     b70:	1f400513          	li	a0,500
     b74:	559010ef          	jal	ra,28cc <Delay_Ms>
     b78:	6711                	lui	a4,0x4
     b7a:	b1c70713          	addi	a4,a4,-1252 # 3b1c <gImage_1>
     b7e:	08000693          	li	a3,128
     b82:	08000613          	li	a2,128
     b86:	4581                	li	a1,0
     b88:	4501                	li	a0,0
     b8a:	0a9010ef          	jal	ra,2432 <LCD_ShowPicture>
     b8e:	6731                	lui	a4,0xc
     b90:	b1c70713          	addi	a4,a4,-1252 # bb1c <gImage_2>
     b94:	08000693          	li	a3,128
     b98:	08000613          	li	a2,128
     b9c:	4581                	li	a1,0
     b9e:	4501                	li	a0,0
     ba0:	093010ef          	jal	ra,2432 <LCD_ShowPicture>
     ba4:	00014637          	lui	a2,0x14
     ba8:	4801                	li	a6,0
     baa:	47c1                	li	a5,16
     bac:	fff40713          	addi	a4,s0,-1
     bb0:	80040693          	addi	a3,s0,-2048
     bb4:	b1c60613          	addi	a2,a2,-1252 # 13b1c <gImage_2+0x8000>
     bb8:	4581                	li	a1,0
     bba:	4501                	li	a0,0
     bbc:	6b4010ef          	jal	ra,2270 <lcd_show_chinese>
     bc0:	04200693          	li	a3,66
     bc4:	07000613          	li	a2,112
     bc8:	fe040713          	addi	a4,s0,-32
     bcc:	02d00593          	li	a1,45
     bd0:	4541                	li	a0,16
     bd2:	55c010ef          	jal	ra,212e <LCD_Fill>
     bd6:	5d7000ef          	jal	ra,19ac <key_init>
     bda:	05f00593          	li	a1,95
     bde:	3e800513          	li	a0,1000
     be2:	157010ef          	jal	ra,2538 <Tim3_Init>
     be6:	4715                	li	a4,5
     be8:	84e18323          	sb	a4,-1978(gp) # 20000456 <task_num>
     bec:	22b000ef          	jal	ra,1616 <audio_init>
     bf0:	4551                	li	a0,20
     bf2:	279000ef          	jal	ra,166a <audio_yinliang>
     bf6:	4529                	li	a0,10
     bf8:	4d5010ef          	jal	ra,28cc <Delay_Ms>
     bfc:	4509                	li	a0,2
     bfe:	225000ef          	jal	ra,1622 <audio_play>
     c02:	3dd010ef          	jal	ra,27de <Usart2_Init>
     c06:	113000ef          	jal	ra,1518 <as608_init>
     c0a:	2ab000ef          	jal	ra,16b4 <esp8266_init>
     c0e:	39d000ef          	jal	ra,17aa <AT24C02_Init>
     c12:	4529                	li	a0,10
     c14:	4b9010ef          	jal	ra,28cc <Delay_Ms>
     c18:	2a9000ef          	jal	ra,16c0 <onenet_init>
     c1c:	921ff0ef          	jal	ra,53c <scheduler_run>
     c20:	bff5                	j	c1c <main+0x124>

00000c22 <SystemInit>:
     c22:	400217b7          	lui	a5,0x40021
     c26:	4398                	lw	a4,0(a5)
     c28:	f0ff06b7          	lui	a3,0xf0ff0
     c2c:	1141                	addi	sp,sp,-16
     c2e:	00176713          	ori	a4,a4,1
     c32:	c398                	sw	a4,0(a5)
     c34:	43d8                	lw	a4,4(a5)
     c36:	00020637          	lui	a2,0x20
     c3a:	8f75                	and	a4,a4,a3
     c3c:	c3d8                	sw	a4,4(a5)
     c3e:	4398                	lw	a4,0(a5)
     c40:	fef706b7          	lui	a3,0xfef70
     c44:	16fd                	addi	a3,a3,-1
     c46:	8f75                	and	a4,a4,a3
     c48:	c398                	sw	a4,0(a5)
     c4a:	4398                	lw	a4,0(a5)
     c4c:	fffc06b7          	lui	a3,0xfffc0
     c50:	16fd                	addi	a3,a3,-1
     c52:	8f75                	and	a4,a4,a3
     c54:	c398                	sw	a4,0(a5)
     c56:	43d8                	lw	a4,4(a5)
     c58:	ff0106b7          	lui	a3,0xff010
     c5c:	16fd                	addi	a3,a3,-1
     c5e:	8f75                	and	a4,a4,a3
     c60:	c3d8                	sw	a4,4(a5)
     c62:	4398                	lw	a4,0(a5)
     c64:	ec0006b7          	lui	a3,0xec000
     c68:	16fd                	addi	a3,a3,-1
     c6a:	8f75                	and	a4,a4,a3
     c6c:	c398                	sw	a4,0(a5)
     c6e:	00ff0737          	lui	a4,0xff0
     c72:	c798                	sw	a4,8(a5)
     c74:	0207a623          	sw	zero,44(a5) # 4002102c <_eusrstack+0x2001902c>
     c78:	c402                	sw	zero,8(sp)
     c7a:	c602                	sw	zero,12(sp)
     c7c:	4398                	lw	a4,0(a5)
     c7e:	66c1                	lui	a3,0x10
     c80:	8f55                	or	a4,a4,a3
     c82:	c398                	sw	a4,0(a5)
     c84:	400216b7          	lui	a3,0x40021
     c88:	6705                	lui	a4,0x1
     c8a:	429c                	lw	a5,0(a3)
     c8c:	8ff1                	and	a5,a5,a2
     c8e:	c63e                	sw	a5,12(sp)
     c90:	47a2                	lw	a5,8(sp)
     c92:	0785                	addi	a5,a5,1
     c94:	c43e                	sw	a5,8(sp)
     c96:	47b2                	lw	a5,12(sp)
     c98:	e781                	bnez	a5,ca0 <SystemInit+0x7e>
     c9a:	47a2                	lw	a5,8(sp)
     c9c:	fee797e3          	bne	a5,a4,c8a <SystemInit+0x68>
     ca0:	400217b7          	lui	a5,0x40021
     ca4:	439c                	lw	a5,0(a5)
     ca6:	00e79713          	slli	a4,a5,0xe
     caa:	06075763          	bgez	a4,d18 <SystemInit+0xf6>
     cae:	4785                	li	a5,1
     cb0:	c63e                	sw	a5,12(sp)
     cb2:	4732                	lw	a4,12(sp)
     cb4:	4785                	li	a5,1
     cb6:	04f71f63          	bne	a4,a5,d14 <SystemInit+0xf2>
     cba:	400217b7          	lui	a5,0x40021
     cbe:	43d8                	lw	a4,4(a5)
     cc0:	ffc106b7          	lui	a3,0xffc10
     cc4:	16fd                	addi	a3,a3,-1
     cc6:	c3d8                	sw	a4,4(a5)
     cc8:	43d8                	lw	a4,4(a5)
     cca:	c3d8                	sw	a4,4(a5)
     ccc:	43d8                	lw	a4,4(a5)
     cce:	40076713          	ori	a4,a4,1024
     cd2:	c3d8                	sw	a4,4(a5)
     cd4:	43d8                	lw	a4,4(a5)
     cd6:	8f75                	and	a4,a4,a3
     cd8:	c3d8                	sw	a4,4(a5)
     cda:	43d8                	lw	a4,4(a5)
     cdc:	002906b7          	lui	a3,0x290
     ce0:	8f55                	or	a4,a4,a3
     ce2:	c3d8                	sw	a4,4(a5)
     ce4:	4398                	lw	a4,0(a5)
     ce6:	010006b7          	lui	a3,0x1000
     cea:	8f55                	or	a4,a4,a3
     cec:	c398                	sw	a4,0(a5)
     cee:	4398                	lw	a4,0(a5)
     cf0:	00671693          	slli	a3,a4,0x6
     cf4:	fe06dde3          	bgez	a3,cee <SystemInit+0xcc>
     cf8:	43d8                	lw	a4,4(a5)
     cfa:	400216b7          	lui	a3,0x40021
     cfe:	9b71                	andi	a4,a4,-4
     d00:	c3d8                	sw	a4,4(a5)
     d02:	43d8                	lw	a4,4(a5)
     d04:	00276713          	ori	a4,a4,2
     d08:	c3d8                	sw	a4,4(a5)
     d0a:	4721                	li	a4,8
     d0c:	42dc                	lw	a5,4(a3)
     d0e:	8bb1                	andi	a5,a5,12
     d10:	fee79ee3          	bne	a5,a4,d0c <SystemInit+0xea>
     d14:	0141                	addi	sp,sp,16
     d16:	8082                	ret
     d18:	c602                	sw	zero,12(sp)
     d1a:	bf61                	j	cb2 <SystemInit+0x90>

00000d1c <SystemCoreClockUpdate>:
     d1c:	400216b7          	lui	a3,0x40021
     d20:	42d8                	lw	a4,4(a3)
     d22:	4611                	li	a2,4
     d24:	8b31                	andi	a4,a4,12
     d26:	81c18793          	addi	a5,gp,-2020 # 2000042c <SystemCoreClock>
     d2a:	00c70563          	beq	a4,a2,d34 <SystemCoreClockUpdate+0x18>
     d2e:	4621                	li	a2,8
     d30:	02c70863          	beq	a4,a2,d60 <SystemCoreClockUpdate+0x44>
     d34:	007a1737          	lui	a4,0x7a1
     d38:	20070713          	addi	a4,a4,512 # 7a1200 <_data_lma+0x78b35c>
     d3c:	c398                	sw	a4,0(a5)
     d3e:	40021737          	lui	a4,0x40021
     d42:	4358                	lw	a4,4(a4)
     d44:	8311                	srli	a4,a4,0x4
     d46:	00f77693          	andi	a3,a4,15
     d4a:	20000737          	lui	a4,0x20000
     d4e:	03c70713          	addi	a4,a4,60 # 2000003c <AHBPrescTable>
     d52:	9736                	add	a4,a4,a3
     d54:	2314                	lbu	a3,0(a4)
     d56:	4398                	lw	a4,0(a5)
     d58:	00d75733          	srl	a4,a4,a3
     d5c:	c398                	sw	a4,0(a5)
     d5e:	8082                	ret
     d60:	42d8                	lw	a4,4(a3)
     d62:	42d4                	lw	a3,4(a3)
     d64:	6641                	lui	a2,0x10
     d66:	8349                	srli	a4,a4,0x12
     d68:	8b3d                	andi	a4,a4,15
     d6a:	8ef1                	and	a3,a3,a2
     d6c:	00270613          	addi	a2,a4,2
     d70:	cf15                	beqz	a4,dac <SystemCoreClockUpdate+0x90>
     d72:	473d                	li	a4,15
     d74:	02e60f63          	beq	a2,a4,db2 <SystemCoreClockUpdate+0x96>
     d78:	4741                	li	a4,16
     d7a:	02e60f63          	beq	a2,a4,db8 <SystemCoreClockUpdate+0x9c>
     d7e:	4745                	li	a4,17
     d80:	4581                	li	a1,0
     d82:	00e61363          	bne	a2,a4,d88 <SystemCoreClockUpdate+0x6c>
     d86:	4641                	li	a2,16
     d88:	e2a1                	bnez	a3,dc8 <SystemCoreClockUpdate+0xac>
     d8a:	40024737          	lui	a4,0x40024
     d8e:	80072703          	lw	a4,-2048(a4) # 40023800 <_eusrstack+0x2001b800>
     d92:	8b41                	andi	a4,a4,16
     d94:	c70d                	beqz	a4,dbe <SystemCoreClockUpdate+0xa2>
     d96:	007a1737          	lui	a4,0x7a1
     d9a:	20070713          	addi	a4,a4,512 # 7a1200 <_data_lma+0x78b35c>
     d9e:	02c70633          	mul	a2,a4,a2
     da2:	c390                	sw	a2,0(a5)
     da4:	ddc9                	beqz	a1,d3e <SystemCoreClockUpdate+0x22>
     da6:	4398                	lw	a4,0(a5)
     da8:	8305                	srli	a4,a4,0x1
     daa:	bf49                	j	d3c <SystemCoreClockUpdate+0x20>
     dac:	4581                	li	a1,0
     dae:	4649                	li	a2,18
     db0:	bfe1                	j	d88 <SystemCoreClockUpdate+0x6c>
     db2:	4585                	li	a1,1
     db4:	4635                	li	a2,13
     db6:	bfc9                	j	d88 <SystemCoreClockUpdate+0x6c>
     db8:	4581                	li	a1,0
     dba:	463d                	li	a2,15
     dbc:	b7f1                	j	d88 <SystemCoreClockUpdate+0x6c>
     dbe:	003d1737          	lui	a4,0x3d1
     dc2:	90070713          	addi	a4,a4,-1792 # 3d0900 <_data_lma+0x3baa5c>
     dc6:	bfe1                	j	d9e <SystemCoreClockUpdate+0x82>
     dc8:	40021537          	lui	a0,0x40021
     dcc:	5558                	lw	a4,44(a0)
     dce:	00f71693          	slli	a3,a4,0xf
     dd2:	5558                	lw	a4,44(a0)
     dd4:	0406df63          	bgez	a3,e32 <SystemCoreClockUpdate+0x116>
     dd8:	8311                	srli	a4,a4,0x4
     dda:	8b3d                	andi	a4,a4,15
     ddc:	00170693          	addi	a3,a4,1
     de0:	007a1737          	lui	a4,0x7a1
     de4:	20070713          	addi	a4,a4,512 # 7a1200 <_data_lma+0x78b35c>
     de8:	02d75733          	divu	a4,a4,a3
     dec:	c398                	sw	a4,0(a5)
     dee:	5554                	lw	a3,44(a0)
     df0:	82a1                	srli	a3,a3,0x8
     df2:	8abd                	andi	a3,a3,15
     df4:	e28d                	bnez	a3,e16 <SystemCoreClockUpdate+0xfa>
     df6:	4695                	li	a3,5
     df8:	02d70733          	mul	a4,a4,a3
     dfc:	8305                	srli	a4,a4,0x1
     dfe:	c398                	sw	a4,0(a5)
     e00:	40021737          	lui	a4,0x40021
     e04:	5758                	lw	a4,44(a4)
     e06:	4394                	lw	a3,0(a5)
     e08:	8b3d                	andi	a4,a4,15
     e0a:	0705                	addi	a4,a4,1
     e0c:	02e6d733          	divu	a4,a3,a4
     e10:	c398                	sw	a4,0(a5)
     e12:	4398                	lw	a4,0(a5)
     e14:	b769                	j	d9e <SystemCoreClockUpdate+0x82>
     e16:	4505                	li	a0,1
     e18:	00a69463          	bne	a3,a0,e20 <SystemCoreClockUpdate+0x104>
     e1c:	46e5                	li	a3,25
     e1e:	bfe9                	j	df8 <SystemCoreClockUpdate+0xdc>
     e20:	453d                	li	a0,15
     e22:	00a69663          	bne	a3,a0,e2e <SystemCoreClockUpdate+0x112>
     e26:	46d1                	li	a3,20
     e28:	02e68733          	mul	a4,a3,a4
     e2c:	bfc9                	j	dfe <SystemCoreClockUpdate+0xe2>
     e2e:	0689                	addi	a3,a3,2
     e30:	bfe5                	j	e28 <SystemCoreClockUpdate+0x10c>
     e32:	8b3d                	andi	a4,a4,15
     e34:	00170693          	addi	a3,a4,1 # 40021001 <_eusrstack+0x20019001>
     e38:	007a1737          	lui	a4,0x7a1
     e3c:	20070713          	addi	a4,a4,512 # 7a1200 <_data_lma+0x78b35c>
     e40:	02d75733          	divu	a4,a4,a3
     e44:	b7f1                	j	e10 <SystemCoreClockUpdate+0xf4>

00000e46 <ADC1_2_IRQHandler>:
     e46:	a001                	j	e46 <ADC1_2_IRQHandler>

00000e48 <handle_reset>:
     e48:	20000197          	auipc	gp,0x20000
     e4c:	dc818193          	addi	gp,gp,-568 # 20000c10 <__global_pointer$>
     e50:	20007117          	auipc	sp,0x20007
     e54:	1b010113          	addi	sp,sp,432 # 20008000 <_eusrstack>
     e58:	00015517          	auipc	a0,0x15
     e5c:	04c50513          	addi	a0,a0,76 # 15ea4 <_data_lma>
     e60:	1ffff597          	auipc	a1,0x1ffff
     e64:	1a058593          	addi	a1,a1,416 # 20000000 <_data_vma>
     e68:	83018613          	addi	a2,gp,-2000 # 20000440 <_edata>
     e6c:	00c5fa63          	bgeu	a1,a2,e80 <handle_reset+0x38>
     e70:	00052283          	lw	t0,0(a0)
     e74:	0055a023          	sw	t0,0(a1)
     e78:	0511                	addi	a0,a0,4
     e7a:	0591                	addi	a1,a1,4
     e7c:	fec5eae3          	bltu	a1,a2,e70 <handle_reset+0x28>
     e80:	83018513          	addi	a0,gp,-2000 # 20000440 <_edata>
     e84:	98c18593          	addi	a1,gp,-1652 # 2000059c <_ebss>
     e88:	00b57763          	bgeu	a0,a1,e96 <handle_reset+0x4e>
     e8c:	00052023          	sw	zero,0(a0)
     e90:	0511                	addi	a0,a0,4
     e92:	feb56de3          	bltu	a0,a1,e8c <handle_reset+0x44>
     e96:	42fd                	li	t0,31
     e98:	bc029073          	csrw	0xbc0,t0
     e9c:	42ad                	li	t0,11
     e9e:	80429073          	csrw	0x804,t0
     ea2:	000062b7          	lui	t0,0x6
     ea6:	08828293          	addi	t0,t0,136 # 6088 <gImage_1+0x256c>
     eaa:	30029073          	csrw	mstatus,t0
     eae:	fffff297          	auipc	t0,0xfffff
     eb2:	15628293          	addi	t0,t0,342 # 4 <_einit>
     eb6:	0032e293          	ori	t0,t0,3
     eba:	30529073          	csrw	mtvec,t0
     ebe:	d65ff0ef          	jal	ra,c22 <SystemInit>
     ec2:	00000297          	auipc	t0,0x0
     ec6:	c3628293          	addi	t0,t0,-970 # af8 <main>
     eca:	34129073          	csrw	mepc,t0
     ece:	30200073          	mret

00000ed2 <GPIO_Init>:
     ed2:	459c                	lw	a5,8(a1)
     ed4:	0107f713          	andi	a4,a5,16
     ed8:	00f7f813          	andi	a6,a5,15
     edc:	c701                	beqz	a4,ee4 <GPIO_Init+0x12>
     ede:	41d8                	lw	a4,4(a1)
     ee0:	00e86833          	or	a6,a6,a4
     ee4:	218e                	lhu	a1,0(a1)
     ee6:	0ff5f713          	andi	a4,a1,255
     eea:	c339                	beqz	a4,f30 <GPIO_Init+0x5e>
     eec:	4118                	lw	a4,0(a0)
     eee:	4681                	li	a3,0
     ef0:	4e85                	li	t4,1
     ef2:	4f3d                	li	t5,15
     ef4:	02800f93          	li	t6,40
     ef8:	04800293          	li	t0,72
     efc:	4e21                	li	t3,8
     efe:	00de9633          	sll	a2,t4,a3
     f02:	00c5f8b3          	and	a7,a1,a2
     f06:	03161163          	bne	a2,a7,f28 <GPIO_Init+0x56>
     f0a:	00269893          	slli	a7,a3,0x2
     f0e:	011f1333          	sll	t1,t5,a7
     f12:	fff34313          	not	t1,t1
     f16:	00e37733          	and	a4,t1,a4
     f1a:	011818b3          	sll	a7,a6,a7
     f1e:	00e8e733          	or	a4,a7,a4
     f22:	05f79f63          	bne	a5,t6,f80 <GPIO_Init+0xae>
     f26:	c950                	sw	a2,20(a0)
     f28:	0685                	addi	a3,a3,1
     f2a:	fdc69ae3          	bne	a3,t3,efe <GPIO_Init+0x2c>
     f2e:	c118                	sw	a4,0(a0)
     f30:	0ff00713          	li	a4,255
     f34:	04b77563          	bgeu	a4,a1,f7e <GPIO_Init+0xac>
     f38:	4154                	lw	a3,4(a0)
     f3a:	4621                	li	a2,8
     f3c:	4e85                	li	t4,1
     f3e:	4f3d                	li	t5,15
     f40:	02800f93          	li	t6,40
     f44:	04800293          	li	t0,72
     f48:	4e41                	li	t3,16
     f4a:	00ce98b3          	sll	a7,t4,a2
     f4e:	0115f733          	and	a4,a1,a7
     f52:	02e89263          	bne	a7,a4,f76 <GPIO_Init+0xa4>
     f56:	00261713          	slli	a4,a2,0x2
     f5a:	1701                	addi	a4,a4,-32
     f5c:	00ef1333          	sll	t1,t5,a4
     f60:	fff34313          	not	t1,t1
     f64:	00d376b3          	and	a3,t1,a3
     f68:	00e81733          	sll	a4,a6,a4
     f6c:	8ed9                	or	a3,a3,a4
     f6e:	01f79d63          	bne	a5,t6,f88 <GPIO_Init+0xb6>
     f72:	01152a23          	sw	a7,20(a0)
     f76:	0605                	addi	a2,a2,1
     f78:	fdc619e3          	bne	a2,t3,f4a <GPIO_Init+0x78>
     f7c:	c154                	sw	a3,4(a0)
     f7e:	8082                	ret
     f80:	fa5794e3          	bne	a5,t0,f28 <GPIO_Init+0x56>
     f84:	c910                	sw	a2,16(a0)
     f86:	b74d                	j	f28 <GPIO_Init+0x56>
     f88:	fe5797e3          	bne	a5,t0,f76 <GPIO_Init+0xa4>
     f8c:	01152823          	sw	a7,16(a0)
     f90:	b7dd                	j	f76 <GPIO_Init+0xa4>

00000f92 <GPIO_ReadInputDataBit>:
     f92:	4508                	lw	a0,8(a0)
     f94:	8d6d                	and	a0,a0,a1
     f96:	00a03533          	snez	a0,a0
     f9a:	8082                	ret

00000f9c <GPIO_SetBits>:
     f9c:	c90c                	sw	a1,16(a0)
     f9e:	8082                	ret

00000fa0 <GPIO_ResetBits>:
     fa0:	c94c                	sw	a1,20(a0)
     fa2:	8082                	ret

00000fa4 <NVIC_PriorityGroupConfig>:
     fa4:	84a1aa23          	sw	a0,-1964(gp) # 20000464 <NVIC_Priority_Group>
     fa8:	8082                	ret

00000faa <NVIC_Init>:
     faa:	8541a703          	lw	a4,-1964(gp) # 20000464 <NVIC_Priority_Group>
     fae:	4789                	li	a5,2
     fb0:	2110                	lbu	a2,0(a0)
     fb2:	02f71163          	bne	a4,a5,fd4 <NVIC_Init+0x2a>
     fb6:	3114                	lbu	a3,1(a0)
     fb8:	478d                	li	a5,3
     fba:	00d7ed63          	bltu	a5,a3,fd4 <NVIC_Init+0x2a>
     fbe:	213c                	lbu	a5,2(a0)
     fc0:	069a                	slli	a3,a3,0x6
     fc2:	e000e737          	lui	a4,0xe000e
     fc6:	0796                	slli	a5,a5,0x5
     fc8:	8fd5                	or	a5,a5,a3
     fca:	0ff7f793          	andi	a5,a5,255
     fce:	9732                	add	a4,a4,a2
     fd0:	40f70023          	sb	a5,1024(a4) # e000e400 <_eusrstack+0xc0006400>
     fd4:	4154                	lw	a3,4(a0)
     fd6:	4705                	li	a4,1
     fd8:	00565793          	srli	a5,a2,0x5
     fdc:	00c71733          	sll	a4,a4,a2
     fe0:	ca89                	beqz	a3,ff2 <NVIC_Init+0x48>
     fe2:	04078793          	addi	a5,a5,64 # 40021040 <_eusrstack+0x20019040>
     fe6:	078a                	slli	a5,a5,0x2
     fe8:	e000e6b7          	lui	a3,0xe000e
     fec:	97b6                	add	a5,a5,a3
     fee:	c398                	sw	a4,0(a5)
     ff0:	8082                	ret
     ff2:	06078793          	addi	a5,a5,96
     ff6:	e000e6b7          	lui	a3,0xe000e
     ffa:	078a                	slli	a5,a5,0x2
     ffc:	97b6                	add	a5,a5,a3
     ffe:	c398                	sw	a4,0(a5)
    1000:	0000100f          	fence.i
    1004:	8082                	ret

00001006 <RCC_GetClocksFreq>:
    1006:	40021737          	lui	a4,0x40021
    100a:	435c                	lw	a5,4(a4)
    100c:	4691                	li	a3,4
    100e:	8bb1                	andi	a5,a5,12
    1010:	00d78563          	beq	a5,a3,101a <RCC_GetClocksFreq+0x14>
    1014:	46a1                	li	a3,8
    1016:	06d78263          	beq	a5,a3,107a <RCC_GetClocksFreq+0x74>
    101a:	007a17b7          	lui	a5,0x7a1
    101e:	20078793          	addi	a5,a5,512 # 7a1200 <_data_lma+0x78b35c>
    1022:	c11c                	sw	a5,0(a0)
    1024:	40021637          	lui	a2,0x40021
    1028:	425c                	lw	a5,4(a2)
    102a:	20000737          	lui	a4,0x20000
    102e:	04c70713          	addi	a4,a4,76 # 2000004c <APBAHBPrescTable>
    1032:	8391                	srli	a5,a5,0x4
    1034:	8bbd                	andi	a5,a5,15
    1036:	97ba                	add	a5,a5,a4
    1038:	2394                	lbu	a3,0(a5)
    103a:	411c                	lw	a5,0(a0)
    103c:	00d7d7b3          	srl	a5,a5,a3
    1040:	c15c                	sw	a5,4(a0)
    1042:	4254                	lw	a3,4(a2)
    1044:	82a1                	srli	a3,a3,0x8
    1046:	8a9d                	andi	a3,a3,7
    1048:	96ba                	add	a3,a3,a4
    104a:	2294                	lbu	a3,0(a3)
    104c:	00d7d6b3          	srl	a3,a5,a3
    1050:	c514                	sw	a3,8(a0)
    1052:	4254                	lw	a3,4(a2)
    1054:	82ad                	srli	a3,a3,0xb
    1056:	8a9d                	andi	a3,a3,7
    1058:	9736                	add	a4,a4,a3
    105a:	2318                	lbu	a4,0(a4)
    105c:	00e7d7b3          	srl	a5,a5,a4
    1060:	c55c                	sw	a5,12(a0)
    1062:	4258                	lw	a4,4(a2)
    1064:	8339                	srli	a4,a4,0xe
    1066:	00377693          	andi	a3,a4,3
    106a:	82018713          	addi	a4,gp,-2016 # 20000430 <ADCPrescTable>
    106e:	9736                	add	a4,a4,a3
    1070:	2318                	lbu	a4,0(a4)
    1072:	02e7d7b3          	divu	a5,a5,a4
    1076:	c91c                	sw	a5,16(a0)
    1078:	8082                	ret
    107a:	435c                	lw	a5,4(a4)
    107c:	4358                	lw	a4,4(a4)
    107e:	66c1                	lui	a3,0x10
    1080:	83c9                	srli	a5,a5,0x12
    1082:	8f75                	and	a4,a4,a3
    1084:	1ffff6b7          	lui	a3,0x1ffff
    1088:	70c6a683          	lw	a3,1804(a3) # 1ffff70c <_data_lma+0x1ffe9868>
    108c:	8bbd                	andi	a5,a5,15
    108e:	0789                	addi	a5,a5,2
    1090:	01169613          	slli	a2,a3,0x11
    1094:	00064863          	bltz	a2,10a4 <RCC_GetClocksFreq+0x9e>
    1098:	46c5                	li	a3,17
    109a:	4601                	li	a2,0
    109c:	02d79263          	bne	a5,a3,10c0 <RCC_GetClocksFreq+0xba>
    10a0:	47c9                	li	a5,18
    10a2:	a839                	j	10c0 <RCC_GetClocksFreq+0xba>
    10a4:	4689                	li	a3,2
    10a6:	02d78f63          	beq	a5,a3,10e4 <RCC_GetClocksFreq+0xde>
    10aa:	46bd                	li	a3,15
    10ac:	02d78e63          	beq	a5,a3,10e8 <RCC_GetClocksFreq+0xe2>
    10b0:	46c1                	li	a3,16
    10b2:	02d78e63          	beq	a5,a3,10ee <RCC_GetClocksFreq+0xe8>
    10b6:	46c5                	li	a3,17
    10b8:	4601                	li	a2,0
    10ba:	00d79363          	bne	a5,a3,10c0 <RCC_GetClocksFreq+0xba>
    10be:	47c1                	li	a5,16
    10c0:	ef1d                	bnez	a4,10fe <RCC_GetClocksFreq+0xf8>
    10c2:	40024737          	lui	a4,0x40024
    10c6:	80072703          	lw	a4,-2048(a4) # 40023800 <_eusrstack+0x2001b800>
    10ca:	8b41                	andi	a4,a4,16
    10cc:	c705                	beqz	a4,10f4 <RCC_GetClocksFreq+0xee>
    10ce:	007a1737          	lui	a4,0x7a1
    10d2:	20070713          	addi	a4,a4,512 # 7a1200 <_data_lma+0x78b35c>
    10d6:	02f707b3          	mul	a5,a4,a5
    10da:	c11c                	sw	a5,0(a0)
    10dc:	d621                	beqz	a2,1024 <RCC_GetClocksFreq+0x1e>
    10de:	411c                	lw	a5,0(a0)
    10e0:	8385                	srli	a5,a5,0x1
    10e2:	b781                	j	1022 <RCC_GetClocksFreq+0x1c>
    10e4:	4601                	li	a2,0
    10e6:	bf6d                	j	10a0 <RCC_GetClocksFreq+0x9a>
    10e8:	4605                	li	a2,1
    10ea:	47b5                	li	a5,13
    10ec:	bfd1                	j	10c0 <RCC_GetClocksFreq+0xba>
    10ee:	4601                	li	a2,0
    10f0:	47bd                	li	a5,15
    10f2:	b7f9                	j	10c0 <RCC_GetClocksFreq+0xba>
    10f4:	003d1737          	lui	a4,0x3d1
    10f8:	90070713          	addi	a4,a4,-1792 # 3d0900 <_data_lma+0x3baa5c>
    10fc:	bfe9                	j	10d6 <RCC_GetClocksFreq+0xd0>
    10fe:	400215b7          	lui	a1,0x40021
    1102:	55d8                	lw	a4,44(a1)
    1104:	00f71693          	slli	a3,a4,0xf
    1108:	55d8                	lw	a4,44(a1)
    110a:	0406df63          	bgez	a3,1168 <RCC_GetClocksFreq+0x162>
    110e:	8311                	srli	a4,a4,0x4
    1110:	8b3d                	andi	a4,a4,15
    1112:	00170693          	addi	a3,a4,1
    1116:	007a1737          	lui	a4,0x7a1
    111a:	20070713          	addi	a4,a4,512 # 7a1200 <_data_lma+0x78b35c>
    111e:	02d75733          	divu	a4,a4,a3
    1122:	c118                	sw	a4,0(a0)
    1124:	55d4                	lw	a3,44(a1)
    1126:	82a1                	srli	a3,a3,0x8
    1128:	8abd                	andi	a3,a3,15
    112a:	e28d                	bnez	a3,114c <RCC_GetClocksFreq+0x146>
    112c:	4695                	li	a3,5
    112e:	02d70733          	mul	a4,a4,a3
    1132:	8305                	srli	a4,a4,0x1
    1134:	c118                	sw	a4,0(a0)
    1136:	40021737          	lui	a4,0x40021
    113a:	5758                	lw	a4,44(a4)
    113c:	4114                	lw	a3,0(a0)
    113e:	8b3d                	andi	a4,a4,15
    1140:	0705                	addi	a4,a4,1
    1142:	02e6d733          	divu	a4,a3,a4
    1146:	c118                	sw	a4,0(a0)
    1148:	4118                	lw	a4,0(a0)
    114a:	b771                	j	10d6 <RCC_GetClocksFreq+0xd0>
    114c:	4585                	li	a1,1
    114e:	00b69463          	bne	a3,a1,1156 <RCC_GetClocksFreq+0x150>
    1152:	46e5                	li	a3,25
    1154:	bfe9                	j	112e <RCC_GetClocksFreq+0x128>
    1156:	45bd                	li	a1,15
    1158:	00b69663          	bne	a3,a1,1164 <RCC_GetClocksFreq+0x15e>
    115c:	46d1                	li	a3,20
    115e:	02e68733          	mul	a4,a3,a4
    1162:	bfc9                	j	1134 <RCC_GetClocksFreq+0x12e>
    1164:	0689                	addi	a3,a3,2
    1166:	bfe5                	j	115e <RCC_GetClocksFreq+0x158>
    1168:	8b3d                	andi	a4,a4,15
    116a:	00170693          	addi	a3,a4,1 # 40021001 <_eusrstack+0x20019001>
    116e:	007a1737          	lui	a4,0x7a1
    1172:	20070713          	addi	a4,a4,512 # 7a1200 <_data_lma+0x78b35c>
    1176:	02d75733          	divu	a4,a4,a3
    117a:	b7f1                	j	1146 <RCC_GetClocksFreq+0x140>

0000117c <RCC_APB2PeriphClockCmd>:
    117c:	c599                	beqz	a1,118a <RCC_APB2PeriphClockCmd+0xe>
    117e:	40021737          	lui	a4,0x40021
    1182:	4f1c                	lw	a5,24(a4)
    1184:	8d5d                	or	a0,a0,a5
    1186:	cf08                	sw	a0,24(a4)
    1188:	8082                	ret
    118a:	400217b7          	lui	a5,0x40021
    118e:	4f98                	lw	a4,24(a5)
    1190:	fff54513          	not	a0,a0
    1194:	8d79                	and	a0,a0,a4
    1196:	cf88                	sw	a0,24(a5)
    1198:	8082                	ret

0000119a <RCC_APB1PeriphClockCmd>:
    119a:	c599                	beqz	a1,11a8 <RCC_APB1PeriphClockCmd+0xe>
    119c:	40021737          	lui	a4,0x40021
    11a0:	4f5c                	lw	a5,28(a4)
    11a2:	8d5d                	or	a0,a0,a5
    11a4:	cf48                	sw	a0,28(a4)
    11a6:	8082                	ret
    11a8:	400217b7          	lui	a5,0x40021
    11ac:	4fd8                	lw	a4,28(a5)
    11ae:	fff54513          	not	a0,a0
    11b2:	8d79                	and	a0,a0,a4
    11b4:	cfc8                	sw	a0,28(a5)
    11b6:	8082                	ret

000011b8 <SPI_Init>:
    11b8:	211a                	lhu	a4,0(a0)
    11ba:	678d                	lui	a5,0x3
    11bc:	04078793          	addi	a5,a5,64 # 3040 <_scanf_i+0x16>
    11c0:	21b6                	lhu	a3,2(a1)
    11c2:	8f7d                	and	a4,a4,a5
    11c4:	219e                	lhu	a5,0(a1)
    11c6:	8fd5                	or	a5,a5,a3
    11c8:	21d6                	lhu	a3,4(a1)
    11ca:	8fd5                	or	a5,a5,a3
    11cc:	21f6                	lhu	a3,6(a1)
    11ce:	8fd5                	or	a5,a5,a3
    11d0:	2596                	lhu	a3,8(a1)
    11d2:	8fd5                	or	a5,a5,a3
    11d4:	25b6                	lhu	a3,10(a1)
    11d6:	8fd5                	or	a5,a5,a3
    11d8:	25d6                	lhu	a3,12(a1)
    11da:	8fd5                	or	a5,a5,a3
    11dc:	25f6                	lhu	a3,14(a1)
    11de:	8fd5                	or	a5,a5,a3
    11e0:	8fd9                	or	a5,a5,a4
    11e2:	a11e                	sh	a5,0(a0)
    11e4:	2d5a                	lhu	a4,28(a0)
    11e6:	77fd                	lui	a5,0xfffff
    11e8:	7ff78793          	addi	a5,a5,2047 # fffff7ff <_eusrstack+0xdfff77ff>
    11ec:	8ff9                	and	a5,a5,a4
    11ee:	ad5e                	sh	a5,28(a0)
    11f0:	299e                	lhu	a5,16(a1)
    11f2:	a91e                	sh	a5,16(a0)
    11f4:	8082                	ret

000011f6 <SPI_Cmd>:
    11f6:	211e                	lhu	a5,0(a0)
    11f8:	c589                	beqz	a1,1202 <SPI_Cmd+0xc>
    11fa:	0407e793          	ori	a5,a5,64
    11fe:	a11e                	sh	a5,0(a0)
    1200:	8082                	ret
    1202:	07c2                	slli	a5,a5,0x10
    1204:	83c1                	srli	a5,a5,0x10
    1206:	fbf7f793          	andi	a5,a5,-65
    120a:	07c2                	slli	a5,a5,0x10
    120c:	83c1                	srli	a5,a5,0x10
    120e:	bfc5                	j	11fe <SPI_Cmd+0x8>

00001210 <SPI_I2S_SendData>:
    1210:	a54e                	sh	a1,12(a0)
    1212:	8082                	ret

00001214 <SPI_I2S_ReceiveData>:
    1214:	254a                	lhu	a0,12(a0)
    1216:	8082                	ret

00001218 <SPI_I2S_GetFlagStatus>:
    1218:	250a                	lhu	a0,8(a0)
    121a:	8d6d                	and	a0,a0,a1
    121c:	00a03533          	snez	a0,a0
    1220:	8082                	ret

00001222 <TIM_TimeBaseInit>:
    1222:	211e                	lhu	a5,0(a0)
    1224:	40013737          	lui	a4,0x40013
    1228:	c0070693          	addi	a3,a4,-1024 # 40012c00 <_eusrstack+0x2000ac00>
    122c:	07c2                	slli	a5,a5,0x10
    122e:	83c1                	srli	a5,a5,0x10
    1230:	04d50063          	beq	a0,a3,1270 <TIM_TimeBaseInit+0x4e>
    1234:	400006b7          	lui	a3,0x40000
    1238:	02d50c63          	beq	a0,a3,1270 <TIM_TimeBaseInit+0x4e>
    123c:	40068693          	addi	a3,a3,1024 # 40000400 <_eusrstack+0x1fff8400>
    1240:	02d50863          	beq	a0,a3,1270 <TIM_TimeBaseInit+0x4e>
    1244:	400016b7          	lui	a3,0x40001
    1248:	80068613          	addi	a2,a3,-2048 # 40000800 <_eusrstack+0x1fff8800>
    124c:	02c50263          	beq	a0,a2,1270 <TIM_TimeBaseInit+0x4e>
    1250:	c0068693          	addi	a3,a3,-1024
    1254:	00d50e63          	beq	a0,a3,1270 <TIM_TimeBaseInit+0x4e>
    1258:	40070713          	addi	a4,a4,1024
    125c:	00e50a63          	beq	a0,a4,1270 <TIM_TimeBaseInit+0x4e>
    1260:	40015737          	lui	a4,0x40015
    1264:	c0070693          	addi	a3,a4,-1024 # 40014c00 <_eusrstack+0x2000cc00>
    1268:	00d50463          	beq	a0,a3,1270 <TIM_TimeBaseInit+0x4e>
    126c:	00e51663          	bne	a0,a4,1278 <TIM_TimeBaseInit+0x56>
    1270:	21ba                	lhu	a4,2(a1)
    1272:	f8f7f793          	andi	a5,a5,-113
    1276:	8fd9                	or	a5,a5,a4
    1278:	40001737          	lui	a4,0x40001
    127c:	00e50c63          	beq	a0,a4,1294 <TIM_TimeBaseInit+0x72>
    1280:	40070713          	addi	a4,a4,1024 # 40001400 <_eusrstack+0x1fff9400>
    1284:	00e50863          	beq	a0,a4,1294 <TIM_TimeBaseInit+0x72>
    1288:	cff7f793          	andi	a5,a5,-769
    128c:	21fa                	lhu	a4,6(a1)
    128e:	07c2                	slli	a5,a5,0x10
    1290:	83c1                	srli	a5,a5,0x10
    1292:	8fd9                	or	a5,a5,a4
    1294:	a11e                	sh	a5,0(a0)
    1296:	21de                	lhu	a5,4(a1)
    1298:	b55e                	sh	a5,44(a0)
    129a:	219e                	lhu	a5,0(a1)
    129c:	b51e                	sh	a5,40(a0)
    129e:	400137b7          	lui	a5,0x40013
    12a2:	c0078713          	addi	a4,a5,-1024 # 40012c00 <_eusrstack+0x2000ac00>
    12a6:	00e50e63          	beq	a0,a4,12c2 <TIM_TimeBaseInit+0xa0>
    12aa:	40078793          	addi	a5,a5,1024
    12ae:	00f50a63          	beq	a0,a5,12c2 <TIM_TimeBaseInit+0xa0>
    12b2:	400157b7          	lui	a5,0x40015
    12b6:	c0078713          	addi	a4,a5,-1024 # 40014c00 <_eusrstack+0x2000cc00>
    12ba:	00e50463          	beq	a0,a4,12c2 <TIM_TimeBaseInit+0xa0>
    12be:	00f51463          	bne	a0,a5,12c6 <TIM_TimeBaseInit+0xa4>
    12c2:	259c                	lbu	a5,8(a1)
    12c4:	b91e                	sh	a5,48(a0)
    12c6:	4785                	li	a5,1
    12c8:	a95e                	sh	a5,20(a0)
    12ca:	8082                	ret

000012cc <TIM_OC1Init>:
    12cc:	311e                	lhu	a5,32(a0)
    12ce:	2192                	lhu	a2,0(a1)
    12d0:	0025d803          	lhu	a6,2(a1) # 40021002 <_eusrstack+0x20019002>
    12d4:	07c2                	slli	a5,a5,0x10
    12d6:	83c1                	srli	a5,a5,0x10
    12d8:	9bf9                	andi	a5,a5,-2
    12da:	07c2                	slli	a5,a5,0x10
    12dc:	83c1                	srli	a5,a5,0x10
    12de:	b11e                	sh	a5,32(a0)
    12e0:	311e                	lhu	a5,32(a0)
    12e2:	2156                	lhu	a3,4(a0)
    12e4:	2d1a                	lhu	a4,24(a0)
    12e6:	07c2                	slli	a5,a5,0x10
    12e8:	83c1                	srli	a5,a5,0x10
    12ea:	0742                	slli	a4,a4,0x10
    12ec:	8341                	srli	a4,a4,0x10
    12ee:	f8c77713          	andi	a4,a4,-116
    12f2:	8f51                	or	a4,a4,a2
    12f4:	2592                	lhu	a2,8(a1)
    12f6:	9bf5                	andi	a5,a5,-3
    12f8:	06c2                	slli	a3,a3,0x10
    12fa:	01066633          	or	a2,a2,a6
    12fe:	8fd1                	or	a5,a5,a2
    1300:	40013637          	lui	a2,0x40013
    1304:	c0060813          	addi	a6,a2,-1024 # 40012c00 <_eusrstack+0x2000ac00>
    1308:	82c1                	srli	a3,a3,0x10
    130a:	01050e63          	beq	a0,a6,1326 <TIM_OC1Init+0x5a>
    130e:	40060613          	addi	a2,a2,1024
    1312:	00c50a63          	beq	a0,a2,1326 <TIM_OC1Init+0x5a>
    1316:	40015637          	lui	a2,0x40015
    131a:	c0060813          	addi	a6,a2,-1024 # 40014c00 <_eusrstack+0x2000cc00>
    131e:	01050463          	beq	a0,a6,1326 <TIM_OC1Init+0x5a>
    1322:	02c51063          	bne	a0,a2,1342 <TIM_OC1Init+0x76>
    1326:	25b2                	lhu	a2,10(a1)
    1328:	9bdd                	andi	a5,a5,-9
    132a:	00e5d803          	lhu	a6,14(a1)
    132e:	8fd1                	or	a5,a5,a2
    1330:	21d2                	lhu	a2,4(a1)
    1332:	9bed                	andi	a5,a5,-5
    1334:	cff6f693          	andi	a3,a3,-769
    1338:	8fd1                	or	a5,a5,a2
    133a:	25d2                	lhu	a2,12(a1)
    133c:	01066633          	or	a2,a2,a6
    1340:	8ed1                	or	a3,a3,a2
    1342:	a156                	sh	a3,4(a0)
    1344:	ad1a                	sh	a4,24(a0)
    1346:	21fa                	lhu	a4,6(a1)
    1348:	b95a                	sh	a4,52(a0)
    134a:	b11e                	sh	a5,32(a0)
    134c:	8082                	ret

0000134e <TIM_Cmd>:
    134e:	211e                	lhu	a5,0(a0)
    1350:	c589                	beqz	a1,135a <TIM_Cmd+0xc>
    1352:	0017e793          	ori	a5,a5,1
    1356:	a11e                	sh	a5,0(a0)
    1358:	8082                	ret
    135a:	07c2                	slli	a5,a5,0x10
    135c:	83c1                	srli	a5,a5,0x10
    135e:	9bf9                	andi	a5,a5,-2
    1360:	07c2                	slli	a5,a5,0x10
    1362:	83c1                	srli	a5,a5,0x10
    1364:	bfcd                	j	1356 <TIM_Cmd+0x8>

00001366 <TIM_ITConfig>:
    1366:	255e                	lhu	a5,12(a0)
    1368:	c601                	beqz	a2,1370 <TIM_ITConfig+0xa>
    136a:	8ddd                	or	a1,a1,a5
    136c:	a54e                	sh	a1,12(a0)
    136e:	8082                	ret
    1370:	fff5c593          	not	a1,a1
    1374:	8dfd                	and	a1,a1,a5
    1376:	bfdd                	j	136c <TIM_ITConfig+0x6>

00001378 <TIM_ARRPreloadConfig>:
    1378:	211e                	lhu	a5,0(a0)
    137a:	c589                	beqz	a1,1384 <TIM_ARRPreloadConfig+0xc>
    137c:	0807e793          	ori	a5,a5,128
    1380:	a11e                	sh	a5,0(a0)
    1382:	8082                	ret
    1384:	07c2                	slli	a5,a5,0x10
    1386:	83c1                	srli	a5,a5,0x10
    1388:	f7f7f793          	andi	a5,a5,-129
    138c:	07c2                	slli	a5,a5,0x10
    138e:	83c1                	srli	a5,a5,0x10
    1390:	bfc5                	j	1380 <TIM_ARRPreloadConfig+0x8>

00001392 <TIM_OC1PreloadConfig>:
    1392:	2d1e                	lhu	a5,24(a0)
    1394:	07c2                	slli	a5,a5,0x10
    1396:	83c1                	srli	a5,a5,0x10
    1398:	9bdd                	andi	a5,a5,-9
    139a:	8ddd                	or	a1,a1,a5
    139c:	ad0e                	sh	a1,24(a0)
    139e:	8082                	ret

000013a0 <TIM_SetCompare1>:
    13a0:	b94e                	sh	a1,52(a0)
    13a2:	8082                	ret

000013a4 <TIM_GetITStatus>:
    13a4:	291e                	lhu	a5,16(a0)
    13a6:	254a                	lhu	a0,12(a0)
    13a8:	8fed                	and	a5,a5,a1
    13aa:	0542                	slli	a0,a0,0x10
    13ac:	8141                	srli	a0,a0,0x10
    13ae:	c789                	beqz	a5,13b8 <TIM_GetITStatus+0x14>
    13b0:	8d6d                	and	a0,a0,a1
    13b2:	00a03533          	snez	a0,a0
    13b6:	8082                	ret
    13b8:	4501                	li	a0,0
    13ba:	8082                	ret

000013bc <TIM_ClearITPendingBit>:
    13bc:	fff5c593          	not	a1,a1
    13c0:	05c2                	slli	a1,a1,0x10
    13c2:	81c1                	srli	a1,a1,0x10
    13c4:	a90e                	sh	a1,16(a0)
    13c6:	8082                	ret

000013c8 <USART_Init>:
    13c8:	e29fe2ef          	jal	t0,1f0 <__riscv_save_0>
    13cc:	2916                	lhu	a3,16(a0)
    13ce:	77f5                	lui	a5,0xffffd
    13d0:	17fd                	addi	a5,a5,-1
    13d2:	8ff5                	and	a5,a5,a3
    13d4:	21f6                	lhu	a3,6(a1)
    13d6:	25da                	lhu	a4,12(a1)
    13d8:	7179                	addi	sp,sp,-48
    13da:	8fd5                	or	a5,a5,a3
    13dc:	a91e                	sh	a5,16(a0)
    13de:	2556                	lhu	a3,12(a0)
    13e0:	77fd                	lui	a5,0xfffff
    13e2:	9f378793          	addi	a5,a5,-1549 # ffffe9f3 <_eusrstack+0xdfff69f3>
    13e6:	8ff5                	and	a5,a5,a3
    13e8:	21d6                	lhu	a3,4(a1)
    13ea:	842a                	mv	s0,a0
    13ec:	c62e                	sw	a1,12(sp)
    13ee:	8fd5                	or	a5,a5,a3
    13f0:	2596                	lhu	a3,8(a1)
    13f2:	8fd5                	or	a5,a5,a3
    13f4:	25b6                	lhu	a3,10(a1)
    13f6:	8fd5                	or	a5,a5,a3
    13f8:	a55e                	sh	a5,12(a0)
    13fa:	295e                	lhu	a5,20(a0)
    13fc:	07c2                	slli	a5,a5,0x10
    13fe:	83c1                	srli	a5,a5,0x10
    1400:	cff7f793          	andi	a5,a5,-769
    1404:	8fd9                	or	a5,a5,a4
    1406:	a95e                	sh	a5,20(a0)
    1408:	0868                	addi	a0,sp,28
    140a:	3ef5                	jal	1006 <RCC_GetClocksFreq>
    140c:	400147b7          	lui	a5,0x40014
    1410:	80078793          	addi	a5,a5,-2048 # 40013800 <_eusrstack+0x2000b800>
    1414:	45b2                	lw	a1,12(sp)
    1416:	02f41e63          	bne	s0,a5,1452 <USART_Init+0x8a>
    141a:	57a2                	lw	a5,40(sp)
    141c:	4765                	li	a4,25
    141e:	02e787b3          	mul	a5,a5,a4
    1422:	4198                	lw	a4,0(a1)
    1424:	06400693          	li	a3,100
    1428:	070a                	slli	a4,a4,0x2
    142a:	02e7d7b3          	divu	a5,a5,a4
    142e:	02d7d733          	divu	a4,a5,a3
    1432:	02d7f7b3          	remu	a5,a5,a3
    1436:	0712                	slli	a4,a4,0x4
    1438:	0792                	slli	a5,a5,0x4
    143a:	03278793          	addi	a5,a5,50
    143e:	02d7d7b3          	divu	a5,a5,a3
    1442:	8bbd                	andi	a5,a5,15
    1444:	8fd9                	or	a5,a5,a4
    1446:	07c2                	slli	a5,a5,0x10
    1448:	83c1                	srli	a5,a5,0x10
    144a:	a41e                	sh	a5,8(s0)
    144c:	6145                	addi	sp,sp,48
    144e:	dc7fe06f          	j	214 <__riscv_restore_0>
    1452:	5792                	lw	a5,36(sp)
    1454:	b7e1                	j	141c <USART_Init+0x54>

00001456 <USART_Cmd>:
    1456:	c591                	beqz	a1,1462 <USART_Cmd+0xc>
    1458:	255e                	lhu	a5,12(a0)
    145a:	6709                	lui	a4,0x2
    145c:	8fd9                	or	a5,a5,a4
    145e:	a55e                	sh	a5,12(a0)
    1460:	8082                	ret
    1462:	255a                	lhu	a4,12(a0)
    1464:	77f9                	lui	a5,0xffffe
    1466:	17fd                	addi	a5,a5,-1
    1468:	8ff9                	and	a5,a5,a4
    146a:	bfd5                	j	145e <USART_Cmd+0x8>

0000146c <USART_ITConfig>:
    146c:	0ff5f713          	andi	a4,a1,255
    1470:	4785                	li	a5,1
    1472:	8315                	srli	a4,a4,0x5
    1474:	00b795b3          	sll	a1,a5,a1
    1478:	00f71963          	bne	a4,a5,148a <USART_ITConfig+0x1e>
    147c:	00c50793          	addi	a5,a0,12
    1480:	4398                	lw	a4,0(a5)
    1482:	ce01                	beqz	a2,149a <USART_ITConfig+0x2e>
    1484:	8dd9                	or	a1,a1,a4
    1486:	c38c                	sw	a1,0(a5)
    1488:	8082                	ret
    148a:	4689                	li	a3,2
    148c:	01450793          	addi	a5,a0,20
    1490:	fed718e3          	bne	a4,a3,1480 <USART_ITConfig+0x14>
    1494:	01050793          	addi	a5,a0,16
    1498:	b7e5                	j	1480 <USART_ITConfig+0x14>
    149a:	fff5c593          	not	a1,a1
    149e:	8df9                	and	a1,a1,a4
    14a0:	b7dd                	j	1486 <USART_ITConfig+0x1a>

000014a2 <USART_SendData>:
    14a2:	1ff5f593          	andi	a1,a1,511
    14a6:	a14e                	sh	a1,4(a0)
    14a8:	8082                	ret

000014aa <USART_ReceiveData>:
    14aa:	214a                	lhu	a0,4(a0)
    14ac:	1ff57513          	andi	a0,a0,511
    14b0:	8082                	ret

000014b2 <USART_GetFlagStatus>:
    14b2:	210a                	lhu	a0,0(a0)
    14b4:	8d6d                	and	a0,a0,a1
    14b6:	00a03533          	snez	a0,a0
    14ba:	8082                	ret

000014bc <USART_ClearFlag>:
    14bc:	fff5c593          	not	a1,a1
    14c0:	05c2                	slli	a1,a1,0x10
    14c2:	81c1                	srli	a1,a1,0x10
    14c4:	a10e                	sh	a1,0(a0)
    14c6:	8082                	ret

000014c8 <USART_GetITStatus>:
    14c8:	0ff5f713          	andi	a4,a1,255
    14cc:	4685                	li	a3,1
    14ce:	8315                	srli	a4,a4,0x5
    14d0:	00b697b3          	sll	a5,a3,a1
    14d4:	02d71163          	bne	a4,a3,14f6 <USART_GetITStatus+0x2e>
    14d8:	255a                	lhu	a4,12(a0)
    14da:	8ff9                	and	a5,a5,a4
    14dc:	211a                	lhu	a4,0(a0)
    14de:	4501                	li	a0,0
    14e0:	0742                	slli	a4,a4,0x10
    14e2:	8341                	srli	a4,a4,0x10
    14e4:	cb81                	beqz	a5,14f4 <USART_GetITStatus+0x2c>
    14e6:	4505                	li	a0,1
    14e8:	81a1                	srli	a1,a1,0x8
    14ea:	00b515b3          	sll	a1,a0,a1
    14ee:	8f6d                	and	a4,a4,a1
    14f0:	00e03533          	snez	a0,a4
    14f4:	8082                	ret
    14f6:	4689                	li	a3,2
    14f8:	00d71463          	bne	a4,a3,1500 <USART_GetITStatus+0x38>
    14fc:	291a                	lhu	a4,16(a0)
    14fe:	bff1                	j	14da <USART_GetITStatus+0x12>
    1500:	295a                	lhu	a4,20(a0)
    1502:	bfe1                	j	14da <USART_GetITStatus+0x12>

00001504 <USART_ClearITPendingBit>:
    1504:	81a1                	srli	a1,a1,0x8
    1506:	4785                	li	a5,1
    1508:	00b797b3          	sll	a5,a5,a1
    150c:	fff7c793          	not	a5,a5
    1510:	07c2                	slli	a5,a5,0x10
    1512:	83c1                	srli	a5,a5,0x10
    1514:	a11e                	sh	a5,0(a0)
    1516:	8082                	ret

00001518 <as608_init>:
    1518:	cd9fe2ef          	jal	t0,1f0 <__riscv_save_0>
    151c:	132010ef          	jal	ra,264e <Uart7_Init>
    1520:	cf5fe06f          	j	214 <__riscv_restore_0>

00001524 <PS_GetImage>:
    1524:	ccdfe2ef          	jal	t0,1f0 <__riscv_save_0>
    1528:	1141                	addi	sp,sp,-16
    152a:	6591                	lui	a1,0x4
    152c:	4631                	li	a2,12
    152e:	8a858593          	addi	a1,a1,-1880 # 38a8 <_malloc_usable_size_r+0x14>
    1532:	0048                	addi	a0,sp,4
    1534:	44e010ef          	jal	ra,2982 <memcpy>
    1538:	0048                	addi	a0,sp,4
    153a:	45b1                	li	a1,12
    153c:	1ce010ef          	jal	ra,270a <uart7_send_string>
    1540:	0141                	addi	sp,sp,16
    1542:	cd3fe06f          	j	214 <__riscv_restore_0>

00001546 <PS_GenChar>:
    1546:	cabfe2ef          	jal	t0,1f0 <__riscv_save_0>
    154a:	77c1                	lui	a5,0xffff0
    154c:	1141                	addi	sp,sp,-16
    154e:	1ef78793          	addi	a5,a5,495 # ffff01ef <_eusrstack+0xdffe81ef>
    1552:	c03e                	sw	a5,0(sp)
    1554:	000207b7          	lui	a5,0x20
    1558:	8548                	sb	a0,10(sp)
    155a:	17fd                	addi	a5,a5,-1
    155c:	051d                	addi	a0,a0,7
    155e:	c23e                	sw	a5,4(sp)
    1560:	8648                	sb	a0,12(sp)
    1562:	20400793          	li	a5,516
    1566:	850a                	mv	a0,sp
    1568:	45b5                	li	a1,13
    156a:	847c                	sh	a5,8(sp)
    156c:	000105a3          	sb	zero,11(sp)
    1570:	19a010ef          	jal	ra,270a <uart7_send_string>
    1574:	0141                	addi	sp,sp,16
    1576:	c9ffe06f          	j	214 <__riscv_restore_0>

0000157a <PS_RegModel>:
    157a:	c77fe2ef          	jal	t0,1f0 <__riscv_save_0>
    157e:	1141                	addi	sp,sp,-16
    1580:	6591                	lui	a1,0x4
    1582:	4631                	li	a2,12
    1584:	8b458593          	addi	a1,a1,-1868 # 38b4 <_malloc_usable_size_r+0x20>
    1588:	0048                	addi	a0,sp,4
    158a:	3f8010ef          	jal	ra,2982 <memcpy>
    158e:	0048                	addi	a0,sp,4
    1590:	45b1                	li	a1,12
    1592:	178010ef          	jal	ra,270a <uart7_send_string>
    1596:	0141                	addi	sp,sp,16
    1598:	c7dfe06f          	j	214 <__riscv_restore_0>

0000159c <PS_StoreChar>:
    159c:	c55fe2ef          	jal	t0,1f0 <__riscv_save_0>
    15a0:	77c1                	lui	a5,0xffff0
    15a2:	1141                	addi	sp,sp,-16
    15a4:	1ef78793          	addi	a5,a5,495 # ffff01ef <_eusrstack+0xdffe81ef>
    15a8:	c03e                	sw	a5,0(sp)
    15aa:	8648                	sb	a0,12(sp)
    15ac:	000207b7          	lui	a5,0x20
    15b0:	053d                	addi	a0,a0,15
    15b2:	fff78713          	addi	a4,a5,-1 # 1ffff <_data_lma+0xa15b>
    15b6:	8748                	sb	a0,14(sp)
    15b8:	60678793          	addi	a5,a5,1542
    15bc:	850a                	mv	a0,sp
    15be:	45bd                	li	a1,15
    15c0:	c23a                	sw	a4,4(sp)
    15c2:	c43e                	sw	a5,8(sp)
    15c4:	000106a3          	sb	zero,13(sp)
    15c8:	142010ef          	jal	ra,270a <uart7_send_string>
    15cc:	0141                	addi	sp,sp,16
    15ce:	c47fe06f          	j	214 <__riscv_restore_0>

000015d2 <PS_Search>:
    15d2:	c1ffe2ef          	jal	t0,1f0 <__riscv_save_0>
    15d6:	1101                	addi	sp,sp,-32
    15d8:	6591                	lui	a1,0x4
    15da:	4645                	li	a2,17
    15dc:	8c058593          	addi	a1,a1,-1856 # 38c0 <_malloc_usable_size_r+0x2c>
    15e0:	0068                	addi	a0,sp,12
    15e2:	3a0010ef          	jal	ra,2982 <memcpy>
    15e6:	0068                	addi	a0,sp,12
    15e8:	45c5                	li	a1,17
    15ea:	120010ef          	jal	ra,270a <uart7_send_string>
    15ee:	6105                	addi	sp,sp,32
    15f0:	c25fe06f          	j	214 <__riscv_restore_0>

000015f4 <PS_Empty>:
    15f4:	bfdfe2ef          	jal	t0,1f0 <__riscv_save_0>
    15f8:	1141                	addi	sp,sp,-16
    15fa:	6591                	lui	a1,0x4
    15fc:	4631                	li	a2,12
    15fe:	8d458593          	addi	a1,a1,-1836 # 38d4 <_malloc_usable_size_r+0x40>
    1602:	0048                	addi	a0,sp,4
    1604:	37e010ef          	jal	ra,2982 <memcpy>
    1608:	0048                	addi	a0,sp,4
    160a:	45b1                	li	a1,12
    160c:	0fe010ef          	jal	ra,270a <uart7_send_string>
    1610:	0141                	addi	sp,sp,16
    1612:	c03fe06f          	j	214 <__riscv_restore_0>

00001616 <audio_init>:
    1616:	bdbfe2ef          	jal	t0,1f0 <__riscv_save_0>
    161a:	12e010ef          	jal	ra,2748 <Usart3_Init>
    161e:	bf7fe06f          	j	214 <__riscv_restore_0>

00001622 <audio_play>:
    1622:	bcffe2ef          	jal	t0,1f0 <__riscv_save_0>
    1626:	004107b7          	lui	a5,0x410
    162a:	1141                	addi	sp,sp,-16
    162c:	57e78793          	addi	a5,a5,1406 # 41057e <_data_lma+0x3fa6da>
    1630:	c43e                	sw	a5,8(sp)
    1632:	8648                	sb	a0,12(sp)
    1634:	57bd                	li	a5,-17
    1636:	04454513          	xori	a0,a0,68
    163a:	400054b7          	lui	s1,0x40005
    163e:	86c8                	sb	a0,13(sp)
    1640:	875c                	sb	a5,14(sp)
    1642:	4401                	li	s0,0
    1644:	80048493          	addi	s1,s1,-2048 # 40004800 <_eusrstack+0x1fffc800>
    1648:	491d                	li	s2,7
    164a:	003c                	addi	a5,sp,8
    164c:	97a2                	add	a5,a5,s0
    164e:	238c                	lbu	a1,0(a5)
    1650:	8526                	mv	a0,s1
    1652:	3d81                	jal	14a2 <USART_SendData>
    1654:	04000593          	li	a1,64
    1658:	8526                	mv	a0,s1
    165a:	3da1                	jal	14b2 <USART_GetFlagStatus>
    165c:	dd65                	beqz	a0,1654 <audio_play+0x32>
    165e:	0405                	addi	s0,s0,1
    1660:	ff2415e3          	bne	s0,s2,164a <audio_play+0x28>
    1664:	0141                	addi	sp,sp,16
    1666:	baffe06f          	j	214 <__riscv_restore_0>

0000166a <audio_yinliang>:
    166a:	b87fe2ef          	jal	t0,1f0 <__riscv_save_0>
    166e:	1141                	addi	sp,sp,-16
    1670:	47e00793          	li	a5,1150
    1674:	847c                	sh	a5,8(sp)
    1676:	03100793          	li	a5,49
    167a:	855c                	sb	a5,10(sp)
    167c:	85c8                	sb	a0,11(sp)
    167e:	57bd                	li	a5,-17
    1680:	03554513          	xori	a0,a0,53
    1684:	400054b7          	lui	s1,0x40005
    1688:	8648                	sb	a0,12(sp)
    168a:	86dc                	sb	a5,13(sp)
    168c:	4401                	li	s0,0
    168e:	80048493          	addi	s1,s1,-2048 # 40004800 <_eusrstack+0x1fffc800>
    1692:	4919                	li	s2,6
    1694:	003c                	addi	a5,sp,8
    1696:	97a2                	add	a5,a5,s0
    1698:	238c                	lbu	a1,0(a5)
    169a:	8526                	mv	a0,s1
    169c:	3519                	jal	14a2 <USART_SendData>
    169e:	04000593          	li	a1,64
    16a2:	8526                	mv	a0,s1
    16a4:	3539                	jal	14b2 <USART_GetFlagStatus>
    16a6:	dd65                	beqz	a0,169e <audio_yinliang+0x34>
    16a8:	0405                	addi	s0,s0,1
    16aa:	ff2415e3          	bne	s0,s2,1694 <audio_yinliang+0x2a>
    16ae:	0141                	addi	sp,sp,16
    16b0:	b65fe06f          	j	214 <__riscv_restore_0>

000016b4 <esp8266_init>:
    16b4:	b3dfe2ef          	jal	t0,1f0 <__riscv_save_0>
    16b8:	6db000ef          	jal	ra,2592 <Uart6_Init>
    16bc:	b59fe06f          	j	214 <__riscv_restore_0>

000016c0 <onenet_init>:
    16c0:	b31fe2ef          	jal	t0,1f0 <__riscv_save_0>
    16c4:	20000537          	lui	a0,0x20000
    16c8:	45a1                	li	a1,8
    16ca:	05c50513          	addi	a0,a0,92 # 2000005c <string1>
    16ce:	74f000ef          	jal	ra,261c <uart6_send_string>
    16d2:	3e800513          	li	a0,1000
    16d6:	1f6010ef          	jal	ra,28cc <Delay_Ms>
    16da:	20000537          	lui	a0,0x20000
    16de:	45b5                	li	a1,13
    16e0:	06850513          	addi	a0,a0,104 # 20000068 <string2>
    16e4:	739000ef          	jal	ra,261c <uart6_send_string>
    16e8:	3e800513          	li	a0,1000
    16ec:	1e0010ef          	jal	ra,28cc <Delay_Ms>
    16f0:	20000537          	lui	a0,0x20000
    16f4:	45bd                	li	a1,15
    16f6:	07850513          	addi	a0,a0,120 # 20000078 <string3>
    16fa:	723000ef          	jal	ra,261c <uart6_send_string>
    16fe:	3e800513          	li	a0,1000
    1702:	1ca010ef          	jal	ra,28cc <Delay_Ms>
    1706:	20000537          	lui	a0,0x20000
    170a:	02400593          	li	a1,36
    170e:	08850513          	addi	a0,a0,136 # 20000088 <string4>
    1712:	70b000ef          	jal	ra,261c <uart6_send_string>
    1716:	3e800513          	li	a0,1000
    171a:	1b2010ef          	jal	ra,28cc <Delay_Ms>
    171e:	3e800513          	li	a0,1000
    1722:	1aa010ef          	jal	ra,28cc <Delay_Ms>
    1726:	20000537          	lui	a0,0x20000
    172a:	0aa00593          	li	a1,170
    172e:	0b050513          	addi	a0,a0,176 # 200000b0 <string5>
    1732:	6eb000ef          	jal	ra,261c <uart6_send_string>
    1736:	3e800513          	li	a0,1000
    173a:	192010ef          	jal	ra,28cc <Delay_Ms>
    173e:	3e800513          	li	a0,1000
    1742:	18a010ef          	jal	ra,28cc <Delay_Ms>
    1746:	20000537          	lui	a0,0x20000
    174a:	02b00593          	li	a1,43
    174e:	15c50513          	addi	a0,a0,348 # 2000015c <string6>
    1752:	6cb000ef          	jal	ra,261c <uart6_send_string>
    1756:	3e800513          	li	a0,1000
    175a:	172010ef          	jal	ra,28cc <Delay_Ms>
    175e:	3e800513          	li	a0,1000
    1762:	16a010ef          	jal	ra,28cc <Delay_Ms>
    1766:	20000537          	lui	a0,0x20000
    176a:	03a00593          	li	a1,58
    176e:	18850513          	addi	a0,a0,392 # 20000188 <string7>
    1772:	6ab000ef          	jal	ra,261c <uart6_send_string>
    1776:	3e800513          	li	a0,1000
    177a:	152010ef          	jal	ra,28cc <Delay_Ms>
    177e:	3e800513          	li	a0,1000
    1782:	14a010ef          	jal	ra,28cc <Delay_Ms>
    1786:	20000537          	lui	a0,0x20000
    178a:	07f00593          	li	a1,127
    178e:	1c450513          	addi	a0,a0,452 # 200001c4 <string8>
    1792:	68b000ef          	jal	ra,261c <uart6_send_string>
    1796:	3e800513          	li	a0,1000
    179a:	132010ef          	jal	ra,28cc <Delay_Ms>
    179e:	3e800513          	li	a0,1000
    17a2:	12a010ef          	jal	ra,28cc <Delay_Ms>
    17a6:	a6ffe06f          	j	214 <__riscv_restore_0>

000017aa <AT24C02_Init>:
    17aa:	a47fe2ef          	jal	t0,1f0 <__riscv_save_0>
    17ae:	1141                	addi	sp,sp,-16
    17b0:	4585                	li	a1,1
    17b2:	04000513          	li	a0,64
    17b6:	9c7ff0ef          	jal	ra,117c <RCC_APB2PeriphClockCmd>
    17ba:	47d1                	li	a5,20
    17bc:	c63e                	sw	a5,12(sp)
    17be:	40012537          	lui	a0,0x40012
    17c2:	06000793          	li	a5,96
    17c6:	827c                	sh	a5,4(sp)
    17c8:	004c                	addi	a1,sp,4
    17ca:	478d                	li	a5,3
    17cc:	80050513          	addi	a0,a0,-2048 # 40011800 <_eusrstack+0x20009800>
    17d0:	c43e                	sw	a5,8(sp)
    17d2:	f00ff0ef          	jal	ra,ed2 <GPIO_Init>
    17d6:	0141                	addi	sp,sp,16
    17d8:	a3dfe06f          	j	214 <__riscv_restore_0>

000017dc <I2C_Start>:
    17dc:	a15fe2ef          	jal	t0,1f0 <__riscv_save_0>
    17e0:	40012437          	lui	s0,0x40012
    17e4:	80040513          	addi	a0,s0,-2048 # 40011800 <_eusrstack+0x20009800>
    17e8:	02000593          	li	a1,32
    17ec:	fb0ff0ef          	jal	ra,f9c <GPIO_SetBits>
    17f0:	04000593          	li	a1,64
    17f4:	80040513          	addi	a0,s0,-2048
    17f8:	fa4ff0ef          	jal	ra,f9c <GPIO_SetBits>
    17fc:	451d                	li	a0,7
    17fe:	098010ef          	jal	ra,2896 <Delay_Us>
    1802:	02000593          	li	a1,32
    1806:	80040513          	addi	a0,s0,-2048
    180a:	f96ff0ef          	jal	ra,fa0 <GPIO_ResetBits>
    180e:	451d                	li	a0,7
    1810:	086010ef          	jal	ra,2896 <Delay_Us>
    1814:	04000593          	li	a1,64
    1818:	80040513          	addi	a0,s0,-2048
    181c:	f84ff0ef          	jal	ra,fa0 <GPIO_ResetBits>
    1820:	451d                	li	a0,7
    1822:	074010ef          	jal	ra,2896 <Delay_Us>
    1826:	9effe06f          	j	214 <__riscv_restore_0>

0000182a <I2C_Stop>:
    182a:	9c7fe2ef          	jal	t0,1f0 <__riscv_save_0>
    182e:	40012437          	lui	s0,0x40012
    1832:	80040513          	addi	a0,s0,-2048 # 40011800 <_eusrstack+0x20009800>
    1836:	02000593          	li	a1,32
    183a:	f66ff0ef          	jal	ra,fa0 <GPIO_ResetBits>
    183e:	04000593          	li	a1,64
    1842:	80040513          	addi	a0,s0,-2048
    1846:	f56ff0ef          	jal	ra,f9c <GPIO_SetBits>
    184a:	451d                	li	a0,7
    184c:	04a010ef          	jal	ra,2896 <Delay_Us>
    1850:	02000593          	li	a1,32
    1854:	80040513          	addi	a0,s0,-2048
    1858:	f44ff0ef          	jal	ra,f9c <GPIO_SetBits>
    185c:	451d                	li	a0,7
    185e:	038010ef          	jal	ra,2896 <Delay_Us>
    1862:	04000593          	li	a1,64
    1866:	80040513          	addi	a0,s0,-2048
    186a:	f36ff0ef          	jal	ra,fa0 <GPIO_ResetBits>
    186e:	451d                	li	a0,7
    1870:	026010ef          	jal	ra,2896 <Delay_Us>
    1874:	9a1fe06f          	j	214 <__riscv_restore_0>

00001878 <I2C_Send_Bit_0>:
    1878:	979fe2ef          	jal	t0,1f0 <__riscv_save_0>
    187c:	40012437          	lui	s0,0x40012
    1880:	80040513          	addi	a0,s0,-2048 # 40011800 <_eusrstack+0x20009800>
    1884:	02000593          	li	a1,32
    1888:	f18ff0ef          	jal	ra,fa0 <GPIO_ResetBits>
    188c:	04000593          	li	a1,64
    1890:	80040513          	addi	a0,s0,-2048
    1894:	f08ff0ef          	jal	ra,f9c <GPIO_SetBits>
    1898:	451d                	li	a0,7
    189a:	7fd000ef          	jal	ra,2896 <Delay_Us>
    189e:	04000593          	li	a1,64
    18a2:	80040513          	addi	a0,s0,-2048
    18a6:	efaff0ef          	jal	ra,fa0 <GPIO_ResetBits>
    18aa:	451d                	li	a0,7
    18ac:	7eb000ef          	jal	ra,2896 <Delay_Us>
    18b0:	965fe06f          	j	214 <__riscv_restore_0>

000018b4 <I2C_Send_Bit_1>:
    18b4:	93dfe2ef          	jal	t0,1f0 <__riscv_save_0>
    18b8:	40012437          	lui	s0,0x40012
    18bc:	80040513          	addi	a0,s0,-2048 # 40011800 <_eusrstack+0x20009800>
    18c0:	02000593          	li	a1,32
    18c4:	ed8ff0ef          	jal	ra,f9c <GPIO_SetBits>
    18c8:	04000593          	li	a1,64
    18cc:	80040513          	addi	a0,s0,-2048
    18d0:	eccff0ef          	jal	ra,f9c <GPIO_SetBits>
    18d4:	451d                	li	a0,7
    18d6:	7c1000ef          	jal	ra,2896 <Delay_Us>
    18da:	04000593          	li	a1,64
    18de:	80040513          	addi	a0,s0,-2048
    18e2:	ebeff0ef          	jal	ra,fa0 <GPIO_ResetBits>
    18e6:	451d                	li	a0,7
    18e8:	7af000ef          	jal	ra,2896 <Delay_Us>
    18ec:	929fe06f          	j	214 <__riscv_restore_0>

000018f0 <I2C_Check_Ack>:
    18f0:	901fe2ef          	jal	t0,1f0 <__riscv_save_0>
    18f4:	40012437          	lui	s0,0x40012
    18f8:	80040513          	addi	a0,s0,-2048 # 40011800 <_eusrstack+0x20009800>
    18fc:	02000593          	li	a1,32
    1900:	e9cff0ef          	jal	ra,f9c <GPIO_SetBits>
    1904:	04000593          	li	a1,64
    1908:	80040513          	addi	a0,s0,-2048
    190c:	e90ff0ef          	jal	ra,f9c <GPIO_SetBits>
    1910:	451d                	li	a0,7
    1912:	785000ef          	jal	ra,2896 <Delay_Us>
    1916:	02000593          	li	a1,32
    191a:	80040513          	addi	a0,s0,-2048
    191e:	e74ff0ef          	jal	ra,f92 <GPIO_ReadInputDataBit>
    1922:	84aa                	mv	s1,a0
    1924:	451d                	li	a0,7
    1926:	771000ef          	jal	ra,2896 <Delay_Us>
    192a:	04000593          	li	a1,64
    192e:	80040513          	addi	a0,s0,-2048
    1932:	e6eff0ef          	jal	ra,fa0 <GPIO_ResetBits>
    1936:	451d                	li	a0,7
    1938:	75f000ef          	jal	ra,2896 <Delay_Us>
    193c:	fff48513          	addi	a0,s1,-1
    1940:	00a03533          	snez	a0,a0
    1944:	8d1fe06f          	j	214 <__riscv_restore_0>

00001948 <I2C_Write8Bit>:
    1948:	8a9fe2ef          	jal	t0,1f0 <__riscv_save_0>
    194c:	892a                	mv	s2,a0
    194e:	4401                	li	s0,0
    1950:	44a1                	li	s1,8
    1952:	008917b3          	sll	a5,s2,s0
    1956:	0807f793          	andi	a5,a5,128
    195a:	c799                	beqz	a5,1968 <I2C_Write8Bit+0x20>
    195c:	3fa1                	jal	18b4 <I2C_Send_Bit_1>
    195e:	0405                	addi	s0,s0,1
    1960:	fe9419e3          	bne	s0,s1,1952 <I2C_Write8Bit+0xa>
    1964:	8b1fe06f          	j	214 <__riscv_restore_0>
    1968:	3f01                	jal	1878 <I2C_Send_Bit_0>
    196a:	bfd5                	j	195e <I2C_Write8Bit+0x16>

0000196c <EEPROM_Write>:
    196c:	885fe2ef          	jal	t0,1f0 <__riscv_save_0>
    1970:	1141                	addi	sp,sp,-16
    1972:	84b2                	mv	s1,a2
    1974:	c62e                	sw	a1,12(sp)
    1976:	842a                	mv	s0,a0
    1978:	3595                	jal	17dc <I2C_Start>
    197a:	0a600513          	li	a0,166
    197e:	37e9                	jal	1948 <I2C_Write8Bit>
    1980:	3f85                	jal	18f0 <I2C_Check_Ack>
    1982:	45b2                	lw	a1,12(sp)
    1984:	94a2                	add	s1,s1,s0
    1986:	852e                	mv	a0,a1
    1988:	37c1                	jal	1948 <I2C_Write8Bit>
    198a:	379d                	jal	18f0 <I2C_Check_Ack>
    198c:	00941663          	bne	s0,s1,1998 <EEPROM_Write+0x2c>
    1990:	3d69                	jal	182a <I2C_Stop>
    1992:	0141                	addi	sp,sp,16
    1994:	881fe06f          	j	214 <__riscv_restore_0>
    1998:	0405                	addi	s0,s0,1
    199a:	fff44503          	lbu	a0,-1(s0)
    199e:	376d                	jal	1948 <I2C_Write8Bit>
    19a0:	3f81                	jal	18f0 <I2C_Check_Ack>
    19a2:	0c800513          	li	a0,200
    19a6:	6f1000ef          	jal	ra,2896 <Delay_Us>
    19aa:	b7cd                	j	198c <EEPROM_Write+0x20>

000019ac <key_init>:
    19ac:	845fe2ef          	jal	t0,1f0 <__riscv_save_0>
    19b0:	1141                	addi	sp,sp,-16
    19b2:	4585                	li	a1,1
    19b4:	02000513          	li	a0,32
    19b8:	fc4ff0ef          	jal	ra,117c <RCC_APB2PeriphClockCmd>
    19bc:	6485                	lui	s1,0x1
    19be:	40011537          	lui	a0,0x40011
    19c2:	440d                	li	s0,3
    19c4:	a0048793          	addi	a5,s1,-1536 # a00 <USART2_IRQHandler+0xec>
    19c8:	4941                	li	s2,16
    19ca:	004c                	addi	a1,sp,4
    19cc:	40050513          	addi	a0,a0,1024 # 40011400 <_eusrstack+0x20009400>
    19d0:	827c                	sh	a5,4(sp)
    19d2:	c64a                	sw	s2,12(sp)
    19d4:	c422                	sw	s0,8(sp)
    19d6:	cfcff0ef          	jal	ra,ed2 <GPIO_Init>
    19da:	4585                	li	a1,1
    19dc:	04000513          	li	a0,64
    19e0:	f9cff0ef          	jal	ra,117c <RCC_APB2PeriphClockCmd>
    19e4:	c64a                	sw	s2,12(sp)
    19e6:	40012937          	lui	s2,0x40012
    19ea:	77e9                	lui	a5,0xffffa
    19ec:	004c                	addi	a1,sp,4
    19ee:	80090513          	addi	a0,s2,-2048 # 40011800 <_eusrstack+0x20009800>
    19f2:	827c                	sh	a5,4(sp)
    19f4:	c422                	sw	s0,8(sp)
    19f6:	cdcff0ef          	jal	ra,ed2 <GPIO_Init>
    19fa:	4585                	li	a1,1
    19fc:	04000513          	li	a0,64
    1a00:	f7cff0ef          	jal	ra,117c <RCC_APB2PeriphClockCmd>
    1a04:	a8048493          	addi	s1,s1,-1408
    1a08:	8264                	sh	s1,4(sp)
    1a0a:	004c                	addi	a1,sp,4
    1a0c:	04800493          	li	s1,72
    1a10:	80090513          	addi	a0,s2,-2048
    1a14:	c626                	sw	s1,12(sp)
    1a16:	c422                	sw	s0,8(sp)
    1a18:	cbaff0ef          	jal	ra,ed2 <GPIO_Init>
    1a1c:	4585                	li	a1,1
    1a1e:	4541                	li	a0,16
    1a20:	f5cff0ef          	jal	ra,117c <RCC_APB2PeriphClockCmd>
    1a24:	02000793          	li	a5,32
    1a28:	004c                	addi	a1,sp,4
    1a2a:	40011537          	lui	a0,0x40011
    1a2e:	827c                	sh	a5,4(sp)
    1a30:	c626                	sw	s1,12(sp)
    1a32:	c422                	sw	s0,8(sp)
    1a34:	c9eff0ef          	jal	ra,ed2 <GPIO_Init>
    1a38:	0141                	addi	sp,sp,16
    1a3a:	fdafe06f          	j	214 <__riscv_restore_0>

00001a3e <key_read>:
    1a3e:	fb2fe2ef          	jal	t0,1f0 <__riscv_save_0>
    1a42:	40011437          	lui	s0,0x40011
    1a46:	6485                	lui	s1,0x1
    1a48:	40040513          	addi	a0,s0,1024 # 40011400 <_eusrstack+0x20009400>
    1a4c:	80048593          	addi	a1,s1,-2048 # 800 <__stack_size>
    1a50:	d50ff0ef          	jal	ra,fa0 <GPIO_ResetBits>
    1a54:	40040513          	addi	a0,s0,1024
    1a58:	20000593          	li	a1,512
    1a5c:	40012437          	lui	s0,0x40012
    1a60:	d3cff0ef          	jal	ra,f9c <GPIO_SetBits>
    1a64:	80040513          	addi	a0,s0,-2048 # 40011800 <_eusrstack+0x20009800>
    1a68:	65a1                	lui	a1,0x8
    1a6a:	d32ff0ef          	jal	ra,f9c <GPIO_SetBits>
    1a6e:	80040513          	addi	a0,s0,-2048
    1a72:	6589                	lui	a1,0x2
    1a74:	d28ff0ef          	jal	ra,f9c <GPIO_SetBits>
    1a78:	80040513          	addi	a0,s0,-2048
    1a7c:	80048593          	addi	a1,s1,-2048
    1a80:	d12ff0ef          	jal	ra,f92 <GPIO_ReadInputDataBit>
    1a84:	4435                	li	s0,13
    1a86:	c111                	beqz	a0,1a8a <key_read+0x4c>
    1a88:	4401                	li	s0,0
    1a8a:	40012537          	lui	a0,0x40012
    1a8e:	20000593          	li	a1,512
    1a92:	80050513          	addi	a0,a0,-2048 # 40011800 <_eusrstack+0x20009800>
    1a96:	cfcff0ef          	jal	ra,f92 <GPIO_ReadInputDataBit>
    1a9a:	e111                	bnez	a0,1a9e <key_read+0x60>
    1a9c:	4425                	li	s0,9
    1a9e:	40012537          	lui	a0,0x40012
    1aa2:	08000593          	li	a1,128
    1aa6:	80050513          	addi	a0,a0,-2048 # 40011800 <_eusrstack+0x20009800>
    1aaa:	ce8ff0ef          	jal	ra,f92 <GPIO_ReadInputDataBit>
    1aae:	e111                	bnez	a0,1ab2 <key_read+0x74>
    1ab0:	4415                	li	s0,5
    1ab2:	02000593          	li	a1,32
    1ab6:	40011537          	lui	a0,0x40011
    1aba:	cd8ff0ef          	jal	ra,f92 <GPIO_ReadInputDataBit>
    1abe:	e111                	bnez	a0,1ac2 <key_read+0x84>
    1ac0:	4405                	li	s0,1
    1ac2:	400114b7          	lui	s1,0x40011
    1ac6:	6905                	lui	s2,0x1
    1ac8:	40048513          	addi	a0,s1,1024 # 40011400 <_eusrstack+0x20009400>
    1acc:	80090593          	addi	a1,s2,-2048 # 800 <__stack_size>
    1ad0:	cccff0ef          	jal	ra,f9c <GPIO_SetBits>
    1ad4:	40048513          	addi	a0,s1,1024
    1ad8:	20000593          	li	a1,512
    1adc:	cc4ff0ef          	jal	ra,fa0 <GPIO_ResetBits>
    1ae0:	400124b7          	lui	s1,0x40012
    1ae4:	65a1                	lui	a1,0x8
    1ae6:	80048513          	addi	a0,s1,-2048 # 40011800 <_eusrstack+0x20009800>
    1aea:	cb2ff0ef          	jal	ra,f9c <GPIO_SetBits>
    1aee:	6589                	lui	a1,0x2
    1af0:	80048513          	addi	a0,s1,-2048
    1af4:	ca8ff0ef          	jal	ra,f9c <GPIO_SetBits>
    1af8:	80090593          	addi	a1,s2,-2048
    1afc:	80048513          	addi	a0,s1,-2048
    1b00:	c92ff0ef          	jal	ra,f92 <GPIO_ReadInputDataBit>
    1b04:	e111                	bnez	a0,1b08 <key_read+0xca>
    1b06:	4439                	li	s0,14
    1b08:	40012537          	lui	a0,0x40012
    1b0c:	20000593          	li	a1,512
    1b10:	80050513          	addi	a0,a0,-2048 # 40011800 <_eusrstack+0x20009800>
    1b14:	c7eff0ef          	jal	ra,f92 <GPIO_ReadInputDataBit>
    1b18:	e111                	bnez	a0,1b1c <key_read+0xde>
    1b1a:	4429                	li	s0,10
    1b1c:	40012537          	lui	a0,0x40012
    1b20:	08000593          	li	a1,128
    1b24:	80050513          	addi	a0,a0,-2048 # 40011800 <_eusrstack+0x20009800>
    1b28:	c6aff0ef          	jal	ra,f92 <GPIO_ReadInputDataBit>
    1b2c:	e111                	bnez	a0,1b30 <key_read+0xf2>
    1b2e:	4419                	li	s0,6
    1b30:	02000593          	li	a1,32
    1b34:	40011537          	lui	a0,0x40011
    1b38:	c5aff0ef          	jal	ra,f92 <GPIO_ReadInputDataBit>
    1b3c:	e111                	bnez	a0,1b40 <key_read+0x102>
    1b3e:	4409                	li	s0,2
    1b40:	400114b7          	lui	s1,0x40011
    1b44:	6905                	lui	s2,0x1
    1b46:	40048513          	addi	a0,s1,1024 # 40011400 <_eusrstack+0x20009400>
    1b4a:	80090593          	addi	a1,s2,-2048 # 800 <__stack_size>
    1b4e:	c4eff0ef          	jal	ra,f9c <GPIO_SetBits>
    1b52:	40048513          	addi	a0,s1,1024
    1b56:	20000593          	li	a1,512
    1b5a:	c42ff0ef          	jal	ra,f9c <GPIO_SetBits>
    1b5e:	400124b7          	lui	s1,0x40012
    1b62:	65a1                	lui	a1,0x8
    1b64:	80048513          	addi	a0,s1,-2048 # 40011800 <_eusrstack+0x20009800>
    1b68:	c38ff0ef          	jal	ra,fa0 <GPIO_ResetBits>
    1b6c:	6589                	lui	a1,0x2
    1b6e:	80048513          	addi	a0,s1,-2048
    1b72:	c2aff0ef          	jal	ra,f9c <GPIO_SetBits>
    1b76:	80090593          	addi	a1,s2,-2048
    1b7a:	80048513          	addi	a0,s1,-2048
    1b7e:	c14ff0ef          	jal	ra,f92 <GPIO_ReadInputDataBit>
    1b82:	e111                	bnez	a0,1b86 <key_read+0x148>
    1b84:	443d                	li	s0,15
    1b86:	40012537          	lui	a0,0x40012
    1b8a:	20000593          	li	a1,512
    1b8e:	80050513          	addi	a0,a0,-2048 # 40011800 <_eusrstack+0x20009800>
    1b92:	c00ff0ef          	jal	ra,f92 <GPIO_ReadInputDataBit>
    1b96:	e111                	bnez	a0,1b9a <key_read+0x15c>
    1b98:	442d                	li	s0,11
    1b9a:	40012537          	lui	a0,0x40012
    1b9e:	08000593          	li	a1,128
    1ba2:	80050513          	addi	a0,a0,-2048 # 40011800 <_eusrstack+0x20009800>
    1ba6:	becff0ef          	jal	ra,f92 <GPIO_ReadInputDataBit>
    1baa:	e111                	bnez	a0,1bae <key_read+0x170>
    1bac:	441d                	li	s0,7
    1bae:	02000593          	li	a1,32
    1bb2:	40011537          	lui	a0,0x40011
    1bb6:	bdcff0ef          	jal	ra,f92 <GPIO_ReadInputDataBit>
    1bba:	e111                	bnez	a0,1bbe <key_read+0x180>
    1bbc:	440d                	li	s0,3
    1bbe:	400114b7          	lui	s1,0x40011
    1bc2:	6905                	lui	s2,0x1
    1bc4:	40048513          	addi	a0,s1,1024 # 40011400 <_eusrstack+0x20009400>
    1bc8:	80090593          	addi	a1,s2,-2048 # 800 <__stack_size>
    1bcc:	bd0ff0ef          	jal	ra,f9c <GPIO_SetBits>
    1bd0:	40048513          	addi	a0,s1,1024
    1bd4:	20000593          	li	a1,512
    1bd8:	bc4ff0ef          	jal	ra,f9c <GPIO_SetBits>
    1bdc:	400124b7          	lui	s1,0x40012
    1be0:	65a1                	lui	a1,0x8
    1be2:	80048513          	addi	a0,s1,-2048 # 40011800 <_eusrstack+0x20009800>
    1be6:	bb6ff0ef          	jal	ra,f9c <GPIO_SetBits>
    1bea:	6589                	lui	a1,0x2
    1bec:	80048513          	addi	a0,s1,-2048
    1bf0:	bb0ff0ef          	jal	ra,fa0 <GPIO_ResetBits>
    1bf4:	80090593          	addi	a1,s2,-2048
    1bf8:	80048513          	addi	a0,s1,-2048
    1bfc:	b96ff0ef          	jal	ra,f92 <GPIO_ReadInputDataBit>
    1c00:	e111                	bnez	a0,1c04 <key_read+0x1c6>
    1c02:	4441                	li	s0,16
    1c04:	40012537          	lui	a0,0x40012
    1c08:	20000593          	li	a1,512
    1c0c:	80050513          	addi	a0,a0,-2048 # 40011800 <_eusrstack+0x20009800>
    1c10:	b82ff0ef          	jal	ra,f92 <GPIO_ReadInputDataBit>
    1c14:	e111                	bnez	a0,1c18 <key_read+0x1da>
    1c16:	4431                	li	s0,12
    1c18:	40012537          	lui	a0,0x40012
    1c1c:	08000593          	li	a1,128
    1c20:	80050513          	addi	a0,a0,-2048 # 40011800 <_eusrstack+0x20009800>
    1c24:	b6eff0ef          	jal	ra,f92 <GPIO_ReadInputDataBit>
    1c28:	e111                	bnez	a0,1c2c <key_read+0x1ee>
    1c2a:	4421                	li	s0,8
    1c2c:	02000593          	li	a1,32
    1c30:	40011537          	lui	a0,0x40011
    1c34:	b5eff0ef          	jal	ra,f92 <GPIO_ReadInputDataBit>
    1c38:	e111                	bnez	a0,1c3c <key_read+0x1fe>
    1c3a:	4411                	li	s0,4
    1c3c:	8522                	mv	a0,s0
    1c3e:	dd6fe06f          	j	214 <__riscv_restore_0>

00001c42 <SPI_LCD_Init>:
    1c42:	d94fe2ef          	jal	t0,1d6 <__riscv_save_4>
    1c46:	1101                	addi	sp,sp,-32
    1c48:	4585                	li	a1,1
    1c4a:	02c00513          	li	a0,44
    1c4e:	d2eff0ef          	jal	ra,117c <RCC_APB2PeriphClockCmd>
    1c52:	4585                	li	a1,1
    1c54:	6521                	lui	a0,0x8
    1c56:	40011437          	lui	s0,0x40011
    1c5a:	d40ff0ef          	jal	ra,119a <RCC_APB1PeriphClockCmd>
    1c5e:	03800793          	li	a5,56
    1c62:	4941                	li	s2,16
    1c64:	448d                	li	s1,3
    1c66:	858a                	mv	a1,sp
    1c68:	40040513          	addi	a0,s0,1024 # 40011400 <_eusrstack+0x20009400>
    1c6c:	807c                	sh	a5,0(sp)
    1c6e:	c44a                	sw	s2,8(sp)
    1c70:	c226                	sw	s1,4(sp)
    1c72:	a60ff0ef          	jal	ra,ed2 <GPIO_Init>
    1c76:	40040513          	addi	a0,s0,1024
    1c7a:	45a1                	li	a1,8
    1c7c:	b20ff0ef          	jal	ra,f9c <GPIO_SetBits>
    1c80:	40040513          	addi	a0,s0,1024
    1c84:	45c1                	li	a1,16
    1c86:	b16ff0ef          	jal	ra,f9c <GPIO_SetBits>
    1c8a:	40040513          	addi	a0,s0,1024
    1c8e:	02000593          	li	a1,32
    1c92:	b0aff0ef          	jal	ra,f9c <GPIO_SetBits>
    1c96:	77e1                	lui	a5,0xffff8
    1c98:	858a                	mv	a1,sp
    1c9a:	80040513          	addi	a0,s0,-2048
    1c9e:	807c                	sh	a5,0(sp)
    1ca0:	c44a                	sw	s2,8(sp)
    1ca2:	c226                	sw	s1,4(sp)
    1ca4:	a2eff0ef          	jal	ra,ed2 <GPIO_Init>
    1ca8:	80040513          	addi	a0,s0,-2048
    1cac:	65a1                	lui	a1,0x8
    1cae:	aeeff0ef          	jal	ra,f9c <GPIO_SetBits>
    1cb2:	47a1                	li	a5,8
    1cb4:	49e1                	li	s3,24
    1cb6:	858a                	mv	a1,sp
    1cb8:	c0040513          	addi	a0,s0,-1024
    1cbc:	807c                	sh	a5,0(sp)
    1cbe:	c44e                	sw	s3,8(sp)
    1cc0:	c226                	sw	s1,4(sp)
    1cc2:	a10ff0ef          	jal	ra,ed2 <GPIO_Init>
    1cc6:	858a                	mv	a1,sp
    1cc8:	c0040513          	addi	a0,s0,-1024
    1ccc:	01211023          	sh	s2,0(sp)
    1cd0:	c44a                	sw	s2,8(sp)
    1cd2:	a00ff0ef          	jal	ra,ed2 <GPIO_Init>
    1cd6:	02000793          	li	a5,32
    1cda:	858a                	mv	a1,sp
    1cdc:	c0040513          	addi	a0,s0,-1024
    1ce0:	807c                	sh	a5,0(sp)
    1ce2:	c44e                	sw	s3,8(sp)
    1ce4:	c226                	sw	s1,4(sp)
    1ce6:	9ecff0ef          	jal	ra,ed2 <GPIO_Init>
    1cea:	010407b7          	lui	a5,0x1040
    1cee:	c63e                	sw	a5,12(sp)
    1cf0:	020007b7          	lui	a5,0x2000
    1cf4:	40004437          	lui	s0,0x40004
    1cf8:	ca3e                	sw	a5,20(sp)
    1cfa:	47a1                	li	a5,8
    1cfc:	cc3e                	sw	a5,24(sp)
    1cfe:	006c                	addi	a1,sp,12
    1d00:	479d                	li	a5,7
    1d02:	c0040513          	addi	a0,s0,-1024 # 40003c00 <_eusrstack+0x1fffbc00>
    1d06:	86fc                	sh	a5,28(sp)
    1d08:	c802                	sw	zero,16(sp)
    1d0a:	caeff0ef          	jal	ra,11b8 <SPI_Init>
    1d0e:	4585                	li	a1,1
    1d10:	c0040513          	addi	a0,s0,-1024
    1d14:	ce2ff0ef          	jal	ra,11f6 <SPI_Cmd>
    1d18:	6105                	addi	sp,sp,32
    1d1a:	cf0fe06f          	j	20a <__riscv_restore_4>

00001d1e <SPI3_IRQHandler>:
    1d1e:	30200073          	mret

00001d22 <spi_readwrite>:
    1d22:	cb4fe2ef          	jal	t0,1d6 <__riscv_save_4>
    1d26:	400044b7          	lui	s1,0x40004
    1d2a:	892a                	mv	s2,a0
    1d2c:	0c900413          	li	s0,201
    1d30:	c0048993          	addi	s3,s1,-1024 # 40003c00 <_eusrstack+0x1fffbc00>
    1d34:	4589                	li	a1,2
    1d36:	854e                	mv	a0,s3
    1d38:	ce0ff0ef          	jal	ra,1218 <SPI_I2S_GetFlagStatus>
    1d3c:	c905                	beqz	a0,1d6c <spi_readwrite+0x4a>
    1d3e:	85ca                	mv	a1,s2
    1d40:	c0048513          	addi	a0,s1,-1024
    1d44:	400044b7          	lui	s1,0x40004
    1d48:	cc8ff0ef          	jal	ra,1210 <SPI_I2S_SendData>
    1d4c:	0c900413          	li	s0,201
    1d50:	c0048913          	addi	s2,s1,-1024 # 40003c00 <_eusrstack+0x1fffbc00>
    1d54:	4585                	li	a1,1
    1d56:	854a                	mv	a0,s2
    1d58:	cc0ff0ef          	jal	ra,1218 <SPI_I2S_GetFlagStatus>
    1d5c:	cd19                	beqz	a0,1d7a <spi_readwrite+0x58>
    1d5e:	c0048513          	addi	a0,s1,-1024
    1d62:	cb2ff0ef          	jal	ra,1214 <SPI_I2S_ReceiveData>
    1d66:	0ff57513          	andi	a0,a0,255
    1d6a:	a031                	j	1d76 <spi_readwrite+0x54>
    1d6c:	147d                	addi	s0,s0,-1
    1d6e:	0ff47413          	andi	s0,s0,255
    1d72:	f069                	bnez	s0,1d34 <spi_readwrite+0x12>
    1d74:	4501                	li	a0,0
    1d76:	c94fe06f          	j	20a <__riscv_restore_4>
    1d7a:	147d                	addi	s0,s0,-1
    1d7c:	0ff47413          	andi	s0,s0,255
    1d80:	f871                	bnez	s0,1d54 <spi_readwrite+0x32>
    1d82:	bfcd                	j	1d74 <spi_readwrite+0x52>

00001d84 <LCD_WR_DATA8>:
    1d84:	c6cfe2ef          	jal	t0,1f0 <__riscv_save_0>
    1d88:	40011437          	lui	s0,0x40011
    1d8c:	84aa                	mv	s1,a0
    1d8e:	45c1                	li	a1,16
    1d90:	40040513          	addi	a0,s0,1024 # 40011400 <_eusrstack+0x20009400>
    1d94:	a0cff0ef          	jal	ra,fa0 <GPIO_ResetBits>
    1d98:	45a1                	li	a1,8
    1d9a:	40040513          	addi	a0,s0,1024
    1d9e:	9feff0ef          	jal	ra,f9c <GPIO_SetBits>
    1da2:	8526                	mv	a0,s1
    1da4:	3fbd                	jal	1d22 <spi_readwrite>
    1da6:	45c1                	li	a1,16
    1da8:	40040513          	addi	a0,s0,1024
    1dac:	9f0ff0ef          	jal	ra,f9c <GPIO_SetBits>
    1db0:	c64fe06f          	j	214 <__riscv_restore_0>

00001db4 <LCD_WR_DATA>:
    1db4:	c3cfe2ef          	jal	t0,1f0 <__riscv_save_0>
    1db8:	40011437          	lui	s0,0x40011
    1dbc:	84aa                	mv	s1,a0
    1dbe:	45c1                	li	a1,16
    1dc0:	40040513          	addi	a0,s0,1024 # 40011400 <_eusrstack+0x20009400>
    1dc4:	9dcff0ef          	jal	ra,fa0 <GPIO_ResetBits>
    1dc8:	45a1                	li	a1,8
    1dca:	40040513          	addi	a0,s0,1024
    1dce:	9ceff0ef          	jal	ra,f9c <GPIO_SetBits>
    1dd2:	0084d513          	srli	a0,s1,0x8
    1dd6:	37b1                	jal	1d22 <spi_readwrite>
    1dd8:	0ff4f513          	andi	a0,s1,255
    1ddc:	3799                	jal	1d22 <spi_readwrite>
    1dde:	45c1                	li	a1,16
    1de0:	40040513          	addi	a0,s0,1024
    1de4:	9b8ff0ef          	jal	ra,f9c <GPIO_SetBits>
    1de8:	c2cfe06f          	j	214 <__riscv_restore_0>

00001dec <LCD_WR_REG>:
    1dec:	c04fe2ef          	jal	t0,1f0 <__riscv_save_0>
    1df0:	40011437          	lui	s0,0x40011
    1df4:	84aa                	mv	s1,a0
    1df6:	45c1                	li	a1,16
    1df8:	40040513          	addi	a0,s0,1024 # 40011400 <_eusrstack+0x20009400>
    1dfc:	9a4ff0ef          	jal	ra,fa0 <GPIO_ResetBits>
    1e00:	45a1                	li	a1,8
    1e02:	40040513          	addi	a0,s0,1024
    1e06:	99aff0ef          	jal	ra,fa0 <GPIO_ResetBits>
    1e0a:	8526                	mv	a0,s1
    1e0c:	f17ff0ef          	jal	ra,1d22 <spi_readwrite>
    1e10:	45c1                	li	a1,16
    1e12:	40040513          	addi	a0,s0,1024
    1e16:	986ff0ef          	jal	ra,f9c <GPIO_SetBits>
    1e1a:	bfafe06f          	j	214 <__riscv_restore_0>

00001e1e <LCD_Address_Set>:
    1e1e:	bd2fe2ef          	jal	t0,1f0 <__riscv_save_0>
    1e22:	1141                	addi	sp,sp,-16
    1e24:	842a                	mv	s0,a0
    1e26:	02a00513          	li	a0,42
    1e2a:	c236                	sw	a3,4(sp)
    1e2c:	c62e                	sw	a1,12(sp)
    1e2e:	c432                	sw	a2,8(sp)
    1e30:	3f75                	jal	1dec <LCD_WR_REG>
    1e32:	00240513          	addi	a0,s0,2
    1e36:	0542                	slli	a0,a0,0x10
    1e38:	8141                	srli	a0,a0,0x10
    1e3a:	3fad                	jal	1db4 <LCD_WR_DATA>
    1e3c:	4622                	lw	a2,8(sp)
    1e3e:	0609                	addi	a2,a2,2
    1e40:	01061513          	slli	a0,a2,0x10
    1e44:	8141                	srli	a0,a0,0x10
    1e46:	37bd                	jal	1db4 <LCD_WR_DATA>
    1e48:	02b00513          	li	a0,43
    1e4c:	3745                	jal	1dec <LCD_WR_REG>
    1e4e:	45b2                	lw	a1,12(sp)
    1e50:	058d                	addi	a1,a1,3
    1e52:	01059513          	slli	a0,a1,0x10
    1e56:	8141                	srli	a0,a0,0x10
    1e58:	3fb1                	jal	1db4 <LCD_WR_DATA>
    1e5a:	4692                	lw	a3,4(sp)
    1e5c:	068d                	addi	a3,a3,3
    1e5e:	01069513          	slli	a0,a3,0x10
    1e62:	8141                	srli	a0,a0,0x10
    1e64:	3f81                	jal	1db4 <LCD_WR_DATA>
    1e66:	02c00513          	li	a0,44
    1e6a:	3749                	jal	1dec <LCD_WR_REG>
    1e6c:	0141                	addi	sp,sp,16
    1e6e:	ba6fe06f          	j	214 <__riscv_restore_0>

00001e72 <LCD_Init>:
    1e72:	b7efe2ef          	jal	t0,1f0 <__riscv_save_0>
    1e76:	dcdff0ef          	jal	ra,1c42 <SPI_LCD_Init>
    1e7a:	40011437          	lui	s0,0x40011
    1e7e:	45c1                	li	a1,16
    1e80:	c0040513          	addi	a0,s0,-1024 # 40010c00 <_eusrstack+0x20008c00>
    1e84:	91cff0ef          	jal	ra,fa0 <GPIO_ResetBits>
    1e88:	06400513          	li	a0,100
    1e8c:	241000ef          	jal	ra,28cc <Delay_Ms>
    1e90:	45c1                	li	a1,16
    1e92:	c0040513          	addi	a0,s0,-1024
    1e96:	906ff0ef          	jal	ra,f9c <GPIO_SetBits>
    1e9a:	06400513          	li	a0,100
    1e9e:	22f000ef          	jal	ra,28cc <Delay_Ms>
    1ea2:	02000593          	li	a1,32
    1ea6:	40040513          	addi	a0,s0,1024
    1eaa:	8f2ff0ef          	jal	ra,f9c <GPIO_SetBits>
    1eae:	06400513          	li	a0,100
    1eb2:	21b000ef          	jal	ra,28cc <Delay_Ms>
    1eb6:	4545                	li	a0,17
    1eb8:	f35ff0ef          	jal	ra,1dec <LCD_WR_REG>
    1ebc:	07800513          	li	a0,120
    1ec0:	20d000ef          	jal	ra,28cc <Delay_Ms>
    1ec4:	0b100513          	li	a0,177
    1ec8:	f25ff0ef          	jal	ra,1dec <LCD_WR_REG>
    1ecc:	4515                	li	a0,5
    1ece:	eb7ff0ef          	jal	ra,1d84 <LCD_WR_DATA8>
    1ed2:	03c00513          	li	a0,60
    1ed6:	eafff0ef          	jal	ra,1d84 <LCD_WR_DATA8>
    1eda:	03c00513          	li	a0,60
    1ede:	ea7ff0ef          	jal	ra,1d84 <LCD_WR_DATA8>
    1ee2:	0b200513          	li	a0,178
    1ee6:	f07ff0ef          	jal	ra,1dec <LCD_WR_REG>
    1eea:	4515                	li	a0,5
    1eec:	e99ff0ef          	jal	ra,1d84 <LCD_WR_DATA8>
    1ef0:	03c00513          	li	a0,60
    1ef4:	e91ff0ef          	jal	ra,1d84 <LCD_WR_DATA8>
    1ef8:	03c00513          	li	a0,60
    1efc:	e89ff0ef          	jal	ra,1d84 <LCD_WR_DATA8>
    1f00:	0b300513          	li	a0,179
    1f04:	ee9ff0ef          	jal	ra,1dec <LCD_WR_REG>
    1f08:	4515                	li	a0,5
    1f0a:	e7bff0ef          	jal	ra,1d84 <LCD_WR_DATA8>
    1f0e:	03c00513          	li	a0,60
    1f12:	e73ff0ef          	jal	ra,1d84 <LCD_WR_DATA8>
    1f16:	03c00513          	li	a0,60
    1f1a:	e6bff0ef          	jal	ra,1d84 <LCD_WR_DATA8>
    1f1e:	4515                	li	a0,5
    1f20:	e65ff0ef          	jal	ra,1d84 <LCD_WR_DATA8>
    1f24:	03c00513          	li	a0,60
    1f28:	e5dff0ef          	jal	ra,1d84 <LCD_WR_DATA8>
    1f2c:	03c00513          	li	a0,60
    1f30:	e55ff0ef          	jal	ra,1d84 <LCD_WR_DATA8>
    1f34:	0b400513          	li	a0,180
    1f38:	eb5ff0ef          	jal	ra,1dec <LCD_WR_REG>
    1f3c:	450d                	li	a0,3
    1f3e:	e47ff0ef          	jal	ra,1d84 <LCD_WR_DATA8>
    1f42:	03a00513          	li	a0,58
    1f46:	ea7ff0ef          	jal	ra,1dec <LCD_WR_REG>
    1f4a:	4515                	li	a0,5
    1f4c:	e39ff0ef          	jal	ra,1d84 <LCD_WR_DATA8>
    1f50:	0c000513          	li	a0,192
    1f54:	e99ff0ef          	jal	ra,1dec <LCD_WR_REG>
    1f58:	0a200513          	li	a0,162
    1f5c:	e29ff0ef          	jal	ra,1d84 <LCD_WR_DATA8>
    1f60:	4509                	li	a0,2
    1f62:	e23ff0ef          	jal	ra,1d84 <LCD_WR_DATA8>
    1f66:	08400513          	li	a0,132
    1f6a:	e1bff0ef          	jal	ra,1d84 <LCD_WR_DATA8>
    1f6e:	0c100513          	li	a0,193
    1f72:	e7bff0ef          	jal	ra,1dec <LCD_WR_REG>
    1f76:	0c500513          	li	a0,197
    1f7a:	e0bff0ef          	jal	ra,1d84 <LCD_WR_DATA8>
    1f7e:	0c200513          	li	a0,194
    1f82:	e6bff0ef          	jal	ra,1dec <LCD_WR_REG>
    1f86:	4535                	li	a0,13
    1f88:	dfdff0ef          	jal	ra,1d84 <LCD_WR_DATA8>
    1f8c:	4501                	li	a0,0
    1f8e:	df7ff0ef          	jal	ra,1d84 <LCD_WR_DATA8>
    1f92:	0c300513          	li	a0,195
    1f96:	e57ff0ef          	jal	ra,1dec <LCD_WR_REG>
    1f9a:	08d00513          	li	a0,141
    1f9e:	de7ff0ef          	jal	ra,1d84 <LCD_WR_DATA8>
    1fa2:	02a00513          	li	a0,42
    1fa6:	ddfff0ef          	jal	ra,1d84 <LCD_WR_DATA8>
    1faa:	0c400513          	li	a0,196
    1fae:	e3fff0ef          	jal	ra,1dec <LCD_WR_REG>
    1fb2:	08d00513          	li	a0,141
    1fb6:	dcfff0ef          	jal	ra,1d84 <LCD_WR_DATA8>
    1fba:	0ee00513          	li	a0,238
    1fbe:	dc7ff0ef          	jal	ra,1d84 <LCD_WR_DATA8>
    1fc2:	0c500513          	li	a0,197
    1fc6:	e27ff0ef          	jal	ra,1dec <LCD_WR_REG>
    1fca:	4529                	li	a0,10
    1fcc:	db9ff0ef          	jal	ra,1d84 <LCD_WR_DATA8>
    1fd0:	03600513          	li	a0,54
    1fd4:	e19ff0ef          	jal	ra,1dec <LCD_WR_REG>
    1fd8:	0c800513          	li	a0,200
    1fdc:	da9ff0ef          	jal	ra,1d84 <LCD_WR_DATA8>
    1fe0:	0e000513          	li	a0,224
    1fe4:	e09ff0ef          	jal	ra,1dec <LCD_WR_REG>
    1fe8:	4549                	li	a0,18
    1fea:	d9bff0ef          	jal	ra,1d84 <LCD_WR_DATA8>
    1fee:	4571                	li	a0,28
    1ff0:	d95ff0ef          	jal	ra,1d84 <LCD_WR_DATA8>
    1ff4:	4541                	li	a0,16
    1ff6:	d8fff0ef          	jal	ra,1d84 <LCD_WR_DATA8>
    1ffa:	4561                	li	a0,24
    1ffc:	d89ff0ef          	jal	ra,1d84 <LCD_WR_DATA8>
    2000:	03300513          	li	a0,51
    2004:	d81ff0ef          	jal	ra,1d84 <LCD_WR_DATA8>
    2008:	02c00513          	li	a0,44
    200c:	d79ff0ef          	jal	ra,1d84 <LCD_WR_DATA8>
    2010:	02500513          	li	a0,37
    2014:	d71ff0ef          	jal	ra,1d84 <LCD_WR_DATA8>
    2018:	02800513          	li	a0,40
    201c:	d69ff0ef          	jal	ra,1d84 <LCD_WR_DATA8>
    2020:	02800513          	li	a0,40
    2024:	d61ff0ef          	jal	ra,1d84 <LCD_WR_DATA8>
    2028:	02700513          	li	a0,39
    202c:	d59ff0ef          	jal	ra,1d84 <LCD_WR_DATA8>
    2030:	02f00513          	li	a0,47
    2034:	d51ff0ef          	jal	ra,1d84 <LCD_WR_DATA8>
    2038:	03c00513          	li	a0,60
    203c:	d49ff0ef          	jal	ra,1d84 <LCD_WR_DATA8>
    2040:	4501                	li	a0,0
    2042:	d43ff0ef          	jal	ra,1d84 <LCD_WR_DATA8>
    2046:	450d                	li	a0,3
    2048:	d3dff0ef          	jal	ra,1d84 <LCD_WR_DATA8>
    204c:	450d                	li	a0,3
    204e:	d37ff0ef          	jal	ra,1d84 <LCD_WR_DATA8>
    2052:	4541                	li	a0,16
    2054:	d31ff0ef          	jal	ra,1d84 <LCD_WR_DATA8>
    2058:	0e100513          	li	a0,225
    205c:	d91ff0ef          	jal	ra,1dec <LCD_WR_REG>
    2060:	4549                	li	a0,18
    2062:	d23ff0ef          	jal	ra,1d84 <LCD_WR_DATA8>
    2066:	4571                	li	a0,28
    2068:	d1dff0ef          	jal	ra,1d84 <LCD_WR_DATA8>
    206c:	4541                	li	a0,16
    206e:	d17ff0ef          	jal	ra,1d84 <LCD_WR_DATA8>
    2072:	4561                	li	a0,24
    2074:	d11ff0ef          	jal	ra,1d84 <LCD_WR_DATA8>
    2078:	02d00513          	li	a0,45
    207c:	d09ff0ef          	jal	ra,1d84 <LCD_WR_DATA8>
    2080:	02800513          	li	a0,40
    2084:	d01ff0ef          	jal	ra,1d84 <LCD_WR_DATA8>
    2088:	02300513          	li	a0,35
    208c:	cf9ff0ef          	jal	ra,1d84 <LCD_WR_DATA8>
    2090:	02800513          	li	a0,40
    2094:	cf1ff0ef          	jal	ra,1d84 <LCD_WR_DATA8>
    2098:	02800513          	li	a0,40
    209c:	ce9ff0ef          	jal	ra,1d84 <LCD_WR_DATA8>
    20a0:	02600513          	li	a0,38
    20a4:	ce1ff0ef          	jal	ra,1d84 <LCD_WR_DATA8>
    20a8:	02f00513          	li	a0,47
    20ac:	cd9ff0ef          	jal	ra,1d84 <LCD_WR_DATA8>
    20b0:	03b00513          	li	a0,59
    20b4:	cd1ff0ef          	jal	ra,1d84 <LCD_WR_DATA8>
    20b8:	4501                	li	a0,0
    20ba:	ccbff0ef          	jal	ra,1d84 <LCD_WR_DATA8>
    20be:	450d                	li	a0,3
    20c0:	cc5ff0ef          	jal	ra,1d84 <LCD_WR_DATA8>
    20c4:	450d                	li	a0,3
    20c6:	cbfff0ef          	jal	ra,1d84 <LCD_WR_DATA8>
    20ca:	4541                	li	a0,16
    20cc:	cb9ff0ef          	jal	ra,1d84 <LCD_WR_DATA8>
    20d0:	02000513          	li	a0,32
    20d4:	d19ff0ef          	jal	ra,1dec <LCD_WR_REG>
    20d8:	454d                	li	a0,19
    20da:	d13ff0ef          	jal	ra,1dec <LCD_WR_REG>
    20de:	02a00513          	li	a0,42
    20e2:	d0bff0ef          	jal	ra,1dec <LCD_WR_REG>
    20e6:	4501                	li	a0,0
    20e8:	c9dff0ef          	jal	ra,1d84 <LCD_WR_DATA8>
    20ec:	4501                	li	a0,0
    20ee:	c97ff0ef          	jal	ra,1d84 <LCD_WR_DATA8>
    20f2:	4501                	li	a0,0
    20f4:	c91ff0ef          	jal	ra,1d84 <LCD_WR_DATA8>
    20f8:	07f00513          	li	a0,127
    20fc:	c89ff0ef          	jal	ra,1d84 <LCD_WR_DATA8>
    2100:	02b00513          	li	a0,43
    2104:	ce9ff0ef          	jal	ra,1dec <LCD_WR_REG>
    2108:	4501                	li	a0,0
    210a:	c7bff0ef          	jal	ra,1d84 <LCD_WR_DATA8>
    210e:	4501                	li	a0,0
    2110:	c75ff0ef          	jal	ra,1d84 <LCD_WR_DATA8>
    2114:	4501                	li	a0,0
    2116:	c6fff0ef          	jal	ra,1d84 <LCD_WR_DATA8>
    211a:	07f00513          	li	a0,127
    211e:	c67ff0ef          	jal	ra,1d84 <LCD_WR_DATA8>
    2122:	02900513          	li	a0,41
    2126:	cc7ff0ef          	jal	ra,1dec <LCD_WR_REG>
    212a:	8eafe06f          	j	214 <__riscv_restore_0>

0000212e <LCD_Fill>:
    212e:	8a8fe2ef          	jal	t0,1d6 <__riscv_save_4>
    2132:	89b2                	mv	s3,a2
    2134:	8936                	mv	s2,a3
    2136:	167d                	addi	a2,a2,-1
    2138:	16fd                	addi	a3,a3,-1
    213a:	06c2                	slli	a3,a3,0x10
    213c:	0642                	slli	a2,a2,0x10
    213e:	82c1                	srli	a3,a3,0x10
    2140:	8241                	srli	a2,a2,0x10
    2142:	8a2a                	mv	s4,a0
    2144:	842e                	mv	s0,a1
    2146:	8aba                	mv	s5,a4
    2148:	cd7ff0ef          	jal	ra,1e1e <LCD_Address_Set>
    214c:	03246063          	bltu	s0,s2,216c <LCD_Fill+0x3e>
    2150:	8bafe06f          	j	20a <__riscv_restore_4>
    2154:	0485                	addi	s1,s1,1
    2156:	8556                	mv	a0,s5
    2158:	04c2                	slli	s1,s1,0x10
    215a:	c5bff0ef          	jal	ra,1db4 <LCD_WR_DATA>
    215e:	80c1                	srli	s1,s1,0x10
    2160:	ff34eae3          	bltu	s1,s3,2154 <LCD_Fill+0x26>
    2164:	0405                	addi	s0,s0,1
    2166:	0442                	slli	s0,s0,0x10
    2168:	8041                	srli	s0,s0,0x10
    216a:	b7cd                	j	214c <LCD_Fill+0x1e>
    216c:	84d2                	mv	s1,s4
    216e:	bfcd                	j	2160 <LCD_Fill+0x32>

00002170 <LCD_DrawPoint>:
    2170:	880fe2ef          	jal	t0,1f0 <__riscv_save_0>
    2174:	8432                	mv	s0,a2
    2176:	86ae                	mv	a3,a1
    2178:	862a                	mv	a2,a0
    217a:	ca5ff0ef          	jal	ra,1e1e <LCD_Address_Set>
    217e:	8522                	mv	a0,s0
    2180:	c35ff0ef          	jal	ra,1db4 <LCD_WR_DATA>
    2184:	890fe06f          	j	214 <__riscv_restore_0>

00002188 <LCD_ShowChinese16x16>:
    2188:	838fe2ef          	jal	t0,1c0 <__riscv_save_12>
    218c:	01079493          	slli	s1,a5,0x10
    2190:	80c1                	srli	s1,s1,0x10
    2192:	8bbe                	mv	s7,a5
    2194:	838d                	srli	a5,a5,0x3
    2196:	02f487b3          	mul	a5,s1,a5
    219a:	1101                	addi	sp,sp,-32
    219c:	c83a                	sw	a4,16(sp)
    219e:	14fd                	addi	s1,s1,-1
    21a0:	6759                	lui	a4,0x16
    21a2:	04c2                	slli	s1,s1,0x10
    21a4:	8b2a                	mv	s6,a0
    21a6:	842e                	mv	s0,a1
    21a8:	8cb2                	mv	s9,a2
    21aa:	8d36                	mv	s10,a3
    21ac:	c63e                	sw	a5,12(sp)
    21ae:	91070793          	addi	a5,a4,-1776 # 15910 <tfont16>
    21b2:	ca42                	sw	a6,20(sp)
    21b4:	91070a13          	addi	s4,a4,-1776
    21b8:	8daa                	mv	s11,a0
    21ba:	4981                	li	s3,0
    21bc:	ce3e                	sw	a5,28(sp)
    21be:	80c1                	srli	s1,s1,0x10
    21c0:	000a4683          	lbu	a3,0(s4)
    21c4:	000cc703          	lbu	a4,0(s9)
    21c8:	02e69e63          	bne	a3,a4,2204 <LCD_ShowChinese16x16+0x7c>
    21cc:	001a4683          	lbu	a3,1(s4)
    21d0:	001cc703          	lbu	a4,1(s9)
    21d4:	02e69863          	bne	a3,a4,2204 <LCD_ShowChinese16x16+0x7c>
    21d8:	008486b3          	add	a3,s1,s0
    21dc:	01b48633          	add	a2,s1,s11
    21e0:	06c2                	slli	a3,a3,0x10
    21e2:	0642                	slli	a2,a2,0x10
    21e4:	82c1                	srli	a3,a3,0x10
    21e6:	8241                	srli	a2,a2,0x10
    21e8:	85a2                	mv	a1,s0
    21ea:	856e                	mv	a0,s11
    21ec:	c33ff0ef          	jal	ra,1e1e <LCD_Address_Set>
    21f0:	02200793          	li	a5,34
    21f4:	02f98c33          	mul	s8,s3,a5
    21f8:	47f2                	lw	a5,28(sp)
    21fa:	4901                	li	s2,0
    21fc:	9c3e                	add	s8,s8,a5
    21fe:	47b2                	lw	a5,12(sp)
    2200:	00f96b63          	bltu	s2,a5,2216 <LCD_ShowChinese16x16+0x8e>
    2204:	0985                	addi	s3,s3,1
    2206:	4779                	li	a4,30
    2208:	022a0a13          	addi	s4,s4,34
    220c:	fae99ae3          	bne	s3,a4,21c0 <LCD_ShowChinese16x16+0x38>
    2210:	6105                	addi	sp,sp,32
    2212:	febfd06f          	j	1fc <__riscv_restore_12>
    2216:	012c0733          	add	a4,s8,s2
    221a:	233c                	lbu	a5,2(a4)
    221c:	4a81                	li	s5,0
    221e:	cc3e                	sw	a5,24(sp)
    2220:	47e2                	lw	a5,24(sp)
    2222:	4157d733          	sra	a4,a5,s5
    2226:	47d2                	lw	a5,20(sp)
    2228:	8b05                	andi	a4,a4,1
    222a:	eb99                	bnez	a5,2240 <LCD_ShowChinese16x16+0xb8>
    222c:	856a                	mv	a0,s10
    222e:	e311                	bnez	a4,2232 <LCD_ShowChinese16x16+0xaa>
    2230:	4542                	lw	a0,16(sp)
    2232:	b83ff0ef          	jal	ra,1db4 <LCD_WR_DATA>
    2236:	0a85                	addi	s5,s5,1
    2238:	47a1                	li	a5,8
    223a:	fefa93e3          	bne	s5,a5,2220 <LCD_ShowChinese16x16+0x98>
    223e:	a02d                	j	2268 <LCD_ShowChinese16x16+0xe0>
    2240:	c711                	beqz	a4,224c <LCD_ShowChinese16x16+0xc4>
    2242:	866a                	mv	a2,s10
    2244:	85a2                	mv	a1,s0
    2246:	856e                	mv	a0,s11
    2248:	f29ff0ef          	jal	ra,2170 <LCD_DrawPoint>
    224c:	001d8793          	addi	a5,s11,1
    2250:	01079d93          	slli	s11,a5,0x10
    2254:	010ddd93          	srli	s11,s11,0x10
    2258:	416d8733          	sub	a4,s11,s6
    225c:	fd771de3          	bne	a4,s7,2236 <LCD_ShowChinese16x16+0xae>
    2260:	0405                	addi	s0,s0,1
    2262:	0442                	slli	s0,s0,0x10
    2264:	8041                	srli	s0,s0,0x10
    2266:	8dda                	mv	s11,s6
    2268:	0905                	addi	s2,s2,1
    226a:	0ff97913          	andi	s2,s2,255
    226e:	bf41                	j	21fe <LCD_ShowChinese16x16+0x76>

00002270 <lcd_show_chinese>:
    2270:	f59fd2ef          	jal	t0,1c8 <__riscv_save_10>
    2274:	842a                	mv	s0,a0
    2276:	84ae                	mv	s1,a1
    2278:	8932                	mv	s2,a2
    227a:	89b6                	mv	s3,a3
    227c:	8a3a                	mv	s4,a4
    227e:	8abe                	mv	s5,a5
    2280:	8b42                	mv	s6,a6
    2282:	07f00b93          	li	s7,127
    2286:	00094783          	lbu	a5,0(s2)
    228a:	e399                	bnez	a5,2290 <lcd_show_chinese+0x20>
    228c:	f75fd06f          	j	200 <__riscv_restore_10>
    2290:	8522                	mv	a0,s0
    2292:	0441                	addi	s0,s0,16
    2294:	0442                	slli	s0,s0,0x10
    2296:	885a                	mv	a6,s6
    2298:	87d6                	mv	a5,s5
    229a:	8752                	mv	a4,s4
    229c:	86ce                	mv	a3,s3
    229e:	864a                	mv	a2,s2
    22a0:	85a6                	mv	a1,s1
    22a2:	8041                	srli	s0,s0,0x10
    22a4:	ee5ff0ef          	jal	ra,2188 <LCD_ShowChinese16x16>
    22a8:	008bf663          	bgeu	s7,s0,22b4 <lcd_show_chinese+0x44>
    22ac:	04c1                	addi	s1,s1,16
    22ae:	04c2                	slli	s1,s1,0x10
    22b0:	80c1                	srli	s1,s1,0x10
    22b2:	4401                	li	s0,0
    22b4:	0909                	addi	s2,s2,2
    22b6:	bfc1                	j	2286 <lcd_show_chinese+0x16>

000022b8 <LCD_ShowChar>:
    22b8:	f09fd2ef          	jal	t0,1c0 <__riscv_save_12>
    22bc:	1101                	addi	sp,sp,-32
    22be:	8b36                	mv	s6,a3
    22c0:	01079693          	slli	a3,a5,0x10
    22c4:	cc3a                	sw	a4,24(sp)
    22c6:	82c1                	srli	a3,a3,0x10
    22c8:	0047d713          	srli	a4,a5,0x4
    22cc:	0017da93          	srli	s5,a5,0x1
    22d0:	8d3e                	mv	s10,a5
    22d2:	02e687b3          	mul	a5,a3,a4
    22d6:	8932                	mv	s2,a2
    22d8:	fff58713          	addi	a4,a1,-1 # 7fff <gImage_1+0x44e3>
    22dc:	fff50613          	addi	a2,a0,-1 # 7fff <gImage_1+0x44e3>
    22e0:	96ba                	add	a3,a3,a4
    22e2:	9656                	add	a2,a2,s5
    22e4:	06c2                	slli	a3,a3,0x10
    22e6:	0642                	slli	a2,a2,0x10
    22e8:	8241                	srli	a2,a2,0x10
    22ea:	82c1                	srli	a3,a3,0x10
    22ec:	84aa                	mv	s1,a0
    22ee:	ca3e                	sw	a5,20(sp)
    22f0:	842e                	mv	s0,a1
    22f2:	ce42                	sw	a6,28(sp)
    22f4:	b2bff0ef          	jal	ra,1e1e <LCD_Address_Set>
    22f8:	fe090613          	addi	a2,s2,-32
    22fc:	0ff67613          	andi	a2,a2,255
    2300:	00661793          	slli	a5,a2,0x6
    2304:	c63e                	sw	a5,12(sp)
    2306:	69d1                	lui	s3,0x14
    2308:	00461793          	slli	a5,a2,0x4
    230c:	6a51                	lui	s4,0x14
    230e:	c83e                	sw	a5,16(sp)
    2310:	8ca6                	mv	s9,s1
    2312:	4c01                	li	s8,0
    2314:	15098993          	addi	s3,s3,336 # 14150 <ascii_3216>
    2318:	b60a0a13          	addi	s4,s4,-1184 # 13b60 <ascii_1608>
    231c:	4da1                	li	s11,8
    231e:	47d2                	lw	a5,20(sp)
    2320:	010c1613          	slli	a2,s8,0x10
    2324:	8241                	srli	a2,a2,0x10
    2326:	00f66563          	bltu	a2,a5,2330 <LCD_ShowChar+0x78>
    232a:	6105                	addi	sp,sp,32
    232c:	ed1fd06f          	j	1fc <__riscv_restore_12>
    2330:	47c1                	li	a5,16
    2332:	02fd1763          	bne	s10,a5,2360 <LCD_ShowChar+0xa8>
    2336:	47c2                	lw	a5,16(sp)
    2338:	01878633          	add	a2,a5,s8
    233c:	9652                	add	a2,a2,s4
    233e:	00064b83          	lbu	s7,0(a2)
    2342:	4901                	li	s2,0
    2344:	47f2                	lw	a5,28(sp)
    2346:	412bd633          	sra	a2,s7,s2
    234a:	8a05                	andi	a2,a2,1
    234c:	e39d                	bnez	a5,2372 <LCD_ShowChar+0xba>
    234e:	855a                	mv	a0,s6
    2350:	e211                	bnez	a2,2354 <LCD_ShowChar+0x9c>
    2352:	4562                	lw	a0,24(sp)
    2354:	a61ff0ef          	jal	ra,1db4 <LCD_WR_DATA>
    2358:	0905                	addi	s2,s2,1
    235a:	ffb915e3          	bne	s2,s11,2344 <LCD_ShowChar+0x8c>
    235e:	a835                	j	239a <LCD_ShowChar+0xe2>
    2360:	02000793          	li	a5,32
    2364:	fcfd13e3          	bne	s10,a5,232a <LCD_ShowChar+0x72>
    2368:	47b2                	lw	a5,12(sp)
    236a:	01878633          	add	a2,a5,s8
    236e:	964e                	add	a2,a2,s3
    2370:	b7f9                	j	233e <LCD_ShowChar+0x86>
    2372:	c611                	beqz	a2,237e <LCD_ShowChar+0xc6>
    2374:	865a                	mv	a2,s6
    2376:	85a2                	mv	a1,s0
    2378:	8566                	mv	a0,s9
    237a:	df7ff0ef          	jal	ra,2170 <LCD_DrawPoint>
    237e:	001c8713          	addi	a4,s9,1
    2382:	01071c93          	slli	s9,a4,0x10
    2386:	010cdc93          	srli	s9,s9,0x10
    238a:	409c8633          	sub	a2,s9,s1
    238e:	fd5615e3          	bne	a2,s5,2358 <LCD_ShowChar+0xa0>
    2392:	0405                	addi	s0,s0,1
    2394:	0442                	slli	s0,s0,0x10
    2396:	8041                	srli	s0,s0,0x10
    2398:	8ca6                	mv	s9,s1
    239a:	0c05                	addi	s8,s8,1
    239c:	b749                	j	231e <LCD_ShowChar+0x66>

0000239e <LCD_ShowIntNum>:
    239e:	e23fd2ef          	jal	t0,1c0 <__riscv_save_12>
    23a2:	1141                	addi	sp,sp,-16
    23a4:	8a3e                	mv	s4,a5
    23a6:	fff68a93          	addi	s5,a3,-1
    23aa:	00185793          	srli	a5,a6,0x1
    23ae:	8d2a                	mv	s10,a0
    23b0:	892e                	mv	s2,a1
    23b2:	8c32                	mv	s8,a2
    23b4:	89ba                	mv	s3,a4
    23b6:	8bc2                	mv	s7,a6
    23b8:	c63e                	sw	a5,12(sp)
    23ba:	0ffafc93          	andi	s9,s5,255
    23be:	4d81                	li	s11,0
    23c0:	4481                	li	s1,0
    23c2:	0ff00413          	li	s0,255
    23c6:	4b29                	li	s6,10
    23c8:	008c9563          	bne	s9,s0,23d2 <LCD_ShowIntNum+0x34>
    23cc:	0141                	addi	sp,sp,16
    23ce:	e2ffd06f          	j	1fc <__riscv_restore_12>
    23d2:	8766                	mv	a4,s9
    23d4:	4785                	li	a5,1
    23d6:	177d                	addi	a4,a4,-1
    23d8:	0ff77713          	andi	a4,a4,255
    23dc:	04871063          	bne	a4,s0,241c <LCD_ShowIntNum+0x7e>
    23e0:	02fc57b3          	divu	a5,s8,a5
    23e4:	0367f7b3          	remu	a5,a5,s6
    23e8:	0ff7f613          	andi	a2,a5,255
    23ec:	ec85                	bnez	s1,2424 <LCD_ShowIntNum+0x86>
    23ee:	035ddb63          	bge	s11,s5,2424 <LCD_ShowIntNum+0x86>
    23f2:	eb85                	bnez	a5,2422 <LCD_ShowIntNum+0x84>
    23f4:	4801                	li	a6,0
    23f6:	87de                	mv	a5,s7
    23f8:	8752                	mv	a4,s4
    23fa:	86ce                	mv	a3,s3
    23fc:	02000613          	li	a2,32
    2400:	856a                	mv	a0,s10
    2402:	85ca                	mv	a1,s2
    2404:	eb5ff0ef          	jal	ra,22b8 <LCD_ShowChar>
    2408:	47b2                	lw	a5,12(sp)
    240a:	1cfd                	addi	s9,s9,-1
    240c:	0d85                	addi	s11,s11,1
    240e:	9d3e                	add	s10,s10,a5
    2410:	0d42                	slli	s10,s10,0x10
    2412:	010d5d13          	srli	s10,s10,0x10
    2416:	0ffcfc93          	andi	s9,s9,255
    241a:	b77d                	j	23c8 <LCD_ShowIntNum+0x2a>
    241c:	036787b3          	mul	a5,a5,s6
    2420:	bf5d                	j	23d6 <LCD_ShowIntNum+0x38>
    2422:	4485                	li	s1,1
    2424:	4801                	li	a6,0
    2426:	87de                	mv	a5,s7
    2428:	8752                	mv	a4,s4
    242a:	86ce                	mv	a3,s3
    242c:	03060613          	addi	a2,a2,48
    2430:	bfc1                	j	2400 <LCD_ShowIntNum+0x62>

00002432 <LCD_ShowPicture>:
    2432:	da5fd2ef          	jal	t0,1d6 <__riscv_save_4>
    2436:	89b6                	mv	s3,a3
    2438:	8ab2                	mv	s5,a2
    243a:	16fd                	addi	a3,a3,-1
    243c:	167d                	addi	a2,a2,-1
    243e:	96ae                	add	a3,a3,a1
    2440:	962a                	add	a2,a2,a0
    2442:	06c2                	slli	a3,a3,0x10
    2444:	0642                	slli	a2,a2,0x10
    2446:	82c1                	srli	a3,a3,0x10
    2448:	8241                	srli	a2,a2,0x10
    244a:	8b3a                	mv	s6,a4
    244c:	84ce                	mv	s1,s3
    244e:	9d1ff0ef          	jal	ra,1e1e <LCD_Address_Set>
    2452:	4901                	li	s2,0
    2454:	41348433          	sub	s0,s1,s3
    2458:	0442                	slli	s0,s0,0x10
    245a:	8041                	srli	s0,s0,0x10
    245c:	03591263          	bne	s2,s5,2480 <LCD_ShowPicture+0x4e>
    2460:	dabfd06f          	j	20a <__riscv_restore_4>
    2464:	00141a13          	slli	s4,s0,0x1
    2468:	9a5a                	add	s4,s4,s6
    246a:	000a4503          	lbu	a0,0(s4)
    246e:	0405                	addi	s0,s0,1
    2470:	0442                	slli	s0,s0,0x10
    2472:	913ff0ef          	jal	ra,1d84 <LCD_WR_DATA8>
    2476:	001a4503          	lbu	a0,1(s4)
    247a:	8041                	srli	s0,s0,0x10
    247c:	909ff0ef          	jal	ra,1d84 <LCD_WR_DATA8>
    2480:	fe9412e3          	bne	s0,s1,2464 <LCD_ShowPicture+0x32>
    2484:	0905                	addi	s2,s2,1
    2486:	94ce                	add	s1,s1,s3
    2488:	0942                	slli	s2,s2,0x10
    248a:	04c2                	slli	s1,s1,0x10
    248c:	01095913          	srli	s2,s2,0x10
    2490:	80c1                	srli	s1,s1,0x10
    2492:	b7c9                	j	2454 <LCD_ShowPicture+0x22>

00002494 <TIM2_PWM_Init>:
    2494:	d5dfd2ef          	jal	t0,1f0 <__riscv_save_0>
    2498:	7179                	addi	sp,sp,-48
    249a:	4585                	li	a1,1
    249c:	4505                	li	a0,1
    249e:	cfdfe0ef          	jal	ra,119a <RCC_APB1PeriphClockCmd>
    24a2:	05f00793          	li	a5,95
    24a6:	c43e                	sw	a5,8(sp)
    24a8:	6795                	lui	a5,0x5
    24aa:	e1f78793          	addi	a5,a5,-481 # 4e1f <gImage_1+0x1303>
    24ae:	002c                	addi	a1,sp,8
    24b0:	40000537          	lui	a0,0x40000
    24b4:	c63e                	sw	a5,12(sp)
    24b6:	d6dfe0ef          	jal	ra,1222 <TIM_TimeBaseInit>
    24ba:	67c1                	lui	a5,0x10
    24bc:	06078793          	addi	a5,a5,96 # 10060 <gImage_2+0x4544>
    24c0:	d03e                	sw	a5,32(sp)
    24c2:	100c                	addi	a1,sp,32
    24c4:	1f400793          	li	a5,500
    24c8:	40000537          	lui	a0,0x40000
    24cc:	02f11323          	sh	a5,38(sp)
    24d0:	02011423          	sh	zero,40(sp)
    24d4:	df9fe0ef          	jal	ra,12cc <TIM_OC1Init>
    24d8:	45a1                	li	a1,8
    24da:	40000537          	lui	a0,0x40000
    24de:	eb5fe0ef          	jal	ra,1392 <TIM_OC1PreloadConfig>
    24e2:	4585                	li	a1,1
    24e4:	40000537          	lui	a0,0x40000
    24e8:	e91fe0ef          	jal	ra,1378 <TIM_ARRPreloadConfig>
    24ec:	4585                	li	a1,1
    24ee:	40000537          	lui	a0,0x40000
    24f2:	e5dfe0ef          	jal	ra,134e <TIM_Cmd>
    24f6:	4585                	li	a1,1
    24f8:	4511                	li	a0,4
    24fa:	c83fe0ef          	jal	ra,117c <RCC_APB2PeriphClockCmd>
    24fe:	4785                	li	a5,1
    2500:	82fc                	sh	a5,20(sp)
    2502:	40011537          	lui	a0,0x40011
    2506:	47e1                	li	a5,24
    2508:	ce3e                	sw	a5,28(sp)
    250a:	084c                	addi	a1,sp,20
    250c:	478d                	li	a5,3
    250e:	80050513          	addi	a0,a0,-2048 # 40010800 <_eusrstack+0x20008800>
    2512:	cc3e                	sw	a5,24(sp)
    2514:	9bffe0ef          	jal	ra,ed2 <GPIO_Init>
    2518:	6145                	addi	sp,sp,48
    251a:	cfbfd06f          	j	214 <__riscv_restore_0>

0000251e <lock>:
    251e:	cd3fd2ef          	jal	t0,1f0 <__riscv_save_0>
    2522:	1f400593          	li	a1,500
    2526:	e119                	bnez	a0,252c <lock+0xe>
    2528:	5dc00593          	li	a1,1500
    252c:	40000537          	lui	a0,0x40000
    2530:	e71fe0ef          	jal	ra,13a0 <TIM_SetCompare1>
    2534:	ce1fd06f          	j	214 <__riscv_restore_0>

00002538 <Tim3_Init>:
    2538:	cb9fd2ef          	jal	t0,1f0 <__riscv_save_0>
    253c:	1101                	addi	sp,sp,-32
    253e:	84aa                	mv	s1,a0
    2540:	842e                	mv	s0,a1
    2542:	4509                	li	a0,2
    2544:	4585                	li	a1,1
    2546:	c55fe0ef          	jal	ra,119a <RCC_APB1PeriphClockCmd>
    254a:	82e0                	sh	s0,20(sp)
    254c:	40000437          	lui	s0,0x40000
    2550:	084c                	addi	a1,sp,20
    2552:	40040513          	addi	a0,s0,1024 # 40000400 <_eusrstack+0x1fff8400>
    2556:	84e4                	sh	s1,24(sp)
    2558:	00011d23          	sh	zero,26(sp)
    255c:	00011b23          	sh	zero,22(sp)
    2560:	cc3fe0ef          	jal	ra,1222 <TIM_TimeBaseInit>
    2564:	4605                	li	a2,1
    2566:	04100593          	li	a1,65
    256a:	40040513          	addi	a0,s0,1024
    256e:	df9fe0ef          	jal	ra,1366 <TIM_ITConfig>
    2572:	02d00793          	li	a5,45
    2576:	865c                	sb	a5,12(sp)
    2578:	0068                	addi	a0,sp,12
    257a:	4785                	li	a5,1
    257c:	c83e                	sw	a5,16(sp)
    257e:	a2dfe0ef          	jal	ra,faa <NVIC_Init>
    2582:	4585                	li	a1,1
    2584:	40040513          	addi	a0,s0,1024
    2588:	dc7fe0ef          	jal	ra,134e <TIM_Cmd>
    258c:	6105                	addi	sp,sp,32
    258e:	c87fd06f          	j	214 <__riscv_restore_0>

00002592 <Uart6_Init>:
    2592:	c5ffd2ef          	jal	t0,1f0 <__riscv_save_0>
    2596:	7179                	addi	sp,sp,-48
    2598:	4585                	li	a1,1
    259a:	04000513          	li	a0,64
    259e:	bfdfe0ef          	jal	ra,119a <RCC_APB1PeriphClockCmd>
    25a2:	4585                	li	a1,1
    25a4:	4541                	li	a0,16
    25a6:	bd7fe0ef          	jal	ra,117c <RCC_APB2PeriphClockCmd>
    25aa:	478d                	li	a5,3
    25ac:	82fc                	sh	a5,20(sp)
    25ae:	478d                	li	a5,3
    25b0:	cc3e                	sw	a5,24(sp)
    25b2:	084c                	addi	a1,sp,20
    25b4:	47e1                	li	a5,24
    25b6:	40011537          	lui	a0,0x40011
    25ba:	ce3e                	sw	a5,28(sp)
    25bc:	917fe0ef          	jal	ra,ed2 <GPIO_Init>
    25c0:	67f1                	lui	a5,0x1c
    25c2:	40002437          	lui	s0,0x40002
    25c6:	20078793          	addi	a5,a5,512 # 1c200 <_data_lma+0x635c>
    25ca:	d03e                	sw	a5,32(sp)
    25cc:	100c                	addi	a1,sp,32
    25ce:	000c07b7          	lui	a5,0xc0
    25d2:	80040513          	addi	a0,s0,-2048 # 40001800 <_eusrstack+0x1fff9800>
    25d6:	d43e                	sw	a5,40(sp)
    25d8:	d202                	sw	zero,36(sp)
    25da:	02011623          	sh	zero,44(sp)
    25de:	debfe0ef          	jal	ra,13c8 <USART_Init>
    25e2:	4605                	li	a2,1
    25e4:	52500593          	li	a1,1317
    25e8:	80040513          	addi	a0,s0,-2048
    25ec:	e81fe0ef          	jal	ra,146c <USART_ITConfig>
    25f0:	05700793          	li	a5,87
    25f4:	865c                	sb	a5,12(sp)
    25f6:	0068                	addi	a0,sp,12
    25f8:	4785                	li	a5,1
    25fa:	c83e                	sw	a5,16(sp)
    25fc:	9affe0ef          	jal	ra,faa <NVIC_Init>
    2600:	80040513          	addi	a0,s0,-2048
    2604:	4585                	li	a1,1
    2606:	e51fe0ef          	jal	ra,1456 <USART_Cmd>
    260a:	04000593          	li	a1,64
    260e:	80040513          	addi	a0,s0,-2048
    2612:	eabfe0ef          	jal	ra,14bc <USART_ClearFlag>
    2616:	6145                	addi	sp,sp,48
    2618:	bfdfd06f          	j	214 <__riscv_restore_0>

0000261c <uart6_send_string>:
    261c:	bd5fd2ef          	jal	t0,1f0 <__riscv_save_0>
    2620:	400024b7          	lui	s1,0x40002
    2624:	842a                	mv	s0,a0
    2626:	00b50933          	add	s2,a0,a1
    262a:	80048493          	addi	s1,s1,-2048 # 40001800 <_eusrstack+0x1fff9800>
    262e:	01241463          	bne	s0,s2,2636 <uart6_send_string+0x1a>
    2632:	be3fd06f          	j	214 <__riscv_restore_0>
    2636:	200c                	lbu	a1,0(s0)
    2638:	8526                	mv	a0,s1
    263a:	e69fe0ef          	jal	ra,14a2 <USART_SendData>
    263e:	04000593          	li	a1,64
    2642:	8526                	mv	a0,s1
    2644:	e6ffe0ef          	jal	ra,14b2 <USART_GetFlagStatus>
    2648:	d97d                	beqz	a0,263e <uart6_send_string+0x22>
    264a:	0405                	addi	s0,s0,1
    264c:	b7cd                	j	262e <uart6_send_string+0x12>

0000264e <Uart7_Init>:
    264e:	ba3fd2ef          	jal	t0,1f0 <__riscv_save_0>
    2652:	7179                	addi	sp,sp,-48
    2654:	4585                	li	a1,1
    2656:	08000513          	li	a0,128
    265a:	b41fe0ef          	jal	ra,119a <RCC_APB1PeriphClockCmd>
    265e:	4585                	li	a1,1
    2660:	4541                	li	a0,16
    2662:	b1bfe0ef          	jal	ra,117c <RCC_APB2PeriphClockCmd>
    2666:	47b1                	li	a5,12
    2668:	82fc                	sh	a5,20(sp)
    266a:	478d                	li	a5,3
    266c:	cc3e                	sw	a5,24(sp)
    266e:	084c                	addi	a1,sp,20
    2670:	47e1                	li	a5,24
    2672:	40011537          	lui	a0,0x40011
    2676:	ce3e                	sw	a5,28(sp)
    2678:	85bfe0ef          	jal	ra,ed2 <GPIO_Init>
    267c:	67f1                	lui	a5,0x1c
    267e:	40002437          	lui	s0,0x40002
    2682:	20078793          	addi	a5,a5,512 # 1c200 <_data_lma+0x635c>
    2686:	d03e                	sw	a5,32(sp)
    2688:	100c                	addi	a1,sp,32
    268a:	000c07b7          	lui	a5,0xc0
    268e:	c0040513          	addi	a0,s0,-1024 # 40001c00 <_eusrstack+0x1fff9c00>
    2692:	d43e                	sw	a5,40(sp)
    2694:	d202                	sw	zero,36(sp)
    2696:	02011623          	sh	zero,44(sp)
    269a:	d2ffe0ef          	jal	ra,13c8 <USART_Init>
    269e:	4605                	li	a2,1
    26a0:	52500593          	li	a1,1317
    26a4:	c0040513          	addi	a0,s0,-1024
    26a8:	dc5fe0ef          	jal	ra,146c <USART_ITConfig>
    26ac:	05800793          	li	a5,88
    26b0:	865c                	sb	a5,12(sp)
    26b2:	0068                	addi	a0,sp,12
    26b4:	4785                	li	a5,1
    26b6:	c83e                	sw	a5,16(sp)
    26b8:	8f3fe0ef          	jal	ra,faa <NVIC_Init>
    26bc:	c0040513          	addi	a0,s0,-1024
    26c0:	4585                	li	a1,1
    26c2:	d95fe0ef          	jal	ra,1456 <USART_Cmd>
    26c6:	04000593          	li	a1,64
    26ca:	c0040513          	addi	a0,s0,-1024
    26ce:	deffe0ef          	jal	ra,14bc <USART_ClearFlag>
    26d2:	6145                	addi	sp,sp,48
    26d4:	b41fd06f          	j	214 <__riscv_restore_0>

000026d8 <usart1_send_string>:
    26d8:	b19fd2ef          	jal	t0,1f0 <__riscv_save_0>
    26dc:	400144b7          	lui	s1,0x40014
    26e0:	842a                	mv	s0,a0
    26e2:	00b50933          	add	s2,a0,a1
    26e6:	80048493          	addi	s1,s1,-2048 # 40013800 <_eusrstack+0x2000b800>
    26ea:	01241463          	bne	s0,s2,26f2 <usart1_send_string+0x1a>
    26ee:	b27fd06f          	j	214 <__riscv_restore_0>
    26f2:	200c                	lbu	a1,0(s0)
    26f4:	8526                	mv	a0,s1
    26f6:	dadfe0ef          	jal	ra,14a2 <USART_SendData>
    26fa:	04000593          	li	a1,64
    26fe:	8526                	mv	a0,s1
    2700:	db3fe0ef          	jal	ra,14b2 <USART_GetFlagStatus>
    2704:	d97d                	beqz	a0,26fa <usart1_send_string+0x22>
    2706:	0405                	addi	s0,s0,1
    2708:	b7cd                	j	26ea <usart1_send_string+0x12>

0000270a <uart7_send_string>:
    270a:	acdfd2ef          	jal	t0,1d6 <__riscv_save_4>
    270e:	400024b7          	lui	s1,0x40002
    2712:	892a                	mv	s2,a0
    2714:	89ae                	mv	s3,a1
    2716:	842a                	mv	s0,a0
    2718:	00a58a33          	add	s4,a1,a0
    271c:	c0048493          	addi	s1,s1,-1024 # 40001c00 <_eusrstack+0x1fff9c00>
    2720:	01441863          	bne	s0,s4,2730 <uart7_send_string+0x26>
    2724:	85ce                	mv	a1,s3
    2726:	854a                	mv	a0,s2
    2728:	fb1ff0ef          	jal	ra,26d8 <usart1_send_string>
    272c:	adffd06f          	j	20a <__riscv_restore_4>
    2730:	200c                	lbu	a1,0(s0)
    2732:	8526                	mv	a0,s1
    2734:	d6ffe0ef          	jal	ra,14a2 <USART_SendData>
    2738:	04000593          	li	a1,64
    273c:	8526                	mv	a0,s1
    273e:	d75fe0ef          	jal	ra,14b2 <USART_GetFlagStatus>
    2742:	d97d                	beqz	a0,2738 <uart7_send_string+0x2e>
    2744:	0405                	addi	s0,s0,1
    2746:	bfe9                	j	2720 <uart7_send_string+0x16>

00002748 <Usart3_Init>:
    2748:	aa9fd2ef          	jal	t0,1f0 <__riscv_save_0>
    274c:	7179                	addi	sp,sp,-48
    274e:	4585                	li	a1,1
    2750:	00040537          	lui	a0,0x40
    2754:	a47fe0ef          	jal	ra,119a <RCC_APB1PeriphClockCmd>
    2758:	4585                	li	a1,1
    275a:	4521                	li	a0,8
    275c:	a21fe0ef          	jal	ra,117c <RCC_APB2PeriphClockCmd>
    2760:	6785                	lui	a5,0x1
    2762:	c0078793          	addi	a5,a5,-1024 # c00 <main+0x108>
    2766:	82fc                	sh	a5,20(sp)
    2768:	40011537          	lui	a0,0x40011
    276c:	478d                	li	a5,3
    276e:	cc3e                	sw	a5,24(sp)
    2770:	084c                	addi	a1,sp,20
    2772:	47e1                	li	a5,24
    2774:	c0050513          	addi	a0,a0,-1024 # 40010c00 <_eusrstack+0x20008c00>
    2778:	ce3e                	sw	a5,28(sp)
    277a:	f58fe0ef          	jal	ra,ed2 <GPIO_Init>
    277e:	6789                	lui	a5,0x2
    2780:	40005437          	lui	s0,0x40005
    2784:	58078793          	addi	a5,a5,1408 # 2580 <Tim3_Init+0x48>
    2788:	d03e                	sw	a5,32(sp)
    278a:	100c                	addi	a1,sp,32
    278c:	000c07b7          	lui	a5,0xc0
    2790:	80040513          	addi	a0,s0,-2048 # 40004800 <_eusrstack+0x1fffc800>
    2794:	d43e                	sw	a5,40(sp)
    2796:	d202                	sw	zero,36(sp)
    2798:	02011623          	sh	zero,44(sp)
    279c:	c2dfe0ef          	jal	ra,13c8 <USART_Init>
    27a0:	4605                	li	a2,1
    27a2:	52500593          	li	a1,1317
    27a6:	80040513          	addi	a0,s0,-2048
    27aa:	cc3fe0ef          	jal	ra,146c <USART_ITConfig>
    27ae:	13700793          	li	a5,311
    27b2:	867c                	sh	a5,12(sp)
    27b4:	4785                	li	a5,1
    27b6:	875c                	sb	a5,14(sp)
    27b8:	0068                	addi	a0,sp,12
    27ba:	4785                	li	a5,1
    27bc:	c83e                	sw	a5,16(sp)
    27be:	fecfe0ef          	jal	ra,faa <NVIC_Init>
    27c2:	80040513          	addi	a0,s0,-2048
    27c6:	4585                	li	a1,1
    27c8:	c8ffe0ef          	jal	ra,1456 <USART_Cmd>
    27cc:	04000593          	li	a1,64
    27d0:	80040513          	addi	a0,s0,-2048
    27d4:	ce9fe0ef          	jal	ra,14bc <USART_ClearFlag>
    27d8:	6145                	addi	sp,sp,48
    27da:	a3bfd06f          	j	214 <__riscv_restore_0>

000027de <Usart2_Init>:
    27de:	a13fd2ef          	jal	t0,1f0 <__riscv_save_0>
    27e2:	7179                	addi	sp,sp,-48
    27e4:	4585                	li	a1,1
    27e6:	00020537          	lui	a0,0x20
    27ea:	9b1fe0ef          	jal	ra,119a <RCC_APB1PeriphClockCmd>
    27ee:	4585                	li	a1,1
    27f0:	4511                	li	a0,4
    27f2:	98bfe0ef          	jal	ra,117c <RCC_APB2PeriphClockCmd>
    27f6:	47b1                	li	a5,12
    27f8:	82fc                	sh	a5,20(sp)
    27fa:	40011537          	lui	a0,0x40011
    27fe:	478d                	li	a5,3
    2800:	cc3e                	sw	a5,24(sp)
    2802:	084c                	addi	a1,sp,20
    2804:	47e1                	li	a5,24
    2806:	80050513          	addi	a0,a0,-2048 # 40010800 <_eusrstack+0x20008800>
    280a:	ce3e                	sw	a5,28(sp)
    280c:	ec6fe0ef          	jal	ra,ed2 <GPIO_Init>
    2810:	67f1                	lui	a5,0x1c
    2812:	40004437          	lui	s0,0x40004
    2816:	20078793          	addi	a5,a5,512 # 1c200 <_data_lma+0x635c>
    281a:	d03e                	sw	a5,32(sp)
    281c:	100c                	addi	a1,sp,32
    281e:	000c07b7          	lui	a5,0xc0
    2822:	40040513          	addi	a0,s0,1024 # 40004400 <_eusrstack+0x1fffc400>
    2826:	d43e                	sw	a5,40(sp)
    2828:	d202                	sw	zero,36(sp)
    282a:	02011623          	sh	zero,44(sp)
    282e:	b9bfe0ef          	jal	ra,13c8 <USART_Init>
    2832:	4605                	li	a2,1
    2834:	52500593          	li	a1,1317
    2838:	40040513          	addi	a0,s0,1024
    283c:	c31fe0ef          	jal	ra,146c <USART_ITConfig>
    2840:	13600793          	li	a5,310
    2844:	867c                	sh	a5,12(sp)
    2846:	4785                	li	a5,1
    2848:	875c                	sb	a5,14(sp)
    284a:	0068                	addi	a0,sp,12
    284c:	4785                	li	a5,1
    284e:	c83e                	sw	a5,16(sp)
    2850:	f5afe0ef          	jal	ra,faa <NVIC_Init>
    2854:	40040513          	addi	a0,s0,1024
    2858:	4585                	li	a1,1
    285a:	bfdfe0ef          	jal	ra,1456 <USART_Cmd>
    285e:	04000593          	li	a1,64
    2862:	40040513          	addi	a0,s0,1024
    2866:	c57fe0ef          	jal	ra,14bc <USART_ClearFlag>
    286a:	6145                	addi	sp,sp,48
    286c:	9a9fd06f          	j	214 <__riscv_restore_0>

00002870 <Delay_Init>:
    2870:	81c1a783          	lw	a5,-2020(gp) # 2000042c <SystemCoreClock>
    2874:	007a1737          	lui	a4,0x7a1
    2878:	20070713          	addi	a4,a4,512 # 7a1200 <_data_lma+0x78b35c>
    287c:	02e7d7b3          	divu	a5,a5,a4
    2880:	0ff7f793          	andi	a5,a5,255
    2884:	84f18d23          	sb	a5,-1958(gp) # 2000046a <p_us>
    2888:	3e800713          	li	a4,1000
    288c:	02e787b3          	mul	a5,a5,a4
    2890:	84f19c23          	sh	a5,-1960(gp) # 20000468 <p_ms>
    2894:	8082                	ret

00002896 <Delay_Us>:
    2896:	e000f7b7          	lui	a5,0xe000f
    289a:	43d8                	lw	a4,4(a5)
    289c:	4681                	li	a3,0
    289e:	9b79                	andi	a4,a4,-2
    28a0:	c3d8                	sw	a4,4(a5)
    28a2:	85a1c703          	lbu	a4,-1958(gp) # 2000046a <p_us>
    28a6:	02a70633          	mul	a2,a4,a0
    28aa:	cb90                	sw	a2,16(a5)
    28ac:	cbd4                	sw	a3,20(a5)
    28ae:	4398                	lw	a4,0(a5)
    28b0:	01076713          	ori	a4,a4,16
    28b4:	c398                	sw	a4,0(a5)
    28b6:	4398                	lw	a4,0(a5)
    28b8:	02176713          	ori	a4,a4,33
    28bc:	c398                	sw	a4,0(a5)
    28be:	43d8                	lw	a4,4(a5)
    28c0:	8b05                	andi	a4,a4,1
    28c2:	df75                	beqz	a4,28be <Delay_Us+0x28>
    28c4:	4398                	lw	a4,0(a5)
    28c6:	9b79                	andi	a4,a4,-2
    28c8:	c398                	sw	a4,0(a5)
    28ca:	8082                	ret

000028cc <Delay_Ms>:
    28cc:	e000f7b7          	lui	a5,0xe000f
    28d0:	43d8                	lw	a4,4(a5)
    28d2:	4681                	li	a3,0
    28d4:	9b79                	andi	a4,a4,-2
    28d6:	c3d8                	sw	a4,4(a5)
    28d8:	8581d703          	lhu	a4,-1960(gp) # 20000468 <p_ms>
    28dc:	02a70633          	mul	a2,a4,a0
    28e0:	cb90                	sw	a2,16(a5)
    28e2:	cbd4                	sw	a3,20(a5)
    28e4:	4398                	lw	a4,0(a5)
    28e6:	01076713          	ori	a4,a4,16
    28ea:	c398                	sw	a4,0(a5)
    28ec:	4398                	lw	a4,0(a5)
    28ee:	02176713          	ori	a4,a4,33
    28f2:	c398                	sw	a4,0(a5)
    28f4:	43d8                	lw	a4,4(a5)
    28f6:	8b05                	andi	a4,a4,1
    28f8:	df75                	beqz	a4,28f4 <Delay_Ms+0x28>
    28fa:	4398                	lw	a4,0(a5)
    28fc:	9b79                	andi	a4,a4,-2
    28fe:	c398                	sw	a4,0(a5)
    2900:	8082                	ret

00002902 <USART_Printf_Init>:
    2902:	8effd2ef          	jal	t0,1f0 <__riscv_save_0>
    2906:	842a                	mv	s0,a0
    2908:	6511                	lui	a0,0x4
    290a:	1101                	addi	sp,sp,-32
    290c:	4585                	li	a1,1
    290e:	0511                	addi	a0,a0,4
    2910:	86dfe0ef          	jal	ra,117c <RCC_APB2PeriphClockCmd>
    2914:	20000793          	li	a5,512
    2918:	827c                	sh	a5,4(sp)
    291a:	40011537          	lui	a0,0x40011
    291e:	478d                	li	a5,3
    2920:	c43e                	sw	a5,8(sp)
    2922:	004c                	addi	a1,sp,4
    2924:	47e1                	li	a5,24
    2926:	80050513          	addi	a0,a0,-2048 # 40010800 <_eusrstack+0x20008800>
    292a:	c63e                	sw	a5,12(sp)
    292c:	da6fe0ef          	jal	ra,ed2 <GPIO_Init>
    2930:	c822                	sw	s0,16(sp)
    2932:	40014437          	lui	s0,0x40014
    2936:	000807b7          	lui	a5,0x80
    293a:	080c                	addi	a1,sp,16
    293c:	80040513          	addi	a0,s0,-2048 # 40013800 <_eusrstack+0x2000b800>
    2940:	cc3e                	sw	a5,24(sp)
    2942:	ca02                	sw	zero,20(sp)
    2944:	00011e23          	sh	zero,28(sp)
    2948:	a81fe0ef          	jal	ra,13c8 <USART_Init>
    294c:	4585                	li	a1,1
    294e:	80040513          	addi	a0,s0,-2048
    2952:	b05fe0ef          	jal	ra,1456 <USART_Cmd>
    2956:	6105                	addi	sp,sp,32
    2958:	8bdfd06f          	j	214 <__riscv_restore_0>

0000295c <_sbrk>:
    295c:	82418713          	addi	a4,gp,-2012 # 20000434 <curbrk.5273>
    2960:	431c                	lw	a5,0(a4)
    2962:	98c18693          	addi	a3,gp,-1652 # 2000059c <_ebss>
    2966:	953e                	add	a0,a0,a5
    2968:	00d56b63          	bltu	a0,a3,297e <_sbrk+0x22>
    296c:	200086b7          	lui	a3,0x20008
    2970:	80068693          	addi	a3,a3,-2048 # 20007800 <_heap_end>
    2974:	00a6e563          	bltu	a3,a0,297e <_sbrk+0x22>
    2978:	c308                	sw	a0,0(a4)
    297a:	853e                	mv	a0,a5
    297c:	8082                	ret
    297e:	57fd                	li	a5,-1
    2980:	bfed                	j	297a <_sbrk+0x1e>

00002982 <memcpy>:
    2982:	00a5c7b3          	xor	a5,a1,a0
    2986:	8b8d                	andi	a5,a5,3
    2988:	00c50733          	add	a4,a0,a2
    298c:	e781                	bnez	a5,2994 <memcpy+0x12>
    298e:	478d                	li	a5,3
    2990:	00c7ed63          	bltu	a5,a2,29aa <memcpy+0x28>
    2994:	87aa                	mv	a5,a0
    2996:	08e57e63          	bgeu	a0,a4,2a32 <memcpy+0xb0>
    299a:	2194                	lbu	a3,0(a1)
    299c:	0785                	addi	a5,a5,1
    299e:	0585                	addi	a1,a1,1
    29a0:	fed78fa3          	sb	a3,-1(a5) # 7ffff <_data_lma+0x6a15b>
    29a4:	fee7ebe3          	bltu	a5,a4,299a <memcpy+0x18>
    29a8:	8082                	ret
    29aa:	00357693          	andi	a3,a0,3
    29ae:	87aa                	mv	a5,a0
    29b0:	ca89                	beqz	a3,29c2 <memcpy+0x40>
    29b2:	2194                	lbu	a3,0(a1)
    29b4:	0785                	addi	a5,a5,1
    29b6:	0585                	addi	a1,a1,1
    29b8:	fed78fa3          	sb	a3,-1(a5)
    29bc:	0037f693          	andi	a3,a5,3
    29c0:	bfc5                	j	29b0 <memcpy+0x2e>
    29c2:	ffc77693          	andi	a3,a4,-4
    29c6:	fe068613          	addi	a2,a3,-32
    29ca:	06c7f063          	bgeu	a5,a2,2a2a <memcpy+0xa8>
    29ce:	0005a383          	lw	t2,0(a1)
    29d2:	0045a283          	lw	t0,4(a1)
    29d6:	0085af83          	lw	t6,8(a1)
    29da:	00c5af03          	lw	t5,12(a1)
    29de:	0105ae83          	lw	t4,16(a1)
    29e2:	0145ae03          	lw	t3,20(a1)
    29e6:	0185a303          	lw	t1,24(a1)
    29ea:	01c5a883          	lw	a7,28(a1)
    29ee:	02458593          	addi	a1,a1,36
    29f2:	0077a023          	sw	t2,0(a5)
    29f6:	ffc5a803          	lw	a6,-4(a1)
    29fa:	0057a223          	sw	t0,4(a5)
    29fe:	01f7a423          	sw	t6,8(a5)
    2a02:	01e7a623          	sw	t5,12(a5)
    2a06:	01d7a823          	sw	t4,16(a5)
    2a0a:	01c7aa23          	sw	t3,20(a5)
    2a0e:	0067ac23          	sw	t1,24(a5)
    2a12:	0117ae23          	sw	a7,28(a5)
    2a16:	02478793          	addi	a5,a5,36
    2a1a:	ff07ae23          	sw	a6,-4(a5)
    2a1e:	b775                	j	29ca <memcpy+0x48>
    2a20:	4190                	lw	a2,0(a1)
    2a22:	0791                	addi	a5,a5,4
    2a24:	0591                	addi	a1,a1,4
    2a26:	fec7ae23          	sw	a2,-4(a5)
    2a2a:	fed7ebe3          	bltu	a5,a3,2a20 <memcpy+0x9e>
    2a2e:	f6e7e6e3          	bltu	a5,a4,299a <memcpy+0x18>
    2a32:	8082                	ret

00002a34 <siscanf>:
    2a34:	7171                	addi	sp,sp,-176
    2a36:	d33e                	sw	a5,164(sp)
    2a38:	20400793          	li	a5,516
    2a3c:	c706                	sw	ra,140(sp)
    2a3e:	c62e                	sw	a1,12(sp)
    2a40:	cd32                	sw	a2,152(sp)
    2a42:	cf36                	sw	a3,156(sp)
    2a44:	d13a                	sw	a4,160(sp)
    2a46:	d542                	sw	a6,168(sp)
    2a48:	d746                	sw	a7,172(sp)
    2a4a:	02f11223          	sh	a5,36(sp)
    2a4e:	cc2a                	sw	a0,24(sp)
    2a50:	d42a                	sw	a0,40(sp)
    2a52:	281d                	jal	2a88 <strlen>
    2a54:	00000797          	auipc	a5,0x0
    2a58:	03078793          	addi	a5,a5,48 # 2a84 <__seofread>
    2a5c:	de3e                	sw	a5,60(sp)
    2a5e:	57fd                	li	a5,-1
    2a60:	45b2                	lw	a1,12(sp)
    2a62:	02f11323          	sh	a5,38(sp)
    2a66:	82818793          	addi	a5,gp,-2008 # 20000438 <_impure_ptr>
    2a6a:	ce2a                	sw	a0,28(sp)
    2a6c:	d62a                	sw	a0,44(sp)
    2a6e:	4388                	lw	a0,0(a5)
    2a70:	0934                	addi	a3,sp,152
    2a72:	862e                	mv	a2,a1
    2a74:	082c                	addi	a1,sp,24
    2a76:	c682                	sw	zero,76(sp)
    2a78:	d082                	sw	zero,96(sp)
    2a7a:	ca36                	sw	a3,20(sp)
    2a7c:	2235                	jal	2ba8 <__ssvfiscanf_r>
    2a7e:	40ba                	lw	ra,140(sp)
    2a80:	614d                	addi	sp,sp,176
    2a82:	8082                	ret

00002a84 <__seofread>:
    2a84:	4501                	li	a0,0
    2a86:	8082                	ret

00002a88 <strlen>:
    2a88:	87aa                	mv	a5,a0
    2a8a:	0785                	addi	a5,a5,1
    2a8c:	fff7c703          	lbu	a4,-1(a5)
    2a90:	ff6d                	bnez	a4,2a8a <strlen+0x2>
    2a92:	40a78533          	sub	a0,a5,a0
    2a96:	157d                	addi	a0,a0,-1
    2a98:	8082                	ret

00002a9a <strstr>:
    2a9a:	2118                	lbu	a4,0(a0)
    2a9c:	219c                	lbu	a5,0(a1)
    2a9e:	e701                	bnez	a4,2aa6 <strstr+0xc>
    2aa0:	c391                	beqz	a5,2aa4 <strstr+0xa>
    2aa2:	4501                	li	a0,0
    2aa4:	8082                	ret
    2aa6:	4781                	li	a5,0
    2aa8:	a039                	j	2ab6 <strstr+0x1c>
    2aaa:	311c                	lbu	a5,1(a0)
    2aac:	00150713          	addi	a4,a0,1
    2ab0:	dbed                	beqz	a5,2aa2 <strstr+0x8>
    2ab2:	4781                	li	a5,0
    2ab4:	853a                	mv	a0,a4
    2ab6:	00f58733          	add	a4,a1,a5
    2aba:	2318                	lbu	a4,0(a4)
    2abc:	d765                	beqz	a4,2aa4 <strstr+0xa>
    2abe:	00f506b3          	add	a3,a0,a5
    2ac2:	2294                	lbu	a3,0(a3)
    2ac4:	fee693e3          	bne	a3,a4,2aaa <strstr+0x10>
    2ac8:	0785                	addi	a5,a5,1
    2aca:	872a                	mv	a4,a0
    2acc:	b7e5                	j	2ab4 <strstr+0x1a>

00002ace <_sungetc_r>:
    2ace:	1141                	addi	sp,sp,-16
    2ad0:	c606                	sw	ra,12(sp)
    2ad2:	c422                	sw	s0,8(sp)
    2ad4:	c226                	sw	s1,4(sp)
    2ad6:	c04a                	sw	s2,0(sp)
    2ad8:	57fd                	li	a5,-1
    2ada:	00f59a63          	bne	a1,a5,2aee <_sungetc_r+0x20>
    2ade:	54fd                	li	s1,-1
    2ae0:	40b2                	lw	ra,12(sp)
    2ae2:	4422                	lw	s0,8(sp)
    2ae4:	8526                	mv	a0,s1
    2ae6:	4902                	lw	s2,0(sp)
    2ae8:	4492                	lw	s1,4(sp)
    2aea:	0141                	addi	sp,sp,16
    2aec:	8082                	ret
    2aee:	265e                	lhu	a5,12(a2)
    2af0:	0ff5f913          	andi	s2,a1,255
    2af4:	0ff5f493          	andi	s1,a1,255
    2af8:	fdf7f793          	andi	a5,a5,-33
    2afc:	a65e                	sh	a5,12(a2)
    2afe:	5a5c                	lw	a5,52(a2)
    2b00:	4258                	lw	a4,4(a2)
    2b02:	c785                	beqz	a5,2b2a <_sungetc_r+0x5c>
    2b04:	5e1c                	lw	a5,56(a2)
    2b06:	8432                	mv	s0,a2
    2b08:	00f75c63          	bge	a4,a5,2b20 <_sungetc_r+0x52>
    2b0c:	401c                	lw	a5,0(s0)
    2b0e:	fff78713          	addi	a4,a5,-1
    2b12:	c018                	sw	a4,0(s0)
    2b14:	ff278fa3          	sb	s2,-1(a5)
    2b18:	405c                	lw	a5,4(s0)
    2b1a:	0785                	addi	a5,a5,1
    2b1c:	c05c                	sw	a5,4(s0)
    2b1e:	b7c9                	j	2ae0 <_sungetc_r+0x12>
    2b20:	85b2                	mv	a1,a2
    2b22:	273000ef          	jal	ra,3594 <__submore>
    2b26:	d17d                	beqz	a0,2b0c <_sungetc_r+0x3e>
    2b28:	bf5d                	j	2ade <_sungetc_r+0x10>
    2b2a:	4a14                	lw	a3,16(a2)
    2b2c:	421c                	lw	a5,0(a2)
    2b2e:	ce81                	beqz	a3,2b46 <_sungetc_r+0x78>
    2b30:	00f6fb63          	bgeu	a3,a5,2b46 <_sungetc_r+0x78>
    2b34:	fff7c683          	lbu	a3,-1(a5)
    2b38:	00969763          	bne	a3,s1,2b46 <_sungetc_r+0x78>
    2b3c:	17fd                	addi	a5,a5,-1
    2b3e:	0705                	addi	a4,a4,1
    2b40:	c21c                	sw	a5,0(a2)
    2b42:	c258                	sw	a4,4(a2)
    2b44:	bf71                	j	2ae0 <_sungetc_r+0x12>
    2b46:	de5c                	sw	a5,60(a2)
    2b48:	04460793          	addi	a5,a2,68
    2b4c:	da5c                	sw	a5,52(a2)
    2b4e:	478d                	li	a5,3
    2b50:	de1c                	sw	a5,56(a2)
    2b52:	04660793          	addi	a5,a2,70
    2b56:	c21c                	sw	a5,0(a2)
    2b58:	4785                	li	a5,1
    2b5a:	c238                	sw	a4,64(a2)
    2b5c:	05260323          	sb	s2,70(a2)
    2b60:	c25c                	sw	a5,4(a2)
    2b62:	bfbd                	j	2ae0 <_sungetc_r+0x12>

00002b64 <__ssrefill_r>:
    2b64:	1141                	addi	sp,sp,-16
    2b66:	c422                	sw	s0,8(sp)
    2b68:	842e                	mv	s0,a1
    2b6a:	59cc                	lw	a1,52(a1)
    2b6c:	c606                	sw	ra,12(sp)
    2b6e:	c19d                	beqz	a1,2b94 <__ssrefill_r+0x30>
    2b70:	04440793          	addi	a5,s0,68
    2b74:	00f58463          	beq	a1,a5,2b7c <__ssrefill_r+0x18>
    2b78:	307000ef          	jal	ra,367e <_free_r>
    2b7c:	403c                	lw	a5,64(s0)
    2b7e:	02042a23          	sw	zero,52(s0)
    2b82:	c05c                	sw	a5,4(s0)
    2b84:	cb81                	beqz	a5,2b94 <__ssrefill_r+0x30>
    2b86:	5c5c                	lw	a5,60(s0)
    2b88:	4501                	li	a0,0
    2b8a:	c01c                	sw	a5,0(s0)
    2b8c:	40b2                	lw	ra,12(sp)
    2b8e:	4422                	lw	s0,8(sp)
    2b90:	0141                	addi	sp,sp,16
    2b92:	8082                	ret
    2b94:	481c                	lw	a5,16(s0)
    2b96:	00042223          	sw	zero,4(s0)
    2b9a:	557d                	li	a0,-1
    2b9c:	c01c                	sw	a5,0(s0)
    2b9e:	245e                	lhu	a5,12(s0)
    2ba0:	0207e793          	ori	a5,a5,32
    2ba4:	a45e                	sh	a5,12(s0)
    2ba6:	b7dd                	j	2b8c <__ssrefill_r+0x28>

00002ba8 <__ssvfiscanf_r>:
    2ba8:	d2010113          	addi	sp,sp,-736
    2bac:	00000797          	auipc	a5,0x0
    2bb0:	f2278793          	addi	a5,a5,-222 # 2ace <_sungetc_r>
    2bb4:	2d312623          	sw	s3,716(sp)
    2bb8:	28f12c23          	sw	a5,664(sp)
    2bbc:	01c10993          	addi	s3,sp,28
    2bc0:	00000797          	auipc	a5,0x0
    2bc4:	fa478793          	addi	a5,a5,-92 # 2b64 <__ssrefill_r>
    2bc8:	2c812c23          	sw	s0,728(sp)
    2bcc:	2c912a23          	sw	s1,724(sp)
    2bd0:	2d212823          	sw	s2,720(sp)
    2bd4:	2d412423          	sw	s4,712(sp)
    2bd8:	2d512223          	sw	s5,708(sp)
    2bdc:	2d612023          	sw	s6,704(sp)
    2be0:	2b712e23          	sw	s7,700(sp)
    2be4:	2b812c23          	sw	s8,696(sp)
    2be8:	2c112e23          	sw	ra,732(sp)
    2bec:	2b912a23          	sw	s9,692(sp)
    2bf0:	2ba12823          	sw	s10,688(sp)
    2bf4:	2bb12623          	sw	s11,684(sp)
    2bf8:	84aa                	mv	s1,a0
    2bfa:	842e                	mv	s0,a1
    2bfc:	12012423          	sw	zero,296(sp)
    2c00:	12012623          	sw	zero,300(sp)
    2c04:	13312823          	sw	s3,304(sp)
    2c08:	28f12e23          	sw	a5,668(sp)
    2c0c:	cc36                	sw	a3,24(sp)
    2c0e:	02500a13          	li	s4,37
    2c12:	02a00b13          	li	s6,42
    2c16:	4ba5                	li	s7,9
    2c18:	4929                	li	s2,10
    2c1a:	00013a97          	auipc	s5,0x13
    2c1e:	0f2a8a93          	addi	s5,s5,242 # 15d0c <tfont16+0x3fc>
    2c22:	ffffdc17          	auipc	s8,0xffffd
    2c26:	3dec0c13          	addi	s8,s8,990 # 0 <_sinit>
    2c2a:	221c                	lbu	a5,0(a2)
    2c2c:	c632                	sw	a2,12(sp)
    2c2e:	30078b63          	beqz	a5,2f44 <__ssvfiscanf_r+0x39c>
    2c32:	1eb000ef          	jal	ra,361c <__locale_ctype_ptr>
    2c36:	4632                	lw	a2,12(sp)
    2c38:	00064d83          	lbu	s11,0(a2)
    2c3c:	00160c93          	addi	s9,a2,1
    2c40:	956e                	add	a0,a0,s11
    2c42:	311c                	lbu	a5,1(a0)
    2c44:	8ba1                	andi	a5,a5,8
    2c46:	c3a1                	beqz	a5,2c86 <__ssvfiscanf_r+0xde>
    2c48:	405c                	lw	a5,4(s0)
    2c4a:	02f05763          	blez	a5,2c78 <__ssvfiscanf_r+0xd0>
    2c4e:	1cf000ef          	jal	ra,361c <__locale_ctype_ptr>
    2c52:	401c                	lw	a5,0(s0)
    2c54:	2398                	lbu	a4,0(a5)
    2c56:	953a                	add	a0,a0,a4
    2c58:	3118                	lbu	a4,1(a0)
    2c5a:	8b21                	andi	a4,a4,8
    2c5c:	e319                	bnez	a4,2c62 <__ssvfiscanf_r+0xba>
    2c5e:	8666                	mv	a2,s9
    2c60:	b7e9                	j	2c2a <__ssvfiscanf_r+0x82>
    2c62:	12c12703          	lw	a4,300(sp)
    2c66:	0785                	addi	a5,a5,1
    2c68:	c01c                	sw	a5,0(s0)
    2c6a:	0705                	addi	a4,a4,1
    2c6c:	12e12623          	sw	a4,300(sp)
    2c70:	4058                	lw	a4,4(s0)
    2c72:	177d                	addi	a4,a4,-1
    2c74:	c058                	sw	a4,4(s0)
    2c76:	bfc9                	j	2c48 <__ssvfiscanf_r+0xa0>
    2c78:	29c12783          	lw	a5,668(sp)
    2c7c:	85a2                	mv	a1,s0
    2c7e:	8526                	mv	a0,s1
    2c80:	9782                	jalr	a5
    2c82:	d571                	beqz	a0,2c4e <__ssvfiscanf_r+0xa6>
    2c84:	bfe9                	j	2c5e <__ssvfiscanf_r+0xb6>
    2c86:	174d9763          	bne	s11,s4,2df4 <__ssvfiscanf_r+0x24c>
    2c8a:	12012223          	sw	zero,292(sp)
    2c8e:	10012e23          	sw	zero,284(sp)
    2c92:	321c                	lbu	a5,1(a2)
    2c94:	01679763          	bne	a5,s6,2ca2 <__ssvfiscanf_r+0xfa>
    2c98:	47c1                	li	a5,16
    2c9a:	10f12e23          	sw	a5,284(sp)
    2c9e:	00260c93          	addi	s9,a2,2
    2ca2:	000cc583          	lbu	a1,0(s9)
    2ca6:	8d66                	mv	s10,s9
    2ca8:	0c85                	addi	s9,s9,1
    2caa:	fd058793          	addi	a5,a1,-48
    2cae:	06fbf063          	bgeu	s7,a5,2d0e <__ssvfiscanf_r+0x166>
    2cb2:	460d                	li	a2,3
    2cb4:	8556                	mv	a0,s5
    2cb6:	1b1000ef          	jal	ra,3666 <memchr>
    2cba:	cd01                	beqz	a0,2cd2 <__ssvfiscanf_r+0x12a>
    2cbc:	41550533          	sub	a0,a0,s5
    2cc0:	4785                	li	a5,1
    2cc2:	00a797b3          	sll	a5,a5,a0
    2cc6:	11c12503          	lw	a0,284(sp)
    2cca:	8d66                	mv	s10,s9
    2ccc:	8d5d                	or	a0,a0,a5
    2cce:	10a12e23          	sw	a0,284(sp)
    2cd2:	000d4783          	lbu	a5,0(s10)
    2cd6:	06700713          	li	a4,103
    2cda:	001d0c93          	addi	s9,s10,1
    2cde:	08f76663          	bltu	a4,a5,2d6a <__ssvfiscanf_r+0x1c2>
    2ce2:	06500713          	li	a4,101
    2ce6:	1ae7fb63          	bgeu	a5,a4,2e9c <__ssvfiscanf_r+0x2f4>
    2cea:	04700713          	li	a4,71
    2cee:	02f76a63          	bltu	a4,a5,2d22 <__ssvfiscanf_r+0x17a>
    2cf2:	04500713          	li	a4,69
    2cf6:	1ae7f363          	bgeu	a5,a4,2e9c <__ssvfiscanf_r+0x2f4>
    2cfa:	12078863          	beqz	a5,2e2a <__ssvfiscanf_r+0x282>
    2cfe:	0f478b63          	beq	a5,s4,2df4 <__ssvfiscanf_r+0x24c>
    2d02:	478d                	li	a5,3
    2d04:	12f12a23          	sw	a5,308(sp)
    2d08:	13212023          	sw	s2,288(sp)
    2d0c:	a061                	j	2d94 <__ssvfiscanf_r+0x1ec>
    2d0e:	12412783          	lw	a5,292(sp)
    2d12:	02f907b3          	mul	a5,s2,a5
    2d16:	fd078793          	addi	a5,a5,-48
    2d1a:	97ae                	add	a5,a5,a1
    2d1c:	12f12223          	sw	a5,292(sp)
    2d20:	b749                	j	2ca2 <__ssvfiscanf_r+0xfa>
    2d22:	05b00713          	li	a4,91
    2d26:	12e78063          	beq	a5,a4,2e46 <__ssvfiscanf_r+0x29e>
    2d2a:	02f76563          	bltu	a4,a5,2d54 <__ssvfiscanf_r+0x1ac>
    2d2e:	05800713          	li	a4,88
    2d32:	fce798e3          	bne	a5,a4,2d02 <__ssvfiscanf_r+0x15a>
    2d36:	11c12703          	lw	a4,284(sp)
    2d3a:	20076713          	ori	a4,a4,512
    2d3e:	10e12e23          	sw	a4,284(sp)
    2d42:	4741                	li	a4,16
    2d44:	12e12023          	sw	a4,288(sp)
    2d48:	06e00713          	li	a4,110
    2d4c:	00f737b3          	sltu	a5,a4,a5
    2d50:	078d                	addi	a5,a5,3
    2d52:	a83d                	j	2d90 <__ssvfiscanf_r+0x1e8>
    2d54:	06300713          	li	a4,99
    2d58:	10e78363          	beq	a5,a4,2e5e <__ssvfiscanf_r+0x2b6>
    2d5c:	06400713          	li	a4,100
    2d60:	fae791e3          	bne	a5,a4,2d02 <__ssvfiscanf_r+0x15a>
    2d64:	13212023          	sw	s2,288(sp)
    2d68:	b7c5                	j	2d48 <__ssvfiscanf_r+0x1a0>
    2d6a:	07000713          	li	a4,112
    2d6e:	0ce78063          	beq	a5,a4,2e2e <__ssvfiscanf_r+0x286>
    2d72:	06f76363          	bltu	a4,a5,2dd8 <__ssvfiscanf_r+0x230>
    2d76:	06e00713          	li	a4,110
    2d7a:	0ee78b63          	beq	a5,a4,2e70 <__ssvfiscanf_r+0x2c8>
    2d7e:	0af76f63          	bltu	a4,a5,2e3c <__ssvfiscanf_r+0x294>
    2d82:	06900713          	li	a4,105
    2d86:	f6e79ee3          	bne	a5,a4,2d02 <__ssvfiscanf_r+0x15a>
    2d8a:	12012023          	sw	zero,288(sp)
    2d8e:	478d                	li	a5,3
    2d90:	12f12a23          	sw	a5,308(sp)
    2d94:	405c                	lw	a5,4(s0)
    2d96:	10f05563          	blez	a5,2ea0 <__ssvfiscanf_r+0x2f8>
    2d9a:	11c12783          	lw	a5,284(sp)
    2d9e:	0407f793          	andi	a5,a5,64
    2da2:	eb91                	bnez	a5,2db6 <__ssvfiscanf_r+0x20e>
    2da4:	079000ef          	jal	ra,361c <__locale_ctype_ptr>
    2da8:	401c                	lw	a5,0(s0)
    2daa:	2398                	lbu	a4,0(a5)
    2dac:	953a                	add	a0,a0,a4
    2dae:	3118                	lbu	a4,1(a0)
    2db0:	8b21                	andi	a4,a4,8
    2db2:	0e071f63          	bnez	a4,2eb0 <__ssvfiscanf_r+0x308>
    2db6:	13412783          	lw	a5,308(sp)
    2dba:	4709                	li	a4,2
    2dbc:	10f74f63          	blt	a4,a5,2eda <__ssvfiscanf_r+0x332>
    2dc0:	0834                	addi	a3,sp,24
    2dc2:	8622                	mv	a2,s0
    2dc4:	0a6c                	addi	a1,sp,284
    2dc6:	8526                	mv	a0,s1
    2dc8:	2249                	jal	2f4a <_scanf_chars>
    2dca:	4785                	li	a5,1
    2dcc:	16f50c63          	beq	a0,a5,2f44 <__ssvfiscanf_r+0x39c>
    2dd0:	4789                	li	a5,2
    2dd2:	e8f516e3          	bne	a0,a5,2c5e <__ssvfiscanf_r+0xb6>
    2dd6:	a0b9                	j	2e24 <__ssvfiscanf_r+0x27c>
    2dd8:	07500713          	li	a4,117
    2ddc:	f8e784e3          	beq	a5,a4,2d64 <__ssvfiscanf_r+0x1bc>
    2de0:	07800713          	li	a4,120
    2de4:	f4e789e3          	beq	a5,a4,2d36 <__ssvfiscanf_r+0x18e>
    2de8:	07300713          	li	a4,115
    2dec:	f0e79be3          	bne	a5,a4,2d02 <__ssvfiscanf_r+0x15a>
    2df0:	4789                	li	a5,2
    2df2:	bf79                	j	2d90 <__ssvfiscanf_r+0x1e8>
    2df4:	405c                	lw	a5,4(s0)
    2df6:	02f05163          	blez	a5,2e18 <__ssvfiscanf_r+0x270>
    2dfa:	401c                	lw	a5,0(s0)
    2dfc:	2398                	lbu	a4,0(a5)
    2dfe:	15b71363          	bne	a4,s11,2f44 <__ssvfiscanf_r+0x39c>
    2e02:	0785                	addi	a5,a5,1
    2e04:	4058                	lw	a4,4(s0)
    2e06:	c01c                	sw	a5,0(s0)
    2e08:	12c12783          	lw	a5,300(sp)
    2e0c:	177d                	addi	a4,a4,-1
    2e0e:	c058                	sw	a4,4(s0)
    2e10:	0785                	addi	a5,a5,1
    2e12:	12f12623          	sw	a5,300(sp)
    2e16:	b5a1                	j	2c5e <__ssvfiscanf_r+0xb6>
    2e18:	29c12783          	lw	a5,668(sp)
    2e1c:	85a2                	mv	a1,s0
    2e1e:	8526                	mv	a0,s1
    2e20:	9782                	jalr	a5
    2e22:	dd61                	beqz	a0,2dfa <__ssvfiscanf_r+0x252>
    2e24:	12812503          	lw	a0,296(sp)
    2e28:	ed69                	bnez	a0,2f02 <__ssvfiscanf_r+0x35a>
    2e2a:	557d                	li	a0,-1
    2e2c:	a8f9                	j	2f0a <__ssvfiscanf_r+0x362>
    2e2e:	11c12703          	lw	a4,284(sp)
    2e32:	02076713          	ori	a4,a4,32
    2e36:	10e12e23          	sw	a4,284(sp)
    2e3a:	bdf5                	j	2d36 <__ssvfiscanf_r+0x18e>
    2e3c:	47a1                	li	a5,8
    2e3e:	12f12023          	sw	a5,288(sp)
    2e42:	4791                	li	a5,4
    2e44:	b7b1                	j	2d90 <__ssvfiscanf_r+0x1e8>
    2e46:	85e6                	mv	a1,s9
    2e48:	854e                	mv	a0,s3
    2e4a:	291d                	jal	3280 <__sccl>
    2e4c:	11c12783          	lw	a5,284(sp)
    2e50:	8caa                	mv	s9,a0
    2e52:	0407e793          	ori	a5,a5,64
    2e56:	10f12e23          	sw	a5,284(sp)
    2e5a:	4785                	li	a5,1
    2e5c:	bf15                	j	2d90 <__ssvfiscanf_r+0x1e8>
    2e5e:	11c12783          	lw	a5,284(sp)
    2e62:	12012a23          	sw	zero,308(sp)
    2e66:	0407e793          	ori	a5,a5,64
    2e6a:	10f12e23          	sw	a5,284(sp)
    2e6e:	b71d                	j	2d94 <__ssvfiscanf_r+0x1ec>
    2e70:	11c12783          	lw	a5,284(sp)
    2e74:	0107f713          	andi	a4,a5,16
    2e78:	de0713e3          	bnez	a4,2c5e <__ssvfiscanf_r+0xb6>
    2e7c:	4762                	lw	a4,24(sp)
    2e7e:	0017f593          	andi	a1,a5,1
    2e82:	12c12683          	lw	a3,300(sp)
    2e86:	00470613          	addi	a2,a4,4
    2e8a:	c589                	beqz	a1,2e94 <__ssvfiscanf_r+0x2ec>
    2e8c:	cc32                	sw	a2,24(sp)
    2e8e:	431c                	lw	a5,0(a4)
    2e90:	a396                	sh	a3,0(a5)
    2e92:	b3f1                	j	2c5e <__ssvfiscanf_r+0xb6>
    2e94:	cc32                	sw	a2,24(sp)
    2e96:	431c                	lw	a5,0(a4)
    2e98:	c394                	sw	a3,0(a5)
    2e9a:	b3d1                	j	2c5e <__ssvfiscanf_r+0xb6>
    2e9c:	4795                	li	a5,5
    2e9e:	bdcd                	j	2d90 <__ssvfiscanf_r+0x1e8>
    2ea0:	29c12783          	lw	a5,668(sp)
    2ea4:	85a2                	mv	a1,s0
    2ea6:	8526                	mv	a0,s1
    2ea8:	9782                	jalr	a5
    2eaa:	ee0508e3          	beqz	a0,2d9a <__ssvfiscanf_r+0x1f2>
    2eae:	bf9d                	j	2e24 <__ssvfiscanf_r+0x27c>
    2eb0:	12c12703          	lw	a4,300(sp)
    2eb4:	0705                	addi	a4,a4,1
    2eb6:	12e12623          	sw	a4,300(sp)
    2eba:	4058                	lw	a4,4(s0)
    2ebc:	177d                	addi	a4,a4,-1
    2ebe:	c058                	sw	a4,4(s0)
    2ec0:	00e05563          	blez	a4,2eca <__ssvfiscanf_r+0x322>
    2ec4:	0785                	addi	a5,a5,1
    2ec6:	c01c                	sw	a5,0(s0)
    2ec8:	bdf1                	j	2da4 <__ssvfiscanf_r+0x1fc>
    2eca:	29c12783          	lw	a5,668(sp)
    2ece:	85a2                	mv	a1,s0
    2ed0:	8526                	mv	a0,s1
    2ed2:	9782                	jalr	a5
    2ed4:	ec0508e3          	beqz	a0,2da4 <__ssvfiscanf_r+0x1fc>
    2ed8:	b7b1                	j	2e24 <__ssvfiscanf_r+0x27c>
    2eda:	4711                	li	a4,4
    2edc:	00f74863          	blt	a4,a5,2eec <__ssvfiscanf_r+0x344>
    2ee0:	0834                	addi	a3,sp,24
    2ee2:	8622                	mv	a2,s0
    2ee4:	0a6c                	addi	a1,sp,284
    2ee6:	8526                	mv	a0,s1
    2ee8:	2289                	jal	302a <_scanf_i>
    2eea:	b5c5                	j	2dca <__ssvfiscanf_r+0x222>
    2eec:	d60c09e3          	beqz	s8,2c5e <__ssvfiscanf_r+0xb6>
    2ef0:	0834                	addi	a3,sp,24
    2ef2:	8622                	mv	a2,s0
    2ef4:	0a6c                	addi	a1,sp,284
    2ef6:	8526                	mv	a0,s1
    2ef8:	00000097          	auipc	ra,0x0
    2efc:	000000e7          	jalr	zero # 0 <_sinit>
    2f00:	b5e9                	j	2dca <__ssvfiscanf_r+0x222>
    2f02:	245e                	lhu	a5,12(s0)
    2f04:	0407f793          	andi	a5,a5,64
    2f08:	f38d                	bnez	a5,2e2a <__ssvfiscanf_r+0x282>
    2f0a:	2dc12083          	lw	ra,732(sp)
    2f0e:	2d812403          	lw	s0,728(sp)
    2f12:	2d412483          	lw	s1,724(sp)
    2f16:	2d012903          	lw	s2,720(sp)
    2f1a:	2cc12983          	lw	s3,716(sp)
    2f1e:	2c812a03          	lw	s4,712(sp)
    2f22:	2c412a83          	lw	s5,708(sp)
    2f26:	2c012b03          	lw	s6,704(sp)
    2f2a:	2bc12b83          	lw	s7,700(sp)
    2f2e:	2b812c03          	lw	s8,696(sp)
    2f32:	2b412c83          	lw	s9,692(sp)
    2f36:	2b012d03          	lw	s10,688(sp)
    2f3a:	2ac12d83          	lw	s11,684(sp)
    2f3e:	2e010113          	addi	sp,sp,736
    2f42:	8082                	ret
    2f44:	12812503          	lw	a0,296(sp)
    2f48:	b7c9                	j	2f0a <__ssvfiscanf_r+0x362>

00002f4a <_scanf_chars>:
    2f4a:	459c                	lw	a5,8(a1)
    2f4c:	1101                	addi	sp,sp,-32
    2f4e:	cc22                	sw	s0,24(sp)
    2f50:	ca26                	sw	s1,20(sp)
    2f52:	c452                	sw	s4,8(sp)
    2f54:	ce06                	sw	ra,28(sp)
    2f56:	c84a                	sw	s2,16(sp)
    2f58:	c64e                	sw	s3,12(sp)
    2f5a:	c256                	sw	s5,4(sp)
    2f5c:	c05a                	sw	s6,0(sp)
    2f5e:	8a2a                	mv	s4,a0
    2f60:	842e                	mv	s0,a1
    2f62:	84b2                	mv	s1,a2
    2f64:	e791                	bnez	a5,2f70 <_scanf_chars+0x26>
    2f66:	4d98                	lw	a4,24(a1)
    2f68:	4785                	li	a5,1
    2f6a:	c311                	beqz	a4,2f6e <_scanf_chars+0x24>
    2f6c:	57fd                	li	a5,-1
    2f6e:	c41c                	sw	a5,8(s0)
    2f70:	401c                	lw	a5,0(s0)
    2f72:	8bc1                	andi	a5,a5,16
    2f74:	e799                	bnez	a5,2f82 <_scanf_chars+0x38>
    2f76:	429c                	lw	a5,0(a3)
    2f78:	00478713          	addi	a4,a5,4
    2f7c:	c298                	sw	a4,0(a3)
    2f7e:	0007a983          	lw	s3,0(a5)
    2f82:	4901                	li	s2,0
    2f84:	4a85                	li	s5,1
    2f86:	4b09                	li	s6,2
    2f88:	4c08                	lw	a0,24(s0)
    2f8a:	c50d                	beqz	a0,2fb4 <_scanf_chars+0x6a>
    2f8c:	07551f63          	bne	a0,s5,300a <_scanf_chars+0xc0>
    2f90:	409c                	lw	a5,0(s1)
    2f92:	2398                	lbu	a4,0(a5)
    2f94:	485c                	lw	a5,20(s0)
    2f96:	97ba                	add	a5,a5,a4
    2f98:	239c                	lbu	a5,0(a5)
    2f9a:	ef89                	bnez	a5,2fb4 <_scanf_chars+0x6a>
    2f9c:	04091763          	bnez	s2,2fea <_scanf_chars+0xa0>
    2fa0:	40f2                	lw	ra,28(sp)
    2fa2:	4462                	lw	s0,24(sp)
    2fa4:	44d2                	lw	s1,20(sp)
    2fa6:	4942                	lw	s2,16(sp)
    2fa8:	49b2                	lw	s3,12(sp)
    2faa:	4a22                	lw	s4,8(sp)
    2fac:	4a92                	lw	s5,4(sp)
    2fae:	4b02                	lw	s6,0(sp)
    2fb0:	6105                	addi	sp,sp,32
    2fb2:	8082                	ret
    2fb4:	401c                	lw	a5,0(s0)
    2fb6:	0905                	addi	s2,s2,1
    2fb8:	8bc1                	andi	a5,a5,16
    2fba:	e791                	bnez	a5,2fc6 <_scanf_chars+0x7c>
    2fbc:	409c                	lw	a5,0(s1)
    2fbe:	0985                	addi	s3,s3,1
    2fc0:	239c                	lbu	a5,0(a5)
    2fc2:	fef98fa3          	sb	a5,-1(s3)
    2fc6:	4098                	lw	a4,0(s1)
    2fc8:	40dc                	lw	a5,4(s1)
    2fca:	0705                	addi	a4,a4,1
    2fcc:	c098                	sw	a4,0(s1)
    2fce:	4418                	lw	a4,8(s0)
    2fd0:	17fd                	addi	a5,a5,-1
    2fd2:	c0dc                	sw	a5,4(s1)
    2fd4:	177d                	addi	a4,a4,-1
    2fd6:	c418                	sw	a4,8(s0)
    2fd8:	cb09                	beqz	a4,2fea <_scanf_chars+0xa0>
    2fda:	faf047e3          	bgtz	a5,2f88 <_scanf_chars+0x3e>
    2fde:	18042783          	lw	a5,384(s0)
    2fe2:	85a6                	mv	a1,s1
    2fe4:	8552                	mv	a0,s4
    2fe6:	9782                	jalr	a5
    2fe8:	d145                	beqz	a0,2f88 <_scanf_chars+0x3e>
    2fea:	401c                	lw	a5,0(s0)
    2fec:	8bc1                	andi	a5,a5,16
    2fee:	eb81                	bnez	a5,2ffe <_scanf_chars+0xb4>
    2ff0:	445c                	lw	a5,12(s0)
    2ff2:	0785                	addi	a5,a5,1
    2ff4:	c45c                	sw	a5,12(s0)
    2ff6:	4c1c                	lw	a5,24(s0)
    2ff8:	c399                	beqz	a5,2ffe <_scanf_chars+0xb4>
    2ffa:	00098023          	sb	zero,0(s3)
    2ffe:	481c                	lw	a5,16(s0)
    3000:	4501                	li	a0,0
    3002:	993e                	add	s2,s2,a5
    3004:	01242823          	sw	s2,16(s0)
    3008:	bf61                	j	2fa0 <_scanf_chars+0x56>
    300a:	01651963          	bne	a0,s6,301c <_scanf_chars+0xd2>
    300e:	2539                	jal	361c <__locale_ctype_ptr>
    3010:	409c                	lw	a5,0(s1)
    3012:	239c                	lbu	a5,0(a5)
    3014:	953e                	add	a0,a0,a5
    3016:	311c                	lbu	a5,1(a0)
    3018:	8ba1                	andi	a5,a5,8
    301a:	dfc9                	beqz	a5,2fb4 <_scanf_chars+0x6a>
    301c:	fc0917e3          	bnez	s2,2fea <_scanf_chars+0xa0>
    3020:	4c08                	lw	a0,24(s0)
    3022:	4785                	li	a5,1
    3024:	fcf513e3          	bne	a0,a5,2fea <_scanf_chars+0xa0>
    3028:	bfa5                	j	2fa0 <_scanf_chars+0x56>

0000302a <_scanf_i>:
    302a:	715d                	addi	sp,sp,-80
    302c:	00013797          	auipc	a5,0x13
    3030:	cf878793          	addi	a5,a5,-776 # 15d24 <tfont16+0x414>
    3034:	c0ca                	sw	s2,64(sp)
    3036:	c23e                	sw	a5,4(sp)
    3038:	8936                	mv	s2,a3
    303a:	00013797          	auipc	a5,0x13
    303e:	cee78793          	addi	a5,a5,-786 # 15d28 <tfont16+0x418>
    3042:	4d94                	lw	a3,24(a1)
    3044:	c43e                	sw	a5,8(sp)
    3046:	00013797          	auipc	a5,0x13
    304a:	ce678793          	addi	a5,a5,-794 # 15d2c <tfont16+0x41c>
    304e:	c4a2                	sw	s0,72(sp)
    3050:	de4e                	sw	s3,60(sp)
    3052:	d85a                	sw	s6,48(sp)
    3054:	ce6e                	sw	s11,28(sp)
    3056:	c63e                	sw	a5,12(sp)
    3058:	c686                	sw	ra,76(sp)
    305a:	c2a6                	sw	s1,68(sp)
    305c:	dc52                	sw	s4,56(sp)
    305e:	da56                	sw	s5,52(sp)
    3060:	d65e                	sw	s7,44(sp)
    3062:	d462                	sw	s8,40(sp)
    3064:	d266                	sw	s9,36(sp)
    3066:	d06a                	sw	s10,32(sp)
    3068:	478d                	li	a5,3
    306a:	89aa                	mv	s3,a0
    306c:	842e                	mv	s0,a1
    306e:	8db2                	mv	s11,a2
    3070:	00000b17          	auipc	s6,0x0
    3074:	50eb0b13          	addi	s6,s6,1294 # 357e <_strtoul_r>
    3078:	00f69663          	bne	a3,a5,3084 <_scanf_i+0x5a>
    307c:	00000b17          	auipc	s6,0x0
    3080:	3beb0b13          	addi	s6,s6,958 # 343a <_strtol_r>
    3084:	441c                	lw	a5,8(s0)
    3086:	15c00693          	li	a3,348
    308a:	4a01                	li	s4,0
    308c:	fff78613          	addi	a2,a5,-1
    3090:	00c6f763          	bgeu	a3,a2,309e <_scanf_i+0x74>
    3094:	ea378a13          	addi	s4,a5,-349
    3098:	15d00793          	li	a5,349
    309c:	c41c                	sw	a5,8(s0)
    309e:	401c                	lw	a5,0(s0)
    30a0:	6685                	lui	a3,0x1
    30a2:	d0068693          	addi	a3,a3,-768 # d00 <SystemInit+0xde>
    30a6:	01c40493          	addi	s1,s0,28
    30aa:	8fd5                	or	a5,a5,a3
    30ac:	c01c                	sw	a5,0(s0)
    30ae:	00410c13          	addi	s8,sp,4
    30b2:	8aa6                	mv	s5,s1
    30b4:	4b81                	li	s7,0
    30b6:	20000c93          	li	s9,512
    30ba:	000da783          	lw	a5,0(s11)
    30be:	000c2503          	lw	a0,0(s8)
    30c2:	4609                	li	a2,2
    30c4:	238c                	lbu	a1,0(a5)
    30c6:	2345                	jal	3666 <memchr>
    30c8:	cd39                	beqz	a0,3126 <_scanf_i+0xfc>
    30ca:	4785                	li	a5,1
    30cc:	0cfb9e63          	bne	s7,a5,31a8 <_scanf_i+0x17e>
    30d0:	405c                	lw	a5,4(s0)
    30d2:	e799                	bnez	a5,30e0 <_scanf_i+0xb6>
    30d4:	401c                	lw	a5,0(s0)
    30d6:	4721                	li	a4,8
    30d8:	c058                	sw	a4,4(s0)
    30da:	2007e793          	ori	a5,a5,512
    30de:	c01c                	sw	a5,0(s0)
    30e0:	401c                	lw	a5,0(s0)
    30e2:	aff7f793          	andi	a5,a5,-1281
    30e6:	c01c                	sw	a5,0(s0)
    30e8:	441c                	lw	a5,8(s0)
    30ea:	fff78613          	addi	a2,a5,-1
    30ee:	c410                	sw	a2,8(s0)
    30f0:	cb9d                	beqz	a5,3126 <_scanf_i+0xfc>
    30f2:	000da603          	lw	a2,0(s11)
    30f6:	001a8d13          	addi	s10,s5,1
    30fa:	00160793          	addi	a5,a2,1
    30fe:	00fda023          	sw	a5,0(s11)
    3102:	2210                	lbu	a2,0(a2)
    3104:	00ca8023          	sb	a2,0(s5)
    3108:	004da603          	lw	a2,4(s11)
    310c:	8aea                	mv	s5,s10
    310e:	167d                	addi	a2,a2,-1
    3110:	00cda223          	sw	a2,4(s11)
    3114:	00c04963          	bgtz	a2,3126 <_scanf_i+0xfc>
    3118:	18042603          	lw	a2,384(s0)
    311c:	85ee                	mv	a1,s11
    311e:	854e                	mv	a0,s3
    3120:	9602                	jalr	a2
    3122:	10051863          	bnez	a0,3232 <_scanf_i+0x208>
    3126:	0b85                	addi	s7,s7,1
    3128:	478d                	li	a5,3
    312a:	0c11                	addi	s8,s8,4
    312c:	f8fb97e3          	bne	s7,a5,30ba <_scanf_i+0x90>
    3130:	405c                	lw	a5,4(s0)
    3132:	e399                	bnez	a5,3138 <_scanf_i+0x10e>
    3134:	47a9                	li	a5,10
    3136:	c05c                	sw	a5,4(s0)
    3138:	405c                	lw	a5,4(s0)
    313a:	4848                	lw	a0,20(s0)
    313c:	00013597          	auipc	a1,0x13
    3140:	be458593          	addi	a1,a1,-1052 # 15d20 <tfont16+0x410>
    3144:	8d9d                	sub	a1,a1,a5
    3146:	7bfd                	lui	s7,0xfffff
    3148:	6c05                	lui	s8,0x1
    314a:	8d56                	mv	s10,s5
    314c:	2a15                	jal	3280 <__sccl>
    314e:	4a81                	li	s5,0
    3150:	03000c93          	li	s9,48
    3154:	6ffb8b93          	addi	s7,s7,1791 # fffff6ff <_eusrstack+0xdfff76ff>
    3158:	800c0c13          	addi	s8,s8,-2048 # 800 <__stack_size>
    315c:	4414                	lw	a3,8(s0)
    315e:	4010                	lw	a2,0(s0)
    3160:	cebd                	beqz	a3,31de <_scanf_i+0x1b4>
    3162:	000da503          	lw	a0,0(s11)
    3166:	484c                	lw	a1,20(s0)
    3168:	00054803          	lbu	a6,0(a0)
    316c:	95c2                	add	a1,a1,a6
    316e:	218c                	lbu	a1,0(a1)
    3170:	c5bd                	beqz	a1,31de <_scanf_i+0x1b4>
    3172:	05981863          	bne	a6,s9,31c2 <_scanf_i+0x198>
    3176:	018675b3          	and	a1,a2,s8
    317a:	c5a1                	beqz	a1,31c2 <_scanf_i+0x198>
    317c:	0a85                	addi	s5,s5,1
    317e:	000a0563          	beqz	s4,3188 <_scanf_i+0x15e>
    3182:	0685                	addi	a3,a3,1
    3184:	1a7d                	addi	s4,s4,-1
    3186:	c414                	sw	a3,8(s0)
    3188:	004da683          	lw	a3,4(s11)
    318c:	16fd                	addi	a3,a3,-1
    318e:	00dda223          	sw	a3,4(s11)
    3192:	04d05063          	blez	a3,31d2 <_scanf_i+0x1a8>
    3196:	000da683          	lw	a3,0(s11)
    319a:	0685                	addi	a3,a3,1
    319c:	00dda023          	sw	a3,0(s11)
    31a0:	4414                	lw	a3,8(s0)
    31a2:	16fd                	addi	a3,a3,-1
    31a4:	c414                	sw	a3,8(s0)
    31a6:	bf5d                	j	315c <_scanf_i+0x132>
    31a8:	4789                	li	a5,2
    31aa:	f2fb9fe3          	bne	s7,a5,30e8 <_scanf_i+0xbe>
    31ae:	401c                	lw	a5,0(s0)
    31b0:	6007f613          	andi	a2,a5,1536
    31b4:	f79619e3          	bne	a2,s9,3126 <_scanf_i+0xfc>
    31b8:	4741                	li	a4,16
    31ba:	c058                	sw	a4,4(s0)
    31bc:	1007e793          	ori	a5,a5,256
    31c0:	b71d                	j	30e6 <_scanf_i+0xbc>
    31c2:	01767633          	and	a2,a2,s7
    31c6:	c010                	sw	a2,0(s0)
    31c8:	2114                	lbu	a3,0(a0)
    31ca:	0d05                	addi	s10,s10,1
    31cc:	fedd0fa3          	sb	a3,-1(s10)
    31d0:	bf65                	j	3188 <_scanf_i+0x15e>
    31d2:	18042683          	lw	a3,384(s0)
    31d6:	85ee                	mv	a1,s11
    31d8:	854e                	mv	a0,s3
    31da:	9682                	jalr	a3
    31dc:	d171                	beqz	a0,31a0 <_scanf_i+0x176>
    31de:	4014                	lw	a3,0(s0)
    31e0:	1006f693          	andi	a3,a3,256
    31e4:	c285                	beqz	a3,3204 <_scanf_i+0x1da>
    31e6:	01a4fc63          	bgeu	s1,s10,31fe <_scanf_i+0x1d4>
    31ea:	fffd4583          	lbu	a1,-1(s10)
    31ee:	17c42683          	lw	a3,380(s0)
    31f2:	fffd0a13          	addi	s4,s10,-1
    31f6:	866e                	mv	a2,s11
    31f8:	854e                	mv	a0,s3
    31fa:	9682                	jalr	a3
    31fc:	8d52                	mv	s10,s4
    31fe:	4505                	li	a0,1
    3200:	049d0e63          	beq	s10,s1,325c <_scanf_i+0x232>
    3204:	4018                	lw	a4,0(s0)
    3206:	8b41                	andi	a4,a4,16
    3208:	e339                	bnez	a4,324e <_scanf_i+0x224>
    320a:	000d0023          	sb	zero,0(s10)
    320e:	4054                	lw	a3,4(s0)
    3210:	4601                	li	a2,0
    3212:	85a6                	mv	a1,s1
    3214:	854e                	mv	a0,s3
    3216:	9b02                	jalr	s6
    3218:	4014                	lw	a3,0(s0)
    321a:	00092703          	lw	a4,0(s2)
    321e:	0206f613          	andi	a2,a3,32
    3222:	ca11                	beqz	a2,3236 <_scanf_i+0x20c>
    3224:	00470693          	addi	a3,a4,4
    3228:	00d92023          	sw	a3,0(s2)
    322c:	4318                	lw	a4,0(a4)
    322e:	c308                	sw	a0,0(a4)
    3230:	a821                	j	3248 <_scanf_i+0x21e>
    3232:	4a81                	li	s5,0
    3234:	b76d                	j	31de <_scanf_i+0x1b4>
    3236:	0016f593          	andi	a1,a3,1
    323a:	00470613          	addi	a2,a4,4
    323e:	cd95                	beqz	a1,327a <_scanf_i+0x250>
    3240:	00c92023          	sw	a2,0(s2)
    3244:	4318                	lw	a4,0(a4)
    3246:	a30a                	sh	a0,0(a4)
    3248:	4458                	lw	a4,12(s0)
    324a:	0705                	addi	a4,a4,1
    324c:	c458                	sw	a4,12(s0)
    324e:	481c                	lw	a5,16(s0)
    3250:	409d04b3          	sub	s1,s10,s1
    3254:	94d6                	add	s1,s1,s5
    3256:	94be                	add	s1,s1,a5
    3258:	c804                	sw	s1,16(s0)
    325a:	4501                	li	a0,0
    325c:	40b6                	lw	ra,76(sp)
    325e:	4426                	lw	s0,72(sp)
    3260:	4496                	lw	s1,68(sp)
    3262:	4906                	lw	s2,64(sp)
    3264:	59f2                	lw	s3,60(sp)
    3266:	5a62                	lw	s4,56(sp)
    3268:	5ad2                	lw	s5,52(sp)
    326a:	5b42                	lw	s6,48(sp)
    326c:	5bb2                	lw	s7,44(sp)
    326e:	5c22                	lw	s8,40(sp)
    3270:	5c92                	lw	s9,36(sp)
    3272:	5d02                	lw	s10,32(sp)
    3274:	4df2                	lw	s11,28(sp)
    3276:	6161                	addi	sp,sp,80
    3278:	8082                	ret
    327a:	00c92023          	sw	a2,0(s2)
    327e:	b77d                	j	322c <_scanf_i+0x202>

00003280 <__sccl>:
    3280:	219c                	lbu	a5,0(a1)
    3282:	05e00713          	li	a4,94
    3286:	04e78663          	beq	a5,a4,32d2 <__sccl+0x52>
    328a:	00158713          	addi	a4,a1,1
    328e:	4681                	li	a3,0
    3290:	4601                	li	a2,0
    3292:	10000593          	li	a1,256
    3296:	00c50833          	add	a6,a0,a2
    329a:	00d80023          	sb	a3,0(a6)
    329e:	0605                	addi	a2,a2,1
    32a0:	feb61be3          	bne	a2,a1,3296 <__sccl+0x16>
    32a4:	fff70613          	addi	a2,a4,-1
    32a8:	c39d                	beqz	a5,32ce <__sccl+0x4e>
    32aa:	0016c693          	xori	a3,a3,1
    32ae:	02d00893          	li	a7,45
    32b2:	05d00813          	li	a6,93
    32b6:	00f50633          	add	a2,a0,a5
    32ba:	a214                	sb	a3,0(a2)
    32bc:	230c                	lbu	a1,0(a4)
    32be:	00170613          	addi	a2,a4,1
    32c2:	03158363          	beq	a1,a7,32e8 <__sccl+0x68>
    32c6:	01058463          	beq	a1,a6,32ce <__sccl+0x4e>
    32ca:	e989                	bnez	a1,32dc <__sccl+0x5c>
    32cc:	863a                	mv	a2,a4
    32ce:	8532                	mv	a0,a2
    32d0:	8082                	ret
    32d2:	00258713          	addi	a4,a1,2
    32d6:	319c                	lbu	a5,1(a1)
    32d8:	4685                	li	a3,1
    32da:	bf5d                	j	3290 <__sccl+0x10>
    32dc:	87ae                	mv	a5,a1
    32de:	8732                	mv	a4,a2
    32e0:	bfd9                	j	32b6 <__sccl+0x36>
    32e2:	02d00793          	li	a5,45
    32e6:	bfe5                	j	32de <__sccl+0x5e>
    32e8:	330c                	lbu	a1,1(a4)
    32ea:	ff058ce3          	beq	a1,a6,32e2 <__sccl+0x62>
    32ee:	fef5cae3          	blt	a1,a5,32e2 <__sccl+0x62>
    32f2:	0709                	addi	a4,a4,2
    32f4:	0785                	addi	a5,a5,1
    32f6:	00f50633          	add	a2,a0,a5
    32fa:	a214                	sb	a3,0(a2)
    32fc:	feb7cce3          	blt	a5,a1,32f4 <__sccl+0x74>
    3300:	bf75                	j	32bc <__sccl+0x3c>

00003302 <_strtol_l.isra.0>:
    3302:	7179                	addi	sp,sp,-48
    3304:	d04a                	sw	s2,32(sp)
    3306:	ce4e                	sw	s3,28(sp)
    3308:	d606                	sw	ra,44(sp)
    330a:	d422                	sw	s0,40(sp)
    330c:	d226                	sw	s1,36(sp)
    330e:	89aa                	mv	s3,a0
    3310:	892e                	mv	s2,a1
    3312:	00190493          	addi	s1,s2,1
    3316:	fff4c403          	lbu	s0,-1(s1)
    331a:	853a                	mv	a0,a4
    331c:	c636                	sw	a3,12(sp)
    331e:	c432                	sw	a2,8(sp)
    3320:	c22e                	sw	a1,4(sp)
    3322:	c03a                	sw	a4,0(sp)
    3324:	2ccd                	jal	3616 <__locale_ctype_ptr_l>
    3326:	9522                	add	a0,a0,s0
    3328:	311c                	lbu	a5,1(a0)
    332a:	4702                	lw	a4,0(sp)
    332c:	4592                	lw	a1,4(sp)
    332e:	8ba1                	andi	a5,a5,8
    3330:	4622                	lw	a2,8(sp)
    3332:	46b2                	lw	a3,12(sp)
    3334:	e3d1                	bnez	a5,33b8 <_strtol_l.isra.0+0xb6>
    3336:	02d00793          	li	a5,45
    333a:	08f41163          	bne	s0,a5,33bc <_strtol_l.isra.0+0xba>
    333e:	209c                	lbu	a5,0(s1)
    3340:	4305                	li	t1,1
    3342:	00290493          	addi	s1,s2,2
    3346:	c6e5                	beqz	a3,342e <_strtol_l.isra.0+0x12c>
    3348:	4741                	li	a4,16
    334a:	02e69063          	bne	a3,a4,336a <_strtol_l.isra.0+0x68>
    334e:	03000713          	li	a4,48
    3352:	00e79c63          	bne	a5,a4,336a <_strtol_l.isra.0+0x68>
    3356:	209c                	lbu	a5,0(s1)
    3358:	05800713          	li	a4,88
    335c:	0df7f793          	andi	a5,a5,223
    3360:	0ce79263          	bne	a5,a4,3424 <_strtol_l.isra.0+0x122>
    3364:	309c                	lbu	a5,1(s1)
    3366:	46c1                	li	a3,16
    3368:	0489                	addi	s1,s1,2
    336a:	800008b7          	lui	a7,0x80000
    336e:	00031463          	bnez	t1,3376 <_strtol_l.isra.0+0x74>
    3372:	fff8c893          	not	a7,a7
    3376:	02d8ff33          	remu	t5,a7,a3
    337a:	4801                	li	a6,0
    337c:	4501                	li	a0,0
    337e:	4fa5                	li	t6,9
    3380:	4ee5                	li	t4,25
    3382:	52fd                	li	t0,-1
    3384:	02d8de33          	divu	t3,a7,a3
    3388:	fd078713          	addi	a4,a5,-48
    338c:	04efe363          	bltu	t6,a4,33d2 <_strtol_l.isra.0+0xd0>
    3390:	87ba                	mv	a5,a4
    3392:	04d7de63          	bge	a5,a3,33ee <_strtol_l.isra.0+0xec>
    3396:	00580d63          	beq	a6,t0,33b0 <_strtol_l.isra.0+0xae>
    339a:	587d                	li	a6,-1
    339c:	00ae6a63          	bltu	t3,a0,33b0 <_strtol_l.isra.0+0xae>
    33a0:	00ae1463          	bne	t3,a0,33a8 <_strtol_l.isra.0+0xa6>
    33a4:	00ff4663          	blt	t5,a5,33b0 <_strtol_l.isra.0+0xae>
    33a8:	4805                	li	a6,1
    33aa:	02a68533          	mul	a0,a3,a0
    33ae:	953e                	add	a0,a0,a5
    33b0:	0485                	addi	s1,s1,1
    33b2:	fff4c783          	lbu	a5,-1(s1)
    33b6:	bfc9                	j	3388 <_strtol_l.isra.0+0x86>
    33b8:	8926                	mv	s2,s1
    33ba:	bfa1                	j	3312 <_strtol_l.isra.0+0x10>
    33bc:	02b00793          	li	a5,43
    33c0:	00f40563          	beq	s0,a5,33ca <_strtol_l.isra.0+0xc8>
    33c4:	87a2                	mv	a5,s0
    33c6:	4301                	li	t1,0
    33c8:	bfbd                	j	3346 <_strtol_l.isra.0+0x44>
    33ca:	209c                	lbu	a5,0(s1)
    33cc:	00290493          	addi	s1,s2,2
    33d0:	bfdd                	j	33c6 <_strtol_l.isra.0+0xc4>
    33d2:	fbf78713          	addi	a4,a5,-65
    33d6:	00eee563          	bltu	t4,a4,33e0 <_strtol_l.isra.0+0xde>
    33da:	fc978793          	addi	a5,a5,-55
    33de:	bf55                	j	3392 <_strtol_l.isra.0+0x90>
    33e0:	f9f78713          	addi	a4,a5,-97
    33e4:	00eee563          	bltu	t4,a4,33ee <_strtol_l.isra.0+0xec>
    33e8:	fa978793          	addi	a5,a5,-87
    33ec:	b75d                	j	3392 <_strtol_l.isra.0+0x90>
    33ee:	57fd                	li	a5,-1
    33f0:	00f81f63          	bne	a6,a5,340e <_strtol_l.isra.0+0x10c>
    33f4:	02200793          	li	a5,34
    33f8:	00f9a023          	sw	a5,0(s3)
    33fc:	8546                	mv	a0,a7
    33fe:	ee19                	bnez	a2,341c <_strtol_l.isra.0+0x11a>
    3400:	50b2                	lw	ra,44(sp)
    3402:	5422                	lw	s0,40(sp)
    3404:	5492                	lw	s1,36(sp)
    3406:	5902                	lw	s2,32(sp)
    3408:	49f2                	lw	s3,28(sp)
    340a:	6145                	addi	sp,sp,48
    340c:	8082                	ret
    340e:	00030463          	beqz	t1,3416 <_strtol_l.isra.0+0x114>
    3412:	40a00533          	neg	a0,a0
    3416:	d66d                	beqz	a2,3400 <_strtol_l.isra.0+0xfe>
    3418:	00080463          	beqz	a6,3420 <_strtol_l.isra.0+0x11e>
    341c:	fff48593          	addi	a1,s1,-1
    3420:	c20c                	sw	a1,0(a2)
    3422:	bff9                	j	3400 <_strtol_l.isra.0+0xfe>
    3424:	03000793          	li	a5,48
    3428:	f2a9                	bnez	a3,336a <_strtol_l.isra.0+0x68>
    342a:	46a1                	li	a3,8
    342c:	bf3d                	j	336a <_strtol_l.isra.0+0x68>
    342e:	03000713          	li	a4,48
    3432:	f2e782e3          	beq	a5,a4,3356 <_strtol_l.isra.0+0x54>
    3436:	46a9                	li	a3,10
    3438:	bf0d                	j	336a <_strtol_l.isra.0+0x68>

0000343a <_strtol_r>:
    343a:	82818793          	addi	a5,gp,-2008 # 20000438 <_impure_ptr>
    343e:	439c                	lw	a5,0(a5)
    3440:	5398                	lw	a4,32(a5)
    3442:	e709                	bnez	a4,344c <_strtol_r+0x12>
    3444:	1fffd717          	auipc	a4,0x1fffd
    3448:	e6070713          	addi	a4,a4,-416 # 200002a4 <__global_locale>
    344c:	eb7ff06f          	j	3302 <_strtol_l.isra.0>

00003450 <_strtoul_l.isra.0>:
    3450:	7179                	addi	sp,sp,-48
    3452:	d04a                	sw	s2,32(sp)
    3454:	ce4e                	sw	s3,28(sp)
    3456:	d606                	sw	ra,44(sp)
    3458:	d422                	sw	s0,40(sp)
    345a:	d226                	sw	s1,36(sp)
    345c:	89aa                	mv	s3,a0
    345e:	892e                	mv	s2,a1
    3460:	00190493          	addi	s1,s2,1
    3464:	fff4c403          	lbu	s0,-1(s1)
    3468:	853a                	mv	a0,a4
    346a:	c636                	sw	a3,12(sp)
    346c:	c432                	sw	a2,8(sp)
    346e:	c22e                	sw	a1,4(sp)
    3470:	c03a                	sw	a4,0(sp)
    3472:	2255                	jal	3616 <__locale_ctype_ptr_l>
    3474:	9522                	add	a0,a0,s0
    3476:	311c                	lbu	a5,1(a0)
    3478:	4702                	lw	a4,0(sp)
    347a:	4592                	lw	a1,4(sp)
    347c:	8ba1                	andi	a5,a5,8
    347e:	4622                	lw	a2,8(sp)
    3480:	46b2                	lw	a3,12(sp)
    3482:	efa5                	bnez	a5,34fa <_strtoul_l.isra.0+0xaa>
    3484:	02d00793          	li	a5,45
    3488:	06f41b63          	bne	s0,a5,34fe <_strtoul_l.isra.0+0xae>
    348c:	209c                	lbu	a5,0(s1)
    348e:	4305                	li	t1,1
    3490:	00290493          	addi	s1,s2,2
    3494:	cef9                	beqz	a3,3572 <_strtoul_l.isra.0+0x122>
    3496:	4741                	li	a4,16
    3498:	02e69063          	bne	a3,a4,34b8 <_strtoul_l.isra.0+0x68>
    349c:	03000713          	li	a4,48
    34a0:	00e79c63          	bne	a5,a4,34b8 <_strtoul_l.isra.0+0x68>
    34a4:	209c                	lbu	a5,0(s1)
    34a6:	05800713          	li	a4,88
    34aa:	0df7f793          	andi	a5,a5,223
    34ae:	0ae79d63          	bne	a5,a4,3568 <_strtoul_l.isra.0+0x118>
    34b2:	309c                	lbu	a5,1(s1)
    34b4:	46c1                	li	a3,16
    34b6:	0489                	addi	s1,s1,2
    34b8:	577d                	li	a4,-1
    34ba:	02d75e33          	divu	t3,a4,a3
    34be:	4801                	li	a6,0
    34c0:	4501                	li	a0,0
    34c2:	4f25                	li	t5,9
    34c4:	4ee5                	li	t4,25
    34c6:	02d778b3          	remu	a7,a4,a3
    34ca:	fd078713          	addi	a4,a5,-48
    34ce:	04ef6363          	bltu	t5,a4,3514 <_strtoul_l.isra.0+0xc4>
    34d2:	87ba                	mv	a5,a4
    34d4:	06d7d063          	bge	a5,a3,3534 <_strtoul_l.isra.0+0xe4>
    34d8:	04084c63          	bltz	a6,3530 <_strtoul_l.isra.0+0xe0>
    34dc:	587d                	li	a6,-1
    34de:	00ae6a63          	bltu	t3,a0,34f2 <_strtoul_l.isra.0+0xa2>
    34e2:	00ae1463          	bne	t3,a0,34ea <_strtoul_l.isra.0+0x9a>
    34e6:	00f8c663          	blt	a7,a5,34f2 <_strtoul_l.isra.0+0xa2>
    34ea:	4805                	li	a6,1
    34ec:	02a68533          	mul	a0,a3,a0
    34f0:	953e                	add	a0,a0,a5
    34f2:	0485                	addi	s1,s1,1
    34f4:	fff4c783          	lbu	a5,-1(s1)
    34f8:	bfc9                	j	34ca <_strtoul_l.isra.0+0x7a>
    34fa:	8926                	mv	s2,s1
    34fc:	b795                	j	3460 <_strtoul_l.isra.0+0x10>
    34fe:	02b00793          	li	a5,43
    3502:	00f40563          	beq	s0,a5,350c <_strtoul_l.isra.0+0xbc>
    3506:	87a2                	mv	a5,s0
    3508:	4301                	li	t1,0
    350a:	b769                	j	3494 <_strtoul_l.isra.0+0x44>
    350c:	209c                	lbu	a5,0(s1)
    350e:	00290493          	addi	s1,s2,2
    3512:	bfdd                	j	3508 <_strtoul_l.isra.0+0xb8>
    3514:	fbf78713          	addi	a4,a5,-65
    3518:	00eee563          	bltu	t4,a4,3522 <_strtoul_l.isra.0+0xd2>
    351c:	fc978793          	addi	a5,a5,-55
    3520:	bf55                	j	34d4 <_strtoul_l.isra.0+0x84>
    3522:	f9f78713          	addi	a4,a5,-97
    3526:	00eee763          	bltu	t4,a4,3534 <_strtoul_l.isra.0+0xe4>
    352a:	fa978793          	addi	a5,a5,-87
    352e:	b75d                	j	34d4 <_strtoul_l.isra.0+0x84>
    3530:	587d                	li	a6,-1
    3532:	b7c1                	j	34f2 <_strtoul_l.isra.0+0xa2>
    3534:	00085f63          	bgez	a6,3552 <_strtoul_l.isra.0+0x102>
    3538:	02200793          	li	a5,34
    353c:	00f9a023          	sw	a5,0(s3)
    3540:	557d                	li	a0,-1
    3542:	ee19                	bnez	a2,3560 <_strtoul_l.isra.0+0x110>
    3544:	50b2                	lw	ra,44(sp)
    3546:	5422                	lw	s0,40(sp)
    3548:	5492                	lw	s1,36(sp)
    354a:	5902                	lw	s2,32(sp)
    354c:	49f2                	lw	s3,28(sp)
    354e:	6145                	addi	sp,sp,48
    3550:	8082                	ret
    3552:	00030463          	beqz	t1,355a <_strtoul_l.isra.0+0x10a>
    3556:	40a00533          	neg	a0,a0
    355a:	d66d                	beqz	a2,3544 <_strtoul_l.isra.0+0xf4>
    355c:	00080463          	beqz	a6,3564 <_strtoul_l.isra.0+0x114>
    3560:	fff48593          	addi	a1,s1,-1
    3564:	c20c                	sw	a1,0(a2)
    3566:	bff9                	j	3544 <_strtoul_l.isra.0+0xf4>
    3568:	03000793          	li	a5,48
    356c:	f6b1                	bnez	a3,34b8 <_strtoul_l.isra.0+0x68>
    356e:	46a1                	li	a3,8
    3570:	b7a1                	j	34b8 <_strtoul_l.isra.0+0x68>
    3572:	03000713          	li	a4,48
    3576:	f2e787e3          	beq	a5,a4,34a4 <_strtoul_l.isra.0+0x54>
    357a:	46a9                	li	a3,10
    357c:	bf35                	j	34b8 <_strtoul_l.isra.0+0x68>

0000357e <_strtoul_r>:
    357e:	82818793          	addi	a5,gp,-2008 # 20000438 <_impure_ptr>
    3582:	439c                	lw	a5,0(a5)
    3584:	5398                	lw	a4,32(a5)
    3586:	e709                	bnez	a4,3590 <_strtoul_r+0x12>
    3588:	1fffd717          	auipc	a4,0x1fffd
    358c:	d1c70713          	addi	a4,a4,-740 # 200002a4 <__global_locale>
    3590:	ec1ff06f          	j	3450 <_strtoul_l.isra.0>

00003594 <__submore>:
    3594:	1101                	addi	sp,sp,-32
    3596:	cc22                	sw	s0,24(sp)
    3598:	842e                	mv	s0,a1
    359a:	59cc                	lw	a1,52(a1)
    359c:	ce06                	sw	ra,28(sp)
    359e:	ca26                	sw	s1,20(sp)
    35a0:	c84a                	sw	s2,16(sp)
    35a2:	c64e                	sw	s3,12(sp)
    35a4:	c452                	sw	s4,8(sp)
    35a6:	04440793          	addi	a5,s0,68
    35aa:	04f59163          	bne	a1,a5,35ec <__submore+0x58>
    35ae:	40000593          	li	a1,1024
    35b2:	2a85                	jal	3722 <_malloc_r>
    35b4:	e911                	bnez	a0,35c8 <__submore+0x34>
    35b6:	557d                	li	a0,-1
    35b8:	40f2                	lw	ra,28(sp)
    35ba:	4462                	lw	s0,24(sp)
    35bc:	44d2                	lw	s1,20(sp)
    35be:	4942                	lw	s2,16(sp)
    35c0:	49b2                	lw	s3,12(sp)
    35c2:	4a22                	lw	s4,8(sp)
    35c4:	6105                	addi	sp,sp,32
    35c6:	8082                	ret
    35c8:	40000793          	li	a5,1024
    35cc:	dc1c                	sw	a5,56(s0)
    35ce:	04644783          	lbu	a5,70(s0)
    35d2:	d848                	sw	a0,52(s0)
    35d4:	3fd50513          	addi	a0,a0,1021
    35d8:	a13c                	sb	a5,2(a0)
    35da:	04544783          	lbu	a5,69(s0)
    35de:	b11c                	sb	a5,1(a0)
    35e0:	04444783          	lbu	a5,68(s0)
    35e4:	a11c                	sb	a5,0(a0)
    35e6:	c008                	sw	a0,0(s0)
    35e8:	4501                	li	a0,0
    35ea:	b7f9                	j	35b8 <__submore+0x24>
    35ec:	03842903          	lw	s2,56(s0)
    35f0:	00191993          	slli	s3,s2,0x1
    35f4:	864e                	mv	a2,s3
    35f6:	2aed                	jal	37f0 <_realloc_r>
    35f8:	84aa                	mv	s1,a0
    35fa:	dd55                	beqz	a0,35b6 <__submore+0x22>
    35fc:	01250a33          	add	s4,a0,s2
    3600:	85aa                	mv	a1,a0
    3602:	864a                	mv	a2,s2
    3604:	8552                	mv	a0,s4
    3606:	b7cff0ef          	jal	ra,2982 <memcpy>
    360a:	01442023          	sw	s4,0(s0)
    360e:	d844                	sw	s1,52(s0)
    3610:	03342c23          	sw	s3,56(s0)
    3614:	bfd1                	j	35e8 <__submore+0x54>

00003616 <__locale_ctype_ptr_l>:
    3616:	0ec52503          	lw	a0,236(a0)
    361a:	8082                	ret

0000361c <__locale_ctype_ptr>:
    361c:	82818793          	addi	a5,gp,-2008 # 20000438 <_impure_ptr>
    3620:	439c                	lw	a5,0(a5)
    3622:	539c                	lw	a5,32(a5)
    3624:	e789                	bnez	a5,362e <__locale_ctype_ptr+0x12>
    3626:	1fffd797          	auipc	a5,0x1fffd
    362a:	c7e78793          	addi	a5,a5,-898 # 200002a4 <__global_locale>
    362e:	0ec7a503          	lw	a0,236(a5)
    3632:	8082                	ret

00003634 <__ascii_mbtowc>:
    3634:	ed91                	bnez	a1,3650 <__ascii_mbtowc+0x1c>
    3636:	1141                	addi	sp,sp,-16
    3638:	006c                	addi	a1,sp,12
    363a:	4501                	li	a0,0
    363c:	ca01                	beqz	a2,364c <__ascii_mbtowc+0x18>
    363e:	5579                	li	a0,-2
    3640:	c691                	beqz	a3,364c <__ascii_mbtowc+0x18>
    3642:	221c                	lbu	a5,0(a2)
    3644:	c19c                	sw	a5,0(a1)
    3646:	2208                	lbu	a0,0(a2)
    3648:	00a03533          	snez	a0,a0
    364c:	0141                	addi	sp,sp,16
    364e:	8082                	ret
    3650:	4501                	li	a0,0
    3652:	ca09                	beqz	a2,3664 <__ascii_mbtowc+0x30>
    3654:	5579                	li	a0,-2
    3656:	c699                	beqz	a3,3664 <__ascii_mbtowc+0x30>
    3658:	221c                	lbu	a5,0(a2)
    365a:	c19c                	sw	a5,0(a1)
    365c:	2208                	lbu	a0,0(a2)
    365e:	00a03533          	snez	a0,a0
    3662:	8082                	ret
    3664:	8082                	ret

00003666 <memchr>:
    3666:	0ff5f593          	andi	a1,a1,255
    366a:	962a                	add	a2,a2,a0
    366c:	00c51463          	bne	a0,a2,3674 <memchr+0xe>
    3670:	4501                	li	a0,0
    3672:	8082                	ret
    3674:	211c                	lbu	a5,0(a0)
    3676:	feb78ee3          	beq	a5,a1,3672 <memchr+0xc>
    367a:	0505                	addi	a0,a0,1
    367c:	bfc5                	j	366c <memchr+0x6>

0000367e <_free_r>:
    367e:	c1cd                	beqz	a1,3720 <_free_r+0xa2>
    3680:	ffc5a783          	lw	a5,-4(a1)
    3684:	1141                	addi	sp,sp,-16
    3686:	c422                	sw	s0,8(sp)
    3688:	c606                	sw	ra,12(sp)
    368a:	c226                	sw	s1,4(sp)
    368c:	ffc58413          	addi	s0,a1,-4
    3690:	0007d363          	bgez	a5,3696 <_free_r+0x18>
    3694:	943e                	add	s0,s0,a5
    3696:	84aa                	mv	s1,a0
    3698:	2ae5                	jal	3890 <__malloc_lock>
    369a:	85c18793          	addi	a5,gp,-1956 # 2000046c <__malloc_free_list>
    369e:	439c                	lw	a5,0(a5)
    36a0:	eb99                	bnez	a5,36b6 <_free_r+0x38>
    36a2:	00042223          	sw	zero,4(s0)
    36a6:	8481ae23          	sw	s0,-1956(gp) # 2000046c <__malloc_free_list>
    36aa:	4422                	lw	s0,8(sp)
    36ac:	40b2                	lw	ra,12(sp)
    36ae:	8526                	mv	a0,s1
    36b0:	4492                	lw	s1,4(sp)
    36b2:	0141                	addi	sp,sp,16
    36b4:	aaf9                	j	3892 <__malloc_unlock>
    36b6:	00f47e63          	bgeu	s0,a5,36d2 <_free_r+0x54>
    36ba:	4014                	lw	a3,0(s0)
    36bc:	00d40733          	add	a4,s0,a3
    36c0:	00e79663          	bne	a5,a4,36cc <_free_r+0x4e>
    36c4:	4398                	lw	a4,0(a5)
    36c6:	43dc                	lw	a5,4(a5)
    36c8:	9736                	add	a4,a4,a3
    36ca:	c018                	sw	a4,0(s0)
    36cc:	c05c                	sw	a5,4(s0)
    36ce:	bfe1                	j	36a6 <_free_r+0x28>
    36d0:	87ba                	mv	a5,a4
    36d2:	43d8                	lw	a4,4(a5)
    36d4:	c319                	beqz	a4,36da <_free_r+0x5c>
    36d6:	fee47de3          	bgeu	s0,a4,36d0 <_free_r+0x52>
    36da:	4394                	lw	a3,0(a5)
    36dc:	00d78633          	add	a2,a5,a3
    36e0:	00861f63          	bne	a2,s0,36fe <_free_r+0x80>
    36e4:	4010                	lw	a2,0(s0)
    36e6:	96b2                	add	a3,a3,a2
    36e8:	c394                	sw	a3,0(a5)
    36ea:	00d78633          	add	a2,a5,a3
    36ee:	fac71ee3          	bne	a4,a2,36aa <_free_r+0x2c>
    36f2:	4310                	lw	a2,0(a4)
    36f4:	4358                	lw	a4,4(a4)
    36f6:	96b2                	add	a3,a3,a2
    36f8:	c394                	sw	a3,0(a5)
    36fa:	c3d8                	sw	a4,4(a5)
    36fc:	b77d                	j	36aa <_free_r+0x2c>
    36fe:	00c47563          	bgeu	s0,a2,3708 <_free_r+0x8a>
    3702:	47b1                	li	a5,12
    3704:	c09c                	sw	a5,0(s1)
    3706:	b755                	j	36aa <_free_r+0x2c>
    3708:	4010                	lw	a2,0(s0)
    370a:	00c406b3          	add	a3,s0,a2
    370e:	00d71663          	bne	a4,a3,371a <_free_r+0x9c>
    3712:	4314                	lw	a3,0(a4)
    3714:	4358                	lw	a4,4(a4)
    3716:	96b2                	add	a3,a3,a2
    3718:	c014                	sw	a3,0(s0)
    371a:	c058                	sw	a4,4(s0)
    371c:	c3c0                	sw	s0,4(a5)
    371e:	b771                	j	36aa <_free_r+0x2c>
    3720:	8082                	ret

00003722 <_malloc_r>:
    3722:	1101                	addi	sp,sp,-32
    3724:	ca26                	sw	s1,20(sp)
    3726:	00358493          	addi	s1,a1,3
    372a:	98f1                	andi	s1,s1,-4
    372c:	ce06                	sw	ra,28(sp)
    372e:	cc22                	sw	s0,24(sp)
    3730:	c84a                	sw	s2,16(sp)
    3732:	c64e                	sw	s3,12(sp)
    3734:	04a1                	addi	s1,s1,8
    3736:	47b1                	li	a5,12
    3738:	04f4f163          	bgeu	s1,a5,377a <_malloc_r+0x58>
    373c:	44b1                	li	s1,12
    373e:	04b4e063          	bltu	s1,a1,377e <_malloc_r+0x5c>
    3742:	892a                	mv	s2,a0
    3744:	22b1                	jal	3890 <__malloc_lock>
    3746:	85c18793          	addi	a5,gp,-1956 # 2000046c <__malloc_free_list>
    374a:	4398                	lw	a4,0(a5)
    374c:	843a                	mv	s0,a4
    374e:	e031                	bnez	s0,3792 <_malloc_r+0x70>
    3750:	86018793          	addi	a5,gp,-1952 # 20000470 <__malloc_sbrk_start>
    3754:	439c                	lw	a5,0(a5)
    3756:	e791                	bnez	a5,3762 <_malloc_r+0x40>
    3758:	4581                	li	a1,0
    375a:	854a                	mv	a0,s2
    375c:	20f5                	jal	3848 <_sbrk_r>
    375e:	86a1a023          	sw	a0,-1952(gp) # 20000470 <__malloc_sbrk_start>
    3762:	85a6                	mv	a1,s1
    3764:	854a                	mv	a0,s2
    3766:	20cd                	jal	3848 <_sbrk_r>
    3768:	59fd                	li	s3,-1
    376a:	07351763          	bne	a0,s3,37d8 <_malloc_r+0xb6>
    376e:	47b1                	li	a5,12
    3770:	00f92023          	sw	a5,0(s2)
    3774:	854a                	mv	a0,s2
    3776:	2a31                	jal	3892 <__malloc_unlock>
    3778:	a029                	j	3782 <_malloc_r+0x60>
    377a:	fc04d2e3          	bgez	s1,373e <_malloc_r+0x1c>
    377e:	47b1                	li	a5,12
    3780:	c11c                	sw	a5,0(a0)
    3782:	4501                	li	a0,0
    3784:	40f2                	lw	ra,28(sp)
    3786:	4462                	lw	s0,24(sp)
    3788:	44d2                	lw	s1,20(sp)
    378a:	4942                	lw	s2,16(sp)
    378c:	49b2                	lw	s3,12(sp)
    378e:	6105                	addi	sp,sp,32
    3790:	8082                	ret
    3792:	401c                	lw	a5,0(s0)
    3794:	8f85                	sub	a5,a5,s1
    3796:	0207ce63          	bltz	a5,37d2 <_malloc_r+0xb0>
    379a:	46ad                	li	a3,11
    379c:	00f6f663          	bgeu	a3,a5,37a8 <_malloc_r+0x86>
    37a0:	c01c                	sw	a5,0(s0)
    37a2:	943e                	add	s0,s0,a5
    37a4:	c004                	sw	s1,0(s0)
    37a6:	a031                	j	37b2 <_malloc_r+0x90>
    37a8:	405c                	lw	a5,4(s0)
    37aa:	02871263          	bne	a4,s0,37ce <_malloc_r+0xac>
    37ae:	84f1ae23          	sw	a5,-1956(gp) # 2000046c <__malloc_free_list>
    37b2:	854a                	mv	a0,s2
    37b4:	28f9                	jal	3892 <__malloc_unlock>
    37b6:	00b40513          	addi	a0,s0,11
    37ba:	00440793          	addi	a5,s0,4
    37be:	9961                	andi	a0,a0,-8
    37c0:	40f50733          	sub	a4,a0,a5
    37c4:	d361                	beqz	a4,3784 <_malloc_r+0x62>
    37c6:	943a                	add	s0,s0,a4
    37c8:	8f89                	sub	a5,a5,a0
    37ca:	c01c                	sw	a5,0(s0)
    37cc:	bf65                	j	3784 <_malloc_r+0x62>
    37ce:	c35c                	sw	a5,4(a4)
    37d0:	b7cd                	j	37b2 <_malloc_r+0x90>
    37d2:	8722                	mv	a4,s0
    37d4:	4040                	lw	s0,4(s0)
    37d6:	bfa5                	j	374e <_malloc_r+0x2c>
    37d8:	00350413          	addi	s0,a0,3
    37dc:	9871                	andi	s0,s0,-4
    37de:	fc8503e3          	beq	a0,s0,37a4 <_malloc_r+0x82>
    37e2:	40a405b3          	sub	a1,s0,a0
    37e6:	854a                	mv	a0,s2
    37e8:	2085                	jal	3848 <_sbrk_r>
    37ea:	fb351de3          	bne	a0,s3,37a4 <_malloc_r+0x82>
    37ee:	b741                	j	376e <_malloc_r+0x4c>

000037f0 <_realloc_r>:
    37f0:	e581                	bnez	a1,37f8 <_realloc_r+0x8>
    37f2:	85b2                	mv	a1,a2
    37f4:	f2fff06f          	j	3722 <_malloc_r>
    37f8:	1101                	addi	sp,sp,-32
    37fa:	cc22                	sw	s0,24(sp)
    37fc:	ce06                	sw	ra,28(sp)
    37fe:	ca26                	sw	s1,20(sp)
    3800:	c84a                	sw	s2,16(sp)
    3802:	c64e                	sw	s3,12(sp)
    3804:	8432                	mv	s0,a2
    3806:	ee01                	bnez	a2,381e <_realloc_r+0x2e>
    3808:	e77ff0ef          	jal	ra,367e <_free_r>
    380c:	4901                	li	s2,0
    380e:	40f2                	lw	ra,28(sp)
    3810:	4462                	lw	s0,24(sp)
    3812:	854a                	mv	a0,s2
    3814:	44d2                	lw	s1,20(sp)
    3816:	4942                	lw	s2,16(sp)
    3818:	49b2                	lw	s3,12(sp)
    381a:	6105                	addi	sp,sp,32
    381c:	8082                	ret
    381e:	84ae                	mv	s1,a1
    3820:	89aa                	mv	s3,a0
    3822:	288d                	jal	3894 <_malloc_usable_size_r>
    3824:	8926                	mv	s2,s1
    3826:	fe8574e3          	bgeu	a0,s0,380e <_realloc_r+0x1e>
    382a:	85a2                	mv	a1,s0
    382c:	854e                	mv	a0,s3
    382e:	ef5ff0ef          	jal	ra,3722 <_malloc_r>
    3832:	892a                	mv	s2,a0
    3834:	dd69                	beqz	a0,380e <_realloc_r+0x1e>
    3836:	85a6                	mv	a1,s1
    3838:	8622                	mv	a2,s0
    383a:	948ff0ef          	jal	ra,2982 <memcpy>
    383e:	85a6                	mv	a1,s1
    3840:	854e                	mv	a0,s3
    3842:	e3dff0ef          	jal	ra,367e <_free_r>
    3846:	b7e1                	j	380e <_realloc_r+0x1e>

00003848 <_sbrk_r>:
    3848:	1141                	addi	sp,sp,-16
    384a:	c422                	sw	s0,8(sp)
    384c:	842a                	mv	s0,a0
    384e:	852e                	mv	a0,a1
    3850:	9801a423          	sw	zero,-1656(gp) # 20000598 <errno>
    3854:	c606                	sw	ra,12(sp)
    3856:	906ff0ef          	jal	ra,295c <_sbrk>
    385a:	57fd                	li	a5,-1
    385c:	00f51763          	bne	a0,a5,386a <_sbrk_r+0x22>
    3860:	98818793          	addi	a5,gp,-1656 # 20000598 <errno>
    3864:	439c                	lw	a5,0(a5)
    3866:	c391                	beqz	a5,386a <_sbrk_r+0x22>
    3868:	c01c                	sw	a5,0(s0)
    386a:	40b2                	lw	ra,12(sp)
    386c:	4422                	lw	s0,8(sp)
    386e:	0141                	addi	sp,sp,16
    3870:	8082                	ret

00003872 <__ascii_wctomb>:
    3872:	cd89                	beqz	a1,388c <__ascii_wctomb+0x1a>
    3874:	0ff00793          	li	a5,255
    3878:	00c7f763          	bgeu	a5,a2,3886 <__ascii_wctomb+0x14>
    387c:	08a00793          	li	a5,138
    3880:	c11c                	sw	a5,0(a0)
    3882:	557d                	li	a0,-1
    3884:	8082                	ret
    3886:	a190                	sb	a2,0(a1)
    3888:	4505                	li	a0,1
    388a:	8082                	ret
    388c:	4501                	li	a0,0
    388e:	8082                	ret

00003890 <__malloc_lock>:
    3890:	8082                	ret

00003892 <__malloc_unlock>:
    3892:	8082                	ret

00003894 <_malloc_usable_size_r>:
    3894:	ffc5a783          	lw	a5,-4(a1)
    3898:	ffc78513          	addi	a0,a5,-4
    389c:	0007d563          	bgez	a5,38a6 <_malloc_usable_size_r+0x12>
    38a0:	95aa                	add	a1,a1,a0
    38a2:	419c                	lw	a5,0(a1)
    38a4:	953e                	add	a0,a0,a5
    38a6:	8082                	ret
    38a8:	ffff01ef          	jal	gp,ffff48a6 <_eusrstack+0xdffec8a6>
    38ac:	ffff                	0xffff
    38ae:	0001                	nop
    38b0:	05000103          	lb	sp,80(zero) # 50 <_einit+0x4c>
    38b4:	ffff01ef          	jal	gp,ffff48b2 <_eusrstack+0xdffec8b2>
    38b8:	ffff                	0xffff
    38ba:	0001                	nop
    38bc:	09000503          	lb	a0,144(zero) # 90 <_einit+0x8c>
    38c0:	ffff01ef          	jal	gp,ffff48be <_eusrstack+0xdffec8be>
    38c4:	ffff                	0xffff
    38c6:	0001                	nop
    38c8:	0408                	addi	a0,sp,512
    38ca:	0002                	c.slli64	zero
    38cc:	0000                	unimp
    38ce:	01ff                	0x1ff
    38d0:	000e                	c.slli	zero,0x3
    38d2:	0000                	unimp
    38d4:	ffff01ef          	jal	gp,ffff48d2 <_eusrstack+0xdffec8d2>
    38d8:	ffff                	0xffff
    38da:	0001                	nop
    38dc:	11000d03          	lb	s10,272(zero) # 110 <_einit+0x10c>
    38e0:	02cc                	addi	a1,sp,324
    38e2:	0000                	unimp
    38e4:	02d8                	addi	a4,sp,324
    38e6:	0000                	unimp
    38e8:	02e0                	addi	s0,sp,332
    38ea:	0000                	unimp
    38ec:	035e                	slli	t1,t1,0x17
    38ee:	0000                	unimp
    38f0:	02d0                	addi	a2,sp,324
    38f2:	0000                	unimp
    38f4:	02d0                	addi	a2,sp,324
    38f6:	0000                	unimp
    38f8:	0372                	slli	t1,t1,0x1c
    38fa:	0000                	unimp
    38fc:	0372                	slli	t1,t1,0x1c
    38fe:	0000                	unimp
    3900:	06ec                	addi	a1,sp,844
    3902:	0000                	unimp
    3904:	0702                	c.slli64	a4
    3906:	0000                	unimp
    3908:	0712                	slli	a4,a4,0x4
    390a:	0000                	unimp
    390c:	0722                	slli	a4,a4,0x8
    390e:	0000                	unimp
    3910:	073c                	addi	a5,sp,904
    3912:	0000                	unimp
    3914:	074c                	addi	a1,sp,900
    3916:	0000                	unimp
    3918:	075c                	addi	a5,sp,900
    391a:	0000                	unimp
    391c:	076c                	addi	a1,sp,908
    391e:	0000                	unimp
    3920:	077c                	addi	a5,sp,908
    3922:	0000                	unimp
    3924:	078c                	addi	a1,sp,960
    3926:	0000                	unimp
    3928:	079c                	addi	a5,sp,960
    392a:	0000                	unimp
    392c:	07ac                	addi	a1,sp,968
    392e:	0000                	unimp
    3930:	07c2                	slli	a5,a5,0x10
    3932:	0000                	unimp
    3934:	07da                	slli	a5,a5,0x16
    3936:	0000                	unimp
    3938:	07ec                	addi	a1,sp,972
    393a:	0000                	unimp
    393c:	080a                	slli	a6,a6,0x2
    393e:	0000                	unimp
    3940:	0826                	slli	a6,a6,0x9
    3942:	0000                	unimp
    3944:	086e                	slli	a6,a6,0x1b
    3946:	0000                	unimp
    3948:	089e                	slli	a7,a7,0x7
    394a:	0000                	unimp
    394c:	08b6                	slli	a7,a7,0xd
    394e:	0000                	unimp
    3950:	0700                	addi	s0,sp,896
    3952:	0000                	unimp
    3954:	08cc                	addi	a1,sp,84
    3956:	0000                	unimp
    3958:	0956                	slli	s2,s2,0x15
    395a:	0000                	unimp
    395c:	0962                	slli	s2,s2,0x18
    395e:	0000                	unimp
    3960:	096c                	addi	a1,sp,156
    3962:	0000                	unimp
    3964:	0976                	slli	s2,s2,0x1d
    3966:	0000                	unimp
    3968:	0982                	c.slli64	s3
    396a:	0000                	unimp
    396c:	09a6                	slli	s3,s3,0x9
    396e:	0000                	unimp
    3970:	09b0                	addi	a2,sp,216
    3972:	0000                	unimp
    3974:	09b6                	slli	s3,s3,0xd
    3976:	0000                	unimp
    3978:	09be                	slli	s3,s3,0xf
    397a:	0000                	unimp
    397c:	09c6                	slli	s3,s3,0x11
    397e:	0000                	unimp
    3980:	09ce                	slli	s3,s3,0x13
    3982:	0000                	unimp
    3984:	7061                	c.lui	zero,0xffff8
    3986:	6b70                	flw	fa2,84(a4)
    3988:	7965                	lui	s2,0xffff9
    398a:	0000                	unimp
    398c:	7061                	c.lui	zero,0xffff8
    398e:	6b70                	flw	fa2,84(a4)
    3990:	7965                	lui	s2,0xffff9
    3992:	3a22                	lhu	s0,50(a2)
    3994:	6425                	lui	s0,0x9
    3996:	0000                	unimp
    3998:	7061                	c.lui	zero,0xffff8
    399a:	7370                	flw	fa2,100(a4)
    399c:	7274                	flw	fa3,100(a2)
    399e:	6e69                	lui	t3,0x1a
    39a0:	00000067          	jr	zero # 0 <_sinit>
    39a4:	7061                	c.lui	zero,0xffff8
    39a6:	7370                	flw	fa2,100(a4)
    39a8:	7274                	flw	fa3,100(a2)
    39aa:	6e69                	lui	t3,0x1a
    39ac:	223a2267          	0x223a2267
    39b0:	6425                	lui	s0,0x9
    39b2:	0000                	unimp
    39b4:	5441                	li	s0,-16
    39b6:	54514d2b          	0x54514d2b
    39ba:	5054                	lw	a3,36(s0)
    39bc:	4255                	li	tp,21
    39be:	303d                	jal	31ec <_scanf_i+0x1c2>
    39c0:	222c                	lbu	a1,2(a2)
    39c2:	7324                	flw	fs1,96(a4)
    39c4:	7379                	lui	t1,0xffffe
    39c6:	3076662f          	0x3076662f
    39ca:	345a                	lhu	a4,44(s0)
    39cc:	6535                	lui	a0,0xd
    39ce:	5541                	li	a0,-16
    39d0:	2f42                	lhu	s0,28(a4)
    39d2:	32336863          	bltu	t1,gp,3d02 <gImage_1+0x1e6>
    39d6:	6968742f          	0x6968742f
    39da:	676e                	flw	fa4,216(sp)
    39dc:	6f72702f          	0x6f72702f
    39e0:	6570                	flw	fa2,76(a0)
    39e2:	7472                	flw	fs0,60(sp)
    39e4:	2f79                	jal	4182 <gImage_1+0x666>
    39e6:	6f70                	flw	fa2,92(a4)
    39e8:	2c227473          	csrrci	s0,0x2c2,4
    39ec:	7b22                	flw	fs6,40(sp)
    39ee:	225c                	lbu	a5,4(a2)
    39f0:	6469                	lui	s0,0x1a
    39f2:	225c                	lbu	a5,4(a2)
    39f4:	5c3a                	lw	s8,172(sp)
    39f6:	3122                	lhu	s0,34(a0)
    39f8:	3332                	lhu	a2,34(a4)
    39fa:	225c                	lbu	a5,4(a2)
    39fc:	2c5c                	lbu	a5,28(s0)
    39fe:	225c                	lbu	a5,4(a2)
    3a00:	6170                	flw	fa2,68(a0)
    3a02:	6172                	flw	ft2,28(sp)
    3a04:	736d                	lui	t1,0xffffb
    3a06:	225c                	lbu	a5,4(a2)
    3a08:	7b3a                	flw	fs6,172(sp)
    3a0a:	225c                	lbu	a5,4(a2)
    3a0c:	7061                	c.lui	zero,0xffff8
    3a0e:	6b70                	flw	fa2,84(a4)
    3a10:	7965                	lui	s2,0xffff9
    3a12:	225c                	lbu	a5,4(a2)
    3a14:	7b3a                	flw	fs6,172(sp)
    3a16:	225c                	lbu	a5,4(a2)
    3a18:	6176                	flw	ft2,92(sp)
    3a1a:	756c                	flw	fa1,108(a0)
    3a1c:	5c65                	li	s8,-7
    3a1e:	3a22                	lhu	s0,50(a2)
    3a20:	7d30                	flw	fa2,120(a0)
    3a22:	7d7d                	lui	s10,0xfffff
    3a24:	2c22                	lhu	s0,26(s0)
    3a26:	2c30                	lbu	a2,26(s0)
    3a28:	0d30                	addi	a2,sp,664
    3a2a:	000a                	c.slli	zero,0x2
    3a2c:	5441                	li	s0,-16
    3a2e:	54514d2b          	0x54514d2b
    3a32:	5054                	lw	a3,36(s0)
    3a34:	4255                	li	tp,21
    3a36:	303d                	jal	3264 <_scanf_i+0x23a>
    3a38:	222c                	lbu	a1,2(a2)
    3a3a:	7324                	flw	fs1,96(a4)
    3a3c:	7379                	lui	t1,0xffffe
    3a3e:	3076662f          	0x3076662f
    3a42:	345a                	lhu	a4,44(s0)
    3a44:	6535                	lui	a0,0xd
    3a46:	5541                	li	a0,-16
    3a48:	2f42                	lhu	s0,28(a4)
    3a4a:	32336863          	bltu	t1,gp,3d7a <gImage_1+0x25e>
    3a4e:	6968742f          	0x6968742f
    3a52:	676e                	flw	fa4,216(sp)
    3a54:	6f72702f          	0x6f72702f
    3a58:	6570                	flw	fa2,76(a0)
    3a5a:	7472                	flw	fs0,60(sp)
    3a5c:	2f79                	jal	41fa <gImage_1+0x6de>
    3a5e:	6f70                	flw	fa2,92(a4)
    3a60:	2c227473          	csrrci	s0,0x2c2,4
    3a64:	7b22                	flw	fs6,40(sp)
    3a66:	225c                	lbu	a5,4(a2)
    3a68:	6469                	lui	s0,0x1a
    3a6a:	225c                	lbu	a5,4(a2)
    3a6c:	5c3a                	lw	s8,172(sp)
    3a6e:	3122                	lhu	s0,34(a0)
    3a70:	3332                	lhu	a2,34(a4)
    3a72:	225c                	lbu	a5,4(a2)
    3a74:	2c5c                	lbu	a5,28(s0)
    3a76:	225c                	lbu	a5,4(a2)
    3a78:	6170                	flw	fa2,68(a0)
    3a7a:	6172                	flw	ft2,28(sp)
    3a7c:	736d                	lui	t1,0xffffb
    3a7e:	225c                	lbu	a5,4(a2)
    3a80:	7b3a                	flw	fs6,172(sp)
    3a82:	225c                	lbu	a5,4(a2)
    3a84:	7061                	c.lui	zero,0xffff8
    3a86:	6b70                	flw	fa2,84(a4)
    3a88:	7965                	lui	s2,0xffff9
    3a8a:	225c                	lbu	a5,4(a2)
    3a8c:	7b3a                	flw	fs6,172(sp)
    3a8e:	225c                	lbu	a5,4(a2)
    3a90:	6176                	flw	ft2,92(sp)
    3a92:	756c                	flw	fa1,108(a0)
    3a94:	5c65                	li	s8,-7
    3a96:	3a22                	lhu	s0,50(a2)
    3a98:	7d36                	flw	fs10,108(sp)
    3a9a:	7d7d                	lui	s10,0xfffff
    3a9c:	2c22                	lhu	s0,26(s0)
    3a9e:	2c30                	lbu	a2,26(s0)
    3aa0:	0d30                	addi	a2,sp,664
    3aa2:	000a                	c.slli	zero,0x2
    3aa4:	5441                	li	s0,-16
    3aa6:	54514d2b          	0x54514d2b
    3aaa:	5054                	lw	a3,36(s0)
    3aac:	4255                	li	tp,21
    3aae:	303d                	jal	32dc <__sccl+0x5c>
    3ab0:	222c                	lbu	a1,2(a2)
    3ab2:	7324                	flw	fs1,96(a4)
    3ab4:	7379                	lui	t1,0xffffe
    3ab6:	3076662f          	0x3076662f
    3aba:	345a                	lhu	a4,44(s0)
    3abc:	6535                	lui	a0,0xd
    3abe:	5541                	li	a0,-16
    3ac0:	2f42                	lhu	s0,28(a4)
    3ac2:	32336863          	bltu	t1,gp,3df2 <gImage_1+0x2d6>
    3ac6:	6968742f          	0x6968742f
    3aca:	676e                	flw	fa4,216(sp)
    3acc:	6f72702f          	0x6f72702f
    3ad0:	6570                	flw	fa2,76(a0)
    3ad2:	7472                	flw	fs0,60(sp)
    3ad4:	2f79                	jal	4272 <gImage_1+0x756>
    3ad6:	6f70                	flw	fa2,92(a4)
    3ad8:	2c227473          	csrrci	s0,0x2c2,4
    3adc:	7b22                	flw	fs6,40(sp)
    3ade:	225c                	lbu	a5,4(a2)
    3ae0:	6469                	lui	s0,0x1a
    3ae2:	225c                	lbu	a5,4(a2)
    3ae4:	5c3a                	lw	s8,172(sp)
    3ae6:	3122                	lhu	s0,34(a0)
    3ae8:	3332                	lhu	a2,34(a4)
    3aea:	225c                	lbu	a5,4(a2)
    3aec:	2c5c                	lbu	a5,28(s0)
    3aee:	225c                	lbu	a5,4(a2)
    3af0:	6170                	flw	fa2,68(a0)
    3af2:	6172                	flw	ft2,28(sp)
    3af4:	736d                	lui	t1,0xffffb
    3af6:	225c                	lbu	a5,4(a2)
    3af8:	7b3a                	flw	fs6,172(sp)
    3afa:	225c                	lbu	a5,4(a2)
    3afc:	7061                	c.lui	zero,0xffff8
    3afe:	6b70                	flw	fa2,84(a4)
    3b00:	7965                	lui	s2,0xffff9
    3b02:	225c                	lbu	a5,4(a2)
    3b04:	7b3a                	flw	fs6,172(sp)
    3b06:	225c                	lbu	a5,4(a2)
    3b08:	6176                	flw	ft2,92(sp)
    3b0a:	756c                	flw	fa1,108(a0)
    3b0c:	5c65                	li	s8,-7
    3b0e:	3a22                	lhu	s0,50(a2)
    3b10:	7d7d7d37          	lui	s10,0x7d7d7
    3b14:	2c22                	lhu	s0,26(s0)
    3b16:	2c30                	lbu	a2,26(s0)
    3b18:	0d30                	addi	a2,sp,664
    3b1a:	000a                	c.slli	zero,0x2

00003b1c <gImage_1>:
    3b1c:	ffff ffff ffff ffff ffff ffff ffff ffff     ................
    3b2c:	ffff ffff ffff ffff ffff ffff ffff ffff     ................
    3b3c:	ffff ffff ffff ffff ffff ffff ffff ffff     ................
    3b4c:	ffff ffff ffff ffff ffff ffff ffff ffff     ................
    3b5c:	ffff ffff ffff ffff ffff ffff ffff ffff     ................
    3b6c:	ffff ffff ffff ffff ffff ffff ffff ffff     ................
    3b7c:	ffff ffff ffff ffff ffff ffff ffff ffff     ................
    3b8c:	ffff ffff ffff ffff ffff ffff ffff ffff     ................
    3b9c:	ffff ffff ffff ffff ffff ffff ffff ffff     ................
    3bac:	ffff ffff ffff ffff ffff ffff ffff ffff     ................
    3bbc:	ffff ffff ffff ffff ffff ffff ffff ffff     ................
    3bcc:	ffff ffff ffff ffff ffff ffff ffff ffff     ................
    3bdc:	ffff ffff ffff ffff ffff ffff ffff ffff     ................
    3bec:	ffff ffff ffff ffff ffff ffff ffff ffff     ................
    3bfc:	ffff ffff ffff ffff ffff ffff ffff ffff     ................
    3c0c:	ffff ffff ffff ffff ffff ffff ffff ffff     ................
    3c1c:	ffff ffff ffff ffff ffff ffff ffff ffff     ................
    3c2c:	ffff ffff ffff ffff ffff ffff ffff ffff     ................
    3c3c:	ffff ffff ffff ffff ffff ffff ffff ffff     ................
    3c4c:	ffff ffff ffff ffff ffff ffff ffff ffff     ................
    3c5c:	ffff ffff ffff ffff ffff ffff ffff ffff     ................
    3c6c:	ffff ffff ffff ffff ffff ffff ffff ffff     ................
    3c7c:	ffff ffff ffff ffff ffff ffff ffff ffff     ................
    3c8c:	ffff ffff ffff ffff ffff ffff ffff ffff     ................
    3c9c:	ffff ffff ffff ffff ffff ffff ffff ffff     ................
    3cac:	ffff ffff ffff ffff ffff ffff ffff ffff     ................
    3cbc:	ffff ffff ffff ffff ffff ffff ffff ffff     ................
    3ccc:	ffff ffff ffff ffff ffff ffff ffff ffff     ................
    3cdc:	ffff ffff ffff ffff ffff ffff ffff ffff     ................
    3cec:	ffff ffff ffff ffff ffff ffff ffff ffff     ................
    3cfc:	ffff ffff ffff ffff ffff ffff ffff ffff     ................
    3d0c:	ffff ffff ffff ffff ffff ffff ffff ffff     ................
    3d1c:	ffff ffff ffff ffff ffff ffff ffff ffff     ................
    3d2c:	ffff ffff ffff ffff ffff ffff ffff ffff     ................
    3d3c:	ffff ffff ffff ffff ffff ffff ffff ffff     ................
    3d4c:	ffff ffff ffff ffff ffff ffff ffff ffff     ................
    3d5c:	ffff ffff ffff ffff ffff ffff ffff ffff     ................
    3d6c:	ffff ffff ffff ffff ffff ffff ffff ffff     ................
    3d7c:	ffff ffff ffff ffff ffff ffff ffff ffff     ................
    3d8c:	ffff ffff ffff ffff ffff ffff ffff ffff     ................
    3d9c:	ffff ffff ffff ffff ffff ffff ffff ffff     ................
    3dac:	ffff ffff ffff ffff ffff ffff ffff ffff     ................
    3dbc:	ffff ffff ffff ffff ffff ffff ffff ffff     ................
    3dcc:	ffff ffff ffff ffff ffff ffff ffff ffff     ................
    3ddc:	ffff ffff ffff ffff ffff ffff ffff ffff     ................
    3dec:	ffff ffff ffff ffff ffff ffff ffff ffff     ................
    3dfc:	ffff ffff ffff ffff ffff ffff ffff ffff     ................
    3e0c:	ffff ffff ffff ffff ffff ffff ffff ffff     ................
    3e1c:	ffff ffff ffff ffff ffff ffff ffff ffff     ................
    3e2c:	ffff ffff ffff ffff ffff ffff ffff ffff     ................
    3e3c:	ffff ffff ffff ffff ffff ffff ffff ffff     ................
    3e4c:	ffff ffff ffff ffff ffff ffff ffff ffff     ................
    3e5c:	ffff ffff ffff ffff ffff ffff ffff ffff     ................
    3e6c:	ffff ffff ffff ffff ffff ffff ffff ffff     ................
    3e7c:	ffff ffff ffff ffff ffff ffff ffff ffff     ................
    3e8c:	ffff ffff ffff ffff ffff ffff ffff ffff     ................
    3e9c:	ffff ffff ffff ffff ffff ffff ffff ffff     ................
    3eac:	ffff ffff ffff ffff ffff ffff ffff ffff     ................
    3ebc:	ffff ffff ffff ffff ffff ffff ffff ffff     ................
    3ecc:	ffff ffff ffff ffff ffff ffff ffff ffff     ................
    3edc:	ffff ffff ffff ffff ffff ffff ffff ffff     ................
    3eec:	ffff ffff ffff ffff ffff ffff ffff ffff     ................
    3efc:	ffff ffff ffff ffff ffff ffff ffff ffff     ................
    3f0c:	ffff ffff ffff ffff ffff ffff ffff ffff     ................
    3f1c:	ffff ffff ffff ffff ffff ffff ffff ffff     ................
    3f2c:	ffff ffff ffff ffff ffff ffff ffff ffff     ................
    3f3c:	ffff ffff ffff ffff ffff ffff ffff ffff     ................
    3f4c:	ffff ffff ffff ffff ffff ffff ffff ffff     ................
    3f5c:	ffff ffff ffff ffff ffff ffff ffff ffff     ................
    3f6c:	ffff ffff ffff ffff ffff ffff ffff ffff     ................
    3f7c:	ffff ffff ffff ffff ffff ffff ffff ffff     ................
    3f8c:	ffff ffff ffff ffff ffff ffff ffff ffff     ................
    3f9c:	ffff ffff ffff ffff ffff ffff ffff ffff     ................
    3fac:	ffff ffff ffff ffff ffff ffff ffff ffff     ................
    3fbc:	ffff ffff ffff ffff ffff ffff ffff ffff     ................
    3fcc:	ffff ffff ffff ffff ffff ffff ffff ffff     ................
    3fdc:	ffff ffff ffff ffff ffff ffff ffff ffff     ................
    3fec:	ffff ffff ffff ffff ffff ffff ffff ffff     ................
    3ffc:	ffff ffff ffff ffff ffff ffff ffff ffff     ................
    400c:	ffff ffff ffff ffff ffff ffff ffff ffff     ................
    401c:	ffff ffff ffff ffff ffff ffff ffff ffff     ................
    402c:	ffff ffff ffff ffff ffff ffff ffff ffff     ................
    403c:	ffff ffff ffff ffff ffff ffff ffff ffff     ................
    404c:	ffff ffff ffff ffff ffff ffff ffff ffff     ................
    405c:	ffff ffff ffff ffff ffff ffff ffff ffff     ................
    406c:	ffff ffff ffff ffff ffff ffff ffff ffff     ................
    407c:	ffff ffff ffff ffff ffff ffff ffff ffff     ................
    408c:	ffff ffff ffff ffff ffff ffff ffff ffff     ................
    409c:	ffff ffff ffff ffff feff ffff ffff ffff     ................
    40ac:	ffff ffff ffff ffff ffff ffff ffff ffff     ................
    40bc:	ffff ffff ffff ffff ffff ffff ffff dfff     ................
    40cc:	ffff ffff ffff ffff ffff ffff ffff ffff     ................
    40dc:	ffff ffff ffff ffff ffff ffff ffff ffff     ................
    40ec:	ffff ffff ffff ffff ffff ffff ffff ffff     ................
    40fc:	ffff ffff ffff ffff ffff ffff ffff ffff     ................
    410c:	ffff ffff ffff ffff ffff ffff ffff ffff     ................
    411c:	ffff ffff ffff ffff ffff ffff ffff ffff     ................
    412c:	ffff ffff ffff ffff ffff ffff ffff ffff     ................
    413c:	ffff ffff ffff ffff ffff ffff ffff ffff     ................
    414c:	ffff ffff ffff ffff ffff ffff ffff ffff     ................
    415c:	ffff ffff ffff ffff ffff ffff ffff fff7     ................
    416c:	ffff ffff ffef ffef ffef ffff ffff ffff     ................
    417c:	ffff ffff ffff ffff ffff ffff ffff ffff     ................
    418c:	ffff ffff fff7 fff7 ffff ffff fff7 ffef     ................
    419c:	ffef fff7 ffff ffff fff7 ffff ffff ffff     ................
    41ac:	ffff ffff ffff ffff ffff ffff ffff ffff     ................
    41bc:	ffff ffff ffff ffe7 ffef ffef ffff ffff     ................
    41cc:	ffff ffff ffff ffff ffff ffff ffff ffff     ................
    41dc:	ffff ffff ffff ffff ffff ffff ffff ffff     ................
    41ec:	ffff ffff ffff ffff ffff ffff ffff ffff     ................
    41fc:	ffff ffff ffff ffff ffff ffff ffff ffff     ................
    420c:	ffff ffff ffff ffff ffff ffff ffff ffff     ................
    421c:	ffff ffff ffff ffff ffff ffff ffff ffff     ................
    422c:	ffff ffff ffff ffff ffff ffff ffff ffff     ................
    423c:	ffff ffff ffff ffff ffff ffff ffff ffff     ................
    424c:	ffff ffff ffff ffff ffff ffff ffff ffff     ................
    425c:	ffff ffff ffff ffff feff fff7 ffff dfff     ................
    426c:	ffe7 5b86 193d 193d 193d 5b86 bfdf ffff     ...[=.=.=..[....
    427c:	fff7 ffff ffff ffff ffff ffff ffff ffff     ................
    428c:	ffff ffff ffff ffff ffff 5eaf 5a4d 193d     ...........^MZ=.
    429c:	193d bb55 5ec7 ffff dfff ffff ffff ffff     =.U..^..........
    42ac:	ffff ffff ffff ffff ffff ffff ffff feff     ................
    42bc:	ffef 9ecf 1b76 193d 193d 193d 5b86 ffe7     ....v.=.=.=..[..
    42cc:	fff7 ffff ffff ffff ffff ffff ffff ffff     ................
    42dc:	ffff ffff ffff ffff ffff ffff ffff ffff     ................
    42ec:	ffff ffff ffff ffff ffff ffff ffff ffff     ................
    42fc:	ffff ffff ffff ffff ffff ffff ffff ffff     ................
    430c:	ffff ffff ffff ffff ffff ffff ffff ffff     ................
    431c:	ffff ffff ffff ffff ffff ffff ffff ffff     ................
    432c:	ffff ffff ffff ffff ffff ffff ffff ffff     ................
    433c:	ffff ffff ffff ffff ffff ffff ffff ffff     ................
    434c:	ffff ffff ffff ffff ffff ffff ffff ffff     ................
    435c:	ffff ffff ffff ffff ffff dff7 dff7 dedf     ................
    436c:	5a4d 5b04 7d04 5c04 5c04 3b04 193d 5ec7     MZ.[.}.\.\.;=..^
    437c:	ffff ffff ffff ffff ffff ffff ffff ffff     ................
    438c:	ffff ffff ffff fff7 7c96 9a14 5c04 5c04     .........|...\.\
    439c:	7c04 5b04 b91c bd9e fff7 ffff ffff ffff     .|.[............
    43ac:	ffff ffff ffff ffff ffff ffff ffff ffff     ................
    43bc:	dda6 b91c 5c04 5d04 5c04 5c04 5a04 db65     .....\.].\.\.Ze.
    43cc:	ffe7 fff7 ffff dfff ffff ffff ffff ffff     ................
    43dc:	ffff ffff ffff ffff ffff ffff ffff ffff     ................
    43ec:	ffff ffff ffff ffff ffff ffff ffff ffff     ................
    43fc:	ffff ffff ffff ffff ffff ffff ffff ffff     ................
    440c:	ffff ffff ffff ffff ffff ffff ffff ffff     ................
    441c:	ffff ffff ffff ffff ffff ffff ffff ffff     ................
    442c:	ffff ffff ffff ffff ffff ffff ffff ffff     ................
    443c:	ffff ffff ffff ffff ffff ffff ffff ffff     ................
    444c:	ffff ffff ffff ffff ffff ffff ffff ffff     ................
    445c:	ffff ffff ffff ffff ffff dfff ffef db65     ..............e.
    446c:	3a04 9d04 9e04 9e04 9d04 9d04 5b04 193d     .:...........[=.
    447c:	bedf ffff ffff ffff ffff ffff ffff ffff     ................
    448c:	ffff ffff ffff 1daf 790c 7c04 7d04 be04     .........y.|.}..
    449c:	9d04 7d04 7d04 9914 1db7 ffff ffff ffff     ...}.}..........
    44ac:	ffff ffff ffff ffff ffff ffff ffff bedf     ................
    44bc:	da2c 5b04 7d04 9e04 bd04 9e04 7d04 3a04     ,..[.}.......}.:
    44cc:	7c96 fff7 fff7 ffff ffff ffff ffff ffff     .|..............
    44dc:	ffff ffff ffff ffff ffff ffff ffff ffff     ................
    44ec:	ffff ffff ffff ffff ffff ffff ffff ffff     ................
    44fc:	ffff ffff ffff ffff ffff ffff ffff ffff     ................
    450c:	ffff ffff ffff ffff ffff ffff ffff ffff     ................
    451c:	ffff ffff ffff ffff ffff ffff ffff ffff     ................
    452c:	ffff ffff ffff ffff ffff ffff ffff ffff     ................
    453c:	ffff ffff ffff ffff ffff ffff ffff ffff     ................
    454c:	ffff ffff ffff ffff ffff ffff ffff ffff     ................
    455c:	ffff ffff ffff ffff ffff ffff 5ebf 790c     .............^.y
    456c:	9d04 9d04 9d04 9d04 9d04 9d04 9d04 3b04     ...............;
    457c:	bd9e ffff ffff ffff ffff ffff ffff ffff     ................
    458c:	ffff ffff ffef 193d 5c04 9e04 9e04 9e04     ......=..\......
    459c:	7d04 9e04 be04 3a04 db65 fff7 ffff ffff     .}.....:e.......
    45ac:	ffff ffff ffff ffff ffff ffff ffff 7c86     ...............|
    45bc:	3b04 9d04 9d04 9d04 9d04 9d04 9d04 7d04     .;.............}
    45cc:	da2c bfd7 ffff ffff ffff ffff ffff ffff     ,...............
    45dc:	ffff ffff ffff ffff ffff ffff ffff ffff     ................
    45ec:	ffff ffff ffff ffff ffff ffff ffff ffff     ................
    45fc:	ffff ffff ffff ffff ffff ffff ffff ffff     ................
    460c:	ffff ffff ffff ffff ffff ffff ffff ffff     ................
    461c:	ffff ffff ffff ffff ffff ffff ffff ffff     ................
    462c:	ffff ffff ffff ffff ffff ffff ffff ffff     ................
    463c:	ffff ffff ffff ffff ffff ffff ffff ffff     ................
    464c:	ffff ffff ffff ffff ffff ffff ffff ffff     ................
    465c:	ffff ffff ffff ffff ffff ffff 5b86 3b04     .............[.;
    466c:	9e04 9e04 9d04 9d04 9d04 9d04 9d04 5c04     ...............\
    467c:	1b76 ffff ffff ffff ffff ffff ffff ffff     v...............
    468c:	ffff ffff 5dcf 9914 9d04 be04 9e04 7d04     .....].........}
    469c:	9d04 bd04 be04 5b04 1a35 dfdf ffff dfff     .......[5.......
    46ac:	ffff ffff ffff ffff ffff ffff fff7 bb55     ..............U.
    46bc:	5c04 bd04 9d04 9d04 9d04 9d04 9e04 9d04     .\..............
    46cc:	7a0c 5ebf ffff ffff ffff ffff ffff ffff     .z.^............
    46dc:	ffff ffff ffff ffff ffff ffff ffff ffff     ................
    46ec:	ffff ffff ffff ffff ffff ffff ffff ffff     ................
    46fc:	ffff ffff ffff ffff ffff ffff ffff ffff     ................
    470c:	ffff ffff ffff ffff ffff ffff ffff ffff     ................
    471c:	ffff ffff ffff ffff ffff ffff ffff ffff     ................
    472c:	ffff ffff ffff ffff ffff ffff ffff ffff     ................
    473c:	ffff ffff ffff ffff ffff ffff ffff ffff     ................
    474c:	ffff ffff ffff ffff ffff ffff ffff ffff     ................
    475c:	ffff ffff ffff ffff ffff ffff 1b76 3b04     ............v..;
    476c:	be04 9e04 9d04 9d04 9d04 9d04 9e04 5c04     ...............\
    477c:	db65 ffff ffff ffff ffff ffff ffff ffff     e...............
    478c:	ffff ffff bca6 3a04 be04 be04 9e04 7d04     .......:.......}
    479c:	9c04 9d04 9e04 7c04 ba1c 9ed7 ffff dfff     .......|........
    47ac:	ffff ffff ffff ffff ffff ffff bfdf da2c     ..............,.
    47bc:	7c04 9e04 9d04 9d04 9d04 9d04 9d04 9e04     .|..............
    47cc:	7b04 1db7 ffff ffff ffff ffff ffff ffff     .{..............
    47dc:	ffff ffff ffff ffff ffff ffff ffff ffff     ................
    47ec:	ffff ffff ffff ffff ffff ffff ffff ffff     ................
    47fc:	ffff ffff ffff ffff ffff ffff ffff ffff     ................
    480c:	ffff ffff ffff ffff ffff ffff ffff ffff     ................
    481c:	ffff ffff ffff ffff ffff ffff ffff ffff     ................
    482c:	ffff ffff ffff ffff ffff ffff ffff ffff     ................
    483c:	ffff ffff ffff ffff ffff ffff ffff ffff     ................
    484c:	ffff ffff ffff ffff ffff ffff ffff ffff     ................
    485c:	ffff ffff ffff ffff ffff ffff 1b76 3b04     ............v..;
    486c:	9e04 9d04 9d04 9d04 9d04 bd04 9e04 7c04     ...............|
    487c:	db65 ffff ffff ffff ffff ffff ffff ffff     e...............
    488c:	ffff ffff dda6 3a04 9d04 9d04 9e04 9d04     .......:........
    489c:	9c04 9d04 9e04 7d04 db1c bfd7 ffff ffff     .......}........
    48ac:	ffff ffff ffff ffff ffff ffff bedf da2c     ..............,.
    48bc:	7d04 9e04 9d04 9d04 9d04 9d04 9d04 9e04     .}..............
    48cc:	7c04 fea6 ffff ffff ffff ffff ffff ffff     .|..............
    48dc:	ffff ffff ffff ffff ffff ffff ffff ffff     ................
    48ec:	ffff ffff ffff ffff ffff ffff ffff ffff     ................
    48fc:	ffff ffff ffff ffff ffff ffff ffff ffff     ................
    490c:	ffff ffff ffff ffff ffff ffff ffff ffff     ................
    491c:	ffff ffff ffff ffff ffff ffff ffff ffff     ................
    492c:	ffff ffff ffff ffff ffff ffff ffff ffff     ................
    493c:	ffff ffff ffff ffff ffff ffff ffff ffff     ................
    494c:	ffff ffff ffff ffff ffff ffff ffff ffff     ................
    495c:	ffff ffff ffff ffff ffff ffff 1b76 3b04     ............v..;
    496c:	9d04 9d04 9d04 9d04 9d04 9d04 9e04 5c04     ...............\
    497c:	db65 ffff ffff ffff ffff ffff ffff ffff     e...............
    498c:	ffff ffff dda6 5a04 9d04 9d04 9e04 9d04     .......Z........
    499c:	9d04 9d04 9d04 7d04 db1c bfd7 ffff ffff     .......}........
    49ac:	ffff ffff ffff ffff ffff ffff bfd7 da2c     ..............,.
    49bc:	7d04 9e04 9d04 9d04 9d04 9d04 9d04 9e04     .}..............
    49cc:	7b04 fea6 ffff ffff ffff ffff ffff ffff     .{..............
    49dc:	ffff ffff ffff ffff ffff ffff ffff ffff     ................
    49ec:	ffff ffff ffff ffff ffff ffff ffff ffff     ................
    49fc:	ffff ffff ffff ffff ffff ffff ffff ffff     ................
    4a0c:	ffff ffff ffff ffff ffff ffff ffff ffff     ................
    4a1c:	ffff ffff ffff ffff ffff ffff ffff ffff     ................
    4a2c:	ffff ffff ffff ffff ffff ffff ffff ffff     ................
    4a3c:	ffff ffff ffff ffff ffff ffff ffff ffff     ................
    4a4c:	ffff ffff ffff ffff ffff ffff ffff ffff     ................
    4a5c:	ffff ffff ffff ffff ffff ffff 1b76 5b04     ............v..[
    4a6c:	9e04 9d04 9d04 9d04 9d04 bd04 9e04 5c04     ...............\
    4a7c:	db65 ffff ffff ffff ffff ffff ffff ffff     e...............
    4a8c:	ffff ffff dda6 5a04 7d04 bd04 9d04 9d04     .......Z.}......
    4a9c:	9e04 9e04 9e04 7d04 db1c dfdf ffff ffff     .......}........
    4aac:	ffff ffff ffff ffff ffff ffff dedf db1c     ................
    4abc:	7d04 7d04 9d04 9d04 9d04 9d04 9d04 9e04     .}.}............
    4acc:	7b04 fea6 ffff ffff ffff ffff ffff ffff     .{..............
    4adc:	ffff ffff ffff ffff ffff ffff ffff ffff     ................
    4aec:	ffff ffff ffff ffff ffff ffff ffff ffff     ................
    4afc:	ffff ffff ffff ffff ffff ffff ffff ffff     ................
    4b0c:	ffff ffff ffff ffff ffff ffff ffff ffff     ................
    4b1c:	ffff ffff ffff ffff ffff ffff ffff ffff     ................
    4b2c:	ffff ffff ffff ffff ffff ffff ffff ffff     ................
    4b3c:	ffff ffff ffff ffff ffff ffff ffff ffff     ................
    4b4c:	ffff ffff ffff ffff ffff ffff ffff ffff     ................
    4b5c:	ffff ffff ffff ffff ffff ffff 1b76 3b04     ............v..;
    4b6c:	9e04 9e04 9d04 bd04 9d04 be04 9d04 7c04     ...............|
    4b7c:	db65 ffff ffff ffff ffff ffff ffff ffff     e...............
    4b8c:	ffff ffff dda6 3a04 9d04 9d04 9d04 9d04     .......:........
    4b9c:	9e04 9e04 7d04 7d04 db1c ffe7 ffff ffff     .....}.}........
    4bac:	ffff ffff ffff ffff ffff ffff ffe7 1a35     ..............5.
    4bbc:	7d04 9d04 9d04 9d04 9e04 9e04 9e04 9e04     .}..............
    4bcc:	9c04 5ebf ffff ffff ffff ffff ffff ffff     ...^............
    4bdc:	ffff ffff ffff ffff ffff ffff ffff ffff     ................
    4bec:	ffff ffff ffff ffff ffff ffff ffff ffff     ................
    4bfc:	ffff ffff ffff ffff ffff ffff ffff ffff     ................
    4c0c:	ffff ffff ffff ffff ffff ffff ffff ffff     ................
    4c1c:	ffff ffff ffff ffff ffff ffff ffff ffff     ................
    4c2c:	ffff ffff ffff ffff ffff ffff ffff ffff     ................
    4c3c:	ffff ffff ffff ffff ffff ffff ffff ffff     ................
    4c4c:	ffff fff7 ffff dfff ffff ffef bfd7 5ec7     ...............^
    4c5c:	1db7 1daf 1daf 1db7 1daf 5eaf bb55 7b04     ...........^U..{
    4c6c:	be04 9e04 9d04 9d04 9d04 9e04 9d04 7e04     ...............~
    4c7c:	bd4d 5ec7 1db7 1db7 1daf 1daf 1daf 1daf     M..^............
    4c8c:	1daf 5ebf 7c86 5a04 bf04 9e04 9d04 9d04     ...^.|.Z........
    4c9c:	9d04 9e04 9d04 7d04 db14 5eaf 1db7 1daf     .......}...^....
    4cac:	1daf 1daf 1db7 1db7 1daf 1db7 7eb7 1b2d     .............~-.
    4cbc:	7d04 9d04 9d04 9d04 9d04 9d04 9d04 9e04     .}..............
    4ccc:	7c04 bd9e 5ec7 1daf 1db7 1daf 1daf dda6     .|...^..........
    4cdc:	1db7 ffe7 ffff ffff dfff ffff ffff ffff     ................
    4cec:	ffff ffff ffff ffff ffff ffff ffff ffff     ................
    4cfc:	ffff ffff ffff ffff ffff ffff ffff ffff     ................
    4d0c:	ffff ffff ffff ffff ffff ffff ffff ffff     ................
    4d1c:	ffff ffff ffff ffff ffff ffff ffff ffff     ................
    4d2c:	ffff ffff ffff ffff ffff ffff ffff ffff     ................
    4d3c:	ffff ffff ffff ffff ffff ffff ffff ffff     ................
    4d4c:	ffff ffff ffff ffff bedf db65 db1c db14     ..........e.....
    4d5c:	7a0c 5a04 5a04 7a0c 7a0c 9b0c 9b04 9c04     .z.Z.Z.z.z......
    4d6c:	9d04 9d04 9e04 9e04 bd04 bd04 9c04 9e04     ................
    4d7c:	bd0c db14 7b0c 7a0c 7b04 7a0c 7a0c 7a0c     .....{.z.{.z.z.z
    4d8c:	7a0c 9a14 db14 bc04 be04 9e04 9d04 9d04     .z..............
    4d9c:	9e04 9e04 9e04 9d04 9c04 db14 7b0c 7a0c     .............{.z
    4dac:	7a0c 7a0c 7a0c 7a0c 7b04 7b0c 9a14 9c04     .z.z.z.z.{.{....
    4dbc:	be04 9d04 9d04 9d04 9d04 9d04 9d04 9e04     ................
    4dcc:	7d04 db14 9a14 7b04 7b0c 7b04 5a04 5a04     .}.....{.{.{.Z.Z
    4ddc:	790c 1b2d 1b76 bfdf ffff feff fff7 ffff     .y-.v...........
    4dec:	feff ffff ffff ffff ffff ffff ffff ffff     ................
    4dfc:	ffff ffff ffff ffff ffff ffff ffff ffff     ................
    4e0c:	ffff ffff ffff ffff ffff ffff ffff ffff     ................
    4e1c:	ffff ffff ffff ffff ffff ffff ffff ffff     ................
    4e2c:	ffff ffff ffff ffff ffff ffff ffff ffff     ................
    4e3c:	ffff ffff ffff ffff ffff ffff ffff ffff     ................
    4e4c:	ffff ffff ffff 5ec7 1a35 3b04 7c04 7d04     .......^5..;.|.}
    4e5c:	7d04 7d04 9d04 9c04 7d04 7e04 7d04 9d04     .}.}.....}.~.}..
    4e6c:	9d04 9d04 bd04 bd04 bd04 9d04 9d04 9d04     ................
    4e7c:	9d04 9d04 9d04 9d04 9d04 9d04 9d04 7d04     ...............}
    4e8c:	7d04 7d04 9d04 9c04 9c04 9d04 9d04 bd04     .}.}............
    4e9c:	9e04 9e04 9e04 9e04 9d04 7d04 7d04 7d04     ...........}.}.}
    4eac:	7d04 7d04 7d04 9c04 7d04 9e04 9c04 9c04     .}.}.}...}......
    4ebc:	9e04 bd04 9d04 9d04 9d04 9d04 9d04 9d04     ................
    4ecc:	9d04 9c04 7d04 9e04 7d04 7d04 9d04 9d04     .....}...}.}....
    4edc:	7c04 9c04 5c04 193d 5dcf ffff ffff fff7     .|...\=..]......
    4eec:	feff ffff ffff ffff ffff ffff ffff ffff     ................
    4efc:	ffff ffff ffff ffff ffff ffff ffff ffff     ................
    4f0c:	ffff ffff ffff ffff ffff ffff ffff ffff     ................
    4f1c:	ffff ffff ffff ffff ffff ffff ffff ffff     ................
    4f2c:	ffff ffff ffff ffff ffff ffff ffff ffff     ................
    4f3c:	ffff ffff ffff ffff ffff ffff ffff ffff     ................
    4f4c:	feff ffff 7ecf da2c 5c04 7d04 9d04 9d04     .....~,..\.}....
    4f5c:	9e04 9e04 9e04 9e04 7d04 9d04 9d04 9e04     .........}......
    4f6c:	9e04 9e04 9d04 9d04 9d04 9e04 be04 bd04     ................
    4f7c:	9d04 9e04 bd04 9d04 9d04 9d04 9d04 9d04     ................
    4f8c:	9d04 bd04 9d04 9d04 9c04 9d04 9d04 9d04     ................
    4f9c:	9e04 9e04 9e04 9e04 7d04 9e04 9e04 9e04     .........}......
    4fac:	9e04 9e04 9e04 9d04 9d04 9e04 bd04 9d04     ................
    4fbc:	9d04 9d04 9d04 9d04 9d04 9d04 9d04 9d04     ................
    4fcc:	9d04 be04 9e04 9d04 bd04 be04 be04 be04     ................
    4fdc:	9e04 7d04 9d04 5b04 da2c 9ed7 ffff ffff     ...}...[,.......
    4fec:	feff ffff ffff ffff ffff ffff ffff ffff     ................
    4ffc:	ffff ffff ffff ffff ffff ffff ffff ffff     ................
    500c:	ffff ffff ffff ffff ffff ffff ffff ffff     ................
    501c:	ffff ffff ffff ffff ffff ffff ffff ffff     ................
    502c:	ffff ffff ffff ffff ffff ffff ffff ffff     ................
    503c:	ffff ffff ffff ffff ffff ffff ffff fff7     ................
    504c:	fff7 ffff db65 5a04 9e04 be04 9e04 9e04     ....e..Z........
    505c:	9d04 9d04 9d04 9d04 9c04 bc04 bd04 9d04     ................
    506c:	9e04 9e04 9d04 9d04 9d04 9e04 9d04 9d04     ................
    507c:	9d04 7d04 9d04 9d04 9d04 9d04 9d04 9d04     ...}............
    508c:	9d04 bd04 9d04 7d04 9e04 7d04 9d04 9d04     .......}...}....
    509c:	9d04 9d04 9d04 7d04 7d04 7d04 9d04 9d04     .......}.}.}....
    50ac:	9d04 7d04 9d04 9d04 bd04 9e04 9e04 7d04     ...}...........}
    50bc:	9d04 7d04 7d04 9d04 9d04 7d04 9d04 9d04     ...}.}.....}....
    50cc:	9e04 9e04 7d04 9d04 9d04 9d04 9d04 bd04     .....}..........
    50dc:	9e04 9d04 9d04 9d04 3c04 fb6d ffff deff     .........<m.....
    50ec:	ffff ffff ffff ffff ffff ffff ffff ffff     ................
    50fc:	ffff ffff ffff ffff ffff ffff ffff ffff     ................
    510c:	ffff ffff ffff ffff ffff ffff ffff ffff     ................
    511c:	ffff ffff ffff ffff ffff ffff ffff ffff     ................
    512c:	ffff ffff ffff ffff ffff ffff ffff ffff     ................
    513c:	ffff ffff ffff ffff ffff ffff ffff ffff     ................
    514c:	ffff 7edf ba1c 9c04 9d04 9e04 9e04 9e04     ...~............
    515c:	9d04 9d04 9d04 9d04 7d04 9d04 9d04 7d04     .........}.....}
    516c:	7d04 9d04 7d04 7d04 7d04 9d04 9c04 7d04     .}...}.}.}.....}
    517c:	9d04 9d04 7d04 7d04 7d04 7d04 7d04 7d04     .....}.}.}.}.}.}
    518c:	7d04 9c04 9c04 7d04 9d04 9c04 7c04 9d04     .}.....}.....|..
    519c:	9c04 9c04 9c04 7d04 7d04 9d04 7d04 7d04     .......}.}...}.}
    51ac:	7d04 9d04 7d04 7d04 9c04 9c04 7d04 7d04     .}...}.}.....}.}
    51bc:	9d04 9d04 7d04 9d04 9d04 9d04 9d04 7d04     .....}.........}
    51cc:	7e04 7d04 bd04 bd04 9d04 9d04 9d04 9d04     .~.}............
    51dc:	9d04 9e04 9e04 9d04 7c04 1a35 ffe7 feff     .........|5.....
    51ec:	fff7 ffff ffff ffff ffff ffff ffff ffff     ................
    51fc:	ffff ffff ffff ffff ffff ffff ffff ffff     ................
    520c:	ffff ffff ffff ffff ffff ffff ffff ffff     ................
    521c:	ffff ffff ffff ffff ffff ffff ffff ffff     ................
    522c:	ffff ffff ffff ffff ffff ffff ffff ffff     ................
    523c:	ffff ffff ffff ffff ffff ffff ffff ffff     ................
    524c:	ffff 5ebf 7b04 9d04 9d04 9d04 9d04 9d04     ...^.{..........
    525c:	9d04 9d04 9d04 9d04 7d04 7d04 7d04 7d04     .........}.}.}.}
    526c:	7d04 7d04 7d04 7d04 7d04 7d04 7d04 7d04     .}.}.}.}.}.}.}.}
    527c:	7d04 7d04 7d04 7d04 7d04 7d04 7d04 7d04     .}.}.}.}.}.}.}.}
    528c:	7d04 7d04 7d04 7d04 9d04 9d04 9c04 9c04     .}.}.}.}........
    529c:	7d04 7d04 7d04 7d04 7d04 7d04 7d04 7d04     .}.}.}.}.}.}.}.}
    52ac:	7d04 7d04 7d04 7d04 9c04 9c04 7d04 7d04     .}.}.}.}.....}.}
    52bc:	7d04 7d04 7d04 7d04 7d04 9d04 7d04 7d04     .}.}.}.}.}...}.}
    52cc:	7d04 7d04 bd04 bd04 7d04 9d04 9d04 9d04     .}.}.....}......
    52dc:	9d04 9e04 9e04 9d04 9d04 9a0c 5ec7 ffff     .............^..
    52ec:	ffff ffff ffff ffff ffff ffff ffff ffff     ................
    52fc:	ffff ffff ffff ffff ffff ffff ffff ffff     ................
    530c:	ffff ffff ffff ffff ffff ffff ffff ffff     ................
    531c:	ffff ffff ffff ffff ffff ffff ffff ffff     ................
    532c:	ffff ffff ffff ffff ffff ffff ffff ffff     ................
    533c:	ffff ffff ffff ffff ffff ffff ffff ffff     ................
    534c:	ffff 1db7 7b0c 9d04 bd04 9d04 9d04 9d04     .....{..........
    535c:	9d04 9d04 9d04 9d04 9d04 7d04 7d04 7d04     ...........}.}.}
    536c:	7c04 7c04 7c04 7c04 7c04 7d04 7d04 7c04     .|.|.|.|.|.}.}.|
    537c:	7c04 7c04 7c04 7c04 7c04 7c04 7c04 7c04     .|.|.|.|.|.|.|.|
    538c:	7d04 7d04 7d04 7d04 7d04 7d04 7d04 7d04     .}.}.}.}.}.}.}.}
    539c:	7d04 7c04 7c04 7c04 7c04 7c04 7d04 7d04     .}.|.|.|.|.|.}.}
    53ac:	7d04 7d04 7d04 7c04 7c04 7c04 7d04 7d04     .}.}.}.|.|.|.}.}
    53bc:	7d04 7d04 7d04 7c04 7c04 7c04 9c04 7c04     .}.}.}.|.|.|...|
    53cc:	7d04 7d04 7d04 7d04 7d04 7d04 9d04 9d04     .}.}.}.}.}.}....
    53dc:	9d04 9d04 9d04 9e04 9d04 9b0c 5ec7 ffff     .............^..
    53ec:	ffff ffff ffff ffff ffff ffff ffff ffff     ................
    53fc:	ffff ffff ffff ffff ffff ffff ffff ffff     ................
    540c:	ffff ffff ffff ffff ffff ffff ffff ffff     ................
    541c:	ffff ffff ffff ffff ffff ffff ffff ffff     ................
    542c:	ffff ffff ffff ffff ffff ffff ffff ffff     ................
    543c:	ffff ffff ffff ffff ffff ffff ffff ffff     ................
    544c:	ffff 5ebf 7b04 9d04 bd04 9d04 9d04 9d04     ...^.{..........
    545c:	7d04 7d04 7d04 7d04 7c04 7c04 5c04 5c04     .}.}.}.}.|.|.\.\
    546c:	5c04 5c04 5c04 5c04 5c04 5c04 5c04 5c04     .\.\.\.\.\.\.\.\
    547c:	5c04 5c04 5c04 5c04 5c04 5c04 5c04 5c04     .\.\.\.\.\.\.\.\
    548c:	5c04 5c04 5c04 5c04 5c04 5c04 5c04 5c04     .\.\.\.\.\.\.\.\
    549c:	5c04 5c04 5c04 5c04 5c04 5c04 5c04 5c04     .\.\.\.\.\.\.\.\
    54ac:	5c04 5c04 5c04 5c04 5c04 5c04 5c04 5c04     .\.\.\.\.\.\.\.\
    54bc:	5c04 5c04 5c04 5c04 5c04 5c04 5c04 5c04     .\.\.\.\.\.\.\.\
    54cc:	5c04 5c04 5c04 7d04 7d04 9d04 9d04 9d04     .\.\.\.}.}......
    54dc:	9d04 9d04 9d04 9e04 9d04 9b0c 7ecf ffff     .............~..
    54ec:	ffff ffff ffff ffff ffff ffff ffff ffff     ................
    54fc:	ffff ffff ffff ffff ffff ffff ffff ffff     ................
    550c:	ffff ffff ffff ffff ffff ffff ffff ffff     ................
    551c:	ffff ffff ffff ffff ffff ffff ffff ffff     ................
    552c:	ffff ffff ffff ffff ffff ffff ffff ffff     ................
    553c:	ffff ffff ffff ffff ffff ffff ffff ffff     ................
    554c:	ffff 5ebf 9b0c 9d04 be04 9d04 9d04 9d04     ...^............
    555c:	9d04 7d04 7c04 7c04 5c04 5c04 5c04 5c04     ...}.|.|.\.\.\.\
    556c:	5c04 5c04 5c04 5c04 5c04 5c04 5c04 5c04     .\.\.\.\.\.\.\.\
    557c:	5c04 5c04 5c04 5c04 5c04 5c04 5c04 5c04     .\.\.\.\.\.\.\.\
    558c:	5c04 5c04 5c04 5c04 5c04 5c04 5c04 5c04     .\.\.\.\.\.\.\.\
    559c:	5c04 5c04 5c04 5c04 5c04 5c04 5c04 5c04     .\.\.\.\.\.\.\.\
    55ac:	5c04 5c04 5c04 5c04 5c04 5c04 5c04 5c04     .\.\.\.\.\.\.\.\
    55bc:	5c04 5c04 5c04 5c04 5c04 5c04 5c04 5c04     .\.\.\.\.\.\.\.\
    55cc:	5c04 7c04 7c04 5c04 7c04 9c04 9d04 9d04     .\.|.|.\.|......
    55dc:	9d04 9d04 9d04 9d04 9d04 9b0c 7ecf ffff     .............~..
    55ec:	ffff ffff ffff ffff ffff ffff ffff ffff     ................
    55fc:	ffff ffff ffff ffff ffff ffff ffff ffff     ................
    560c:	ffff ffff ffff ffff ffff ffff ffff ffff     ................
    561c:	ffff ffff ffff ffff ffff ffff ffff ffff     ................
    562c:	ffff ffff ffff ffff ffff ffff ffff ffff     ................
    563c:	ffff ffff ffff ffff ffff ffff ffff ffff     ................
    564c:	ffff 5ebf 7b0c 9d04 be04 9d04 9d04 9d04     ...^.{..........
    565c:	9d04 7d04 5c04 5c04 1e05 7f05 7f05 9f05     ...}.\.\........
    566c:	7f05 7f05 7f05 7f05 7f05 7f05 9f05 9f05     ................
    567c:	9f05 9f05 9f05 9f05 9f05 9f05 9f05 9f05     ................
    568c:	9f05 9f05 9f05 9f05 9f05 9f05 9f05 9f05     ................
    569c:	7f05 7f05 7f05 7f05 7f05 7f05 9f05 9f05     ................
    56ac:	9f05 9f05 9f05 9f05 9f05 9f05 9f05 9f05     ................
    56bc:	9f05 9f05 9f05 7f05 9f05 9f05 9f05 9f05     ................
    56cc:	9f05 9f05 7f05 fd04 5c04 5c04 7d04 9d04     .........\.\.}..
    56dc:	9d04 9d04 9d04 9d04 9d04 9b0c 7ecf ffff     .............~..
    56ec:	ffff ffff ffff ffff ffff ffff ffff ffff     ................
    56fc:	ffff ffff ffff ffff ffff ffff ffff ffff     ................
    570c:	ffff ffff ffff ffff ffff ffff ffff ffff     ................
    571c:	ffff ffff ffff ffff ffff ffff ffff ffff     ................
    572c:	ffff ffff ffff ffff ffff ffff ffff ffff     ................
    573c:	ffff ffff ffff ffff ffff ffff ffff ffff     ................
    574c:	ffff 5ebf 7b0c 9d04 bd04 9d04 9d04 9d04     ...^.{..........
    575c:	7d04 7d04 5c04 1e05 df05 df05 bf05 bf05     .}.}.\..........
    576c:	9f05 9f05 9f05 9f05 9f05 9f05 9f05 9f05     ................
    577c:	9f05 9f05 9f05 9f05 9f05 9f05 9f05 9f05     ................
    578c:	9f05 9f05 9f05 9f05 9f05 9f05 9f05 9f05     ................
    579c:	9f05 9f05 9f05 9f05 9f05 9f05 9f05 9f05     ................
    57ac:	9f05 9f05 9f05 9f05 9f05 9f05 9f05 9f05     ................
    57bc:	9f05 9f05 9f05 9f05 9f05 9f05 9f05 9f05     ................
    57cc:	bf05 bf05 df05 df05 fd04 5c04 7d04 7d04     ...........\.}.}
    57dc:	9d04 9d04 9d04 9d04 9d04 9b0c 7ecf ffff     .............~..
    57ec:	ffff ffff ffff ffff ffff ffff ffff ffff     ................
    57fc:	ffff ffff ffff ffff ffff ffff ffff ffff     ................
    580c:	ffff ffff ffff ffff ffff ffff ffff ffff     ................
    581c:	ffff ffff ffff ffff ffff ffff ffff ffff     ................
    582c:	ffff ffff ffff ffff ffff feff ffff ffff     ................
    583c:	ffff ffff ffff ffff ffff ffff ffff ffff     ................
    584c:	ffff 7ebf 9b0c 9d04 9d04 9d04 9d04 9d04     ...~............
    585c:	7d04 5c04 7c04 bf05 df05 9f05 9f05 9f05     .}.\.|..........
    586c:	9f05 9f05 9f05 9f05 9f05 9f05 9f05 9f05     ................
    587c:	9f05 9f05 9f05 9f05 9f05 9f05 9f05 9f05     ................
    588c:	9f05 9f05 9f05 9f05 9f05 9f05 9f05 9f05     ................
    589c:	9f05 9f05 9f05 9f05 9f05 9f05 9f05 9f05     ................
    58ac:	9f05 9f05 9f05 9f05 9f05 9f05 9f05 9f05     ................
    58bc:	9f05 9f05 9f05 9f05 9f05 9f05 9f05 9f05     ................
    58cc:	9f05 9f05 bf05 df05 7f05 7c04 7c04 7d04     ...........|.|.}
    58dc:	9d04 9d04 9d04 9d04 9d04 9b0c 7ecf ffff     .............~..
    58ec:	ffff ffff ffff ffff ffff ffff ffff ffff     ................
    58fc:	ffff ffff ffff ffff ffff ffff ffff ffff     ................
    590c:	ffff ffff ffff ffff ffff ffff ffff ffff     ................
    591c:	ffff ffff ffff ffff ffff ffff ffff ffff     ................
    592c:	ffff ffff ffff ffff ffff feff dff7 deff     ................
    593c:	feff ffff bfdf 1db7 1daf 1daf 1daf 1daf     ................
    594c:	1db7 7c86 9d04 bf04 9c04 9d04 9d04 9d04     ...|............
    595c:	7d04 5c04 7c04 bf05 bf05 9f05 9f05 9f05     .}.\.|..........
    596c:	7f05 7f05 7f05 7f05 7f05 7f05 7f05 7f05     ................
    597c:	7f05 7f05 7f05 7f05 7f05 7f05 7f05 7f05     ................
    598c:	7f05 7f05 7f05 7f05 7f05 7f05 7f05 7f05     ................
    599c:	7f05 7f05 7f05 7f05 7f05 7f05 7f05 7f05     ................
    59ac:	7f05 7f05 7f05 7f05 7f05 7f05 7f05 7f05     ................
    59bc:	7f05 7f05 7f05 7f05 7f05 7f05 9f05 9f05     ................
    59cc:	9f05 9f05 9f05 df05 9f05 7d04 5c04 7d04     ...........}.\.}
    59dc:	9d04 9d04 9d04 9d04 9d04 9c04 7c86 1db7     .............|..
    59ec:	1daf 1daf 1daf 1daf 1daf 7ebf fff7 ffff     ...........~....
    59fc:	deff ffff ffff ffff ffff ffff ffff ffff     ................
    5a0c:	ffff ffff ffff ffff ffff ffff ffff ffff     ................
    5a1c:	ffff ffff ffff ffff ffff ffff ffff ffff     ................
    5a2c:	ffff ffff ffff ffff ffff ffff ffff ffff     ................
    5a3c:	bfd7 db65 da2c 790c 5a04 5a04 5a04 7b04     ..e.,..y.Z.Z.Z.{
    5a4c:	5a04 5a04 bd04 be04 9d04 7d04 9d04 9d04     .Z.Z.......}....
    5a5c:	7d04 5c04 7c04 bf05 bf05 9f05 9f05 9f05     .}.\.|..........
    5a6c:	7f05 7f05 7f05 7f05 7f05 7f05 7f05 7f05     ................
    5a7c:	7f05 7f05 7f05 7f05 7f05 7f05 7f05 7f05     ................
    5a8c:	7f05 7f05 7f05 7f05 7f05 7f05 7f05 7f05     ................
    5a9c:	7f05 7f05 7f05 7f05 7f05 7f05 7f05 7f05     ................
    5aac:	7f05 7f05 7f05 7f05 7f05 7f05 7f05 7f05     ................
    5abc:	7f05 7f05 7f05 7f05 7f05 7f05 7f05 7f05     ................
    5acc:	7f05 7f05 9f05 df05 9f05 5c04 5c04 7d04     ...........\.\.}
    5adc:	9d04 9d04 9d04 9d04 9d04 bd04 5a04 5a04     .............Z.Z
    5aec:	7b04 5a04 5a04 5a04 3a04 ba1c 5b86 dfe7     .{.Z.Z.Z.:...[..
    5afc:	ffff dfff ffff ffff ffff ffff ffff ffff     ................
    5b0c:	ffff ffff ffff ffff ffff ffff ffff ffff     ................
    5b1c:	ffff ffff ffff ffff ffff ffff ffff ffff     ................
    5b2c:	ffff ffff ffff ffff ffff ffff ffff ffe7     ................
    5b3c:	5a4d 5b04 7d04 7d04 7d04 7d04 9e04 9e04     MZ.[.}.}.}.}....
    5b4c:	7d04 9c04 9c04 9d04 9e04 9d04 9d04 9d04     .}..............
    5b5c:	7d04 5c04 7c04 bf05 bf05 9f05 9f05 9f05     .}.\.|..........
    5b6c:	7f05 7f05 7f05 7f05 7f05 7f05 7f05 7f05     ................
    5b7c:	7f05 7f05 7f05 5f05 5f05 5f05 5f05 5f05     ......._._._._._
    5b8c:	5f05 5f05 5f05 5f05 5f05 5f05 7f05 7f05     ._._._._._._....
    5b9c:	7f05 7f05 7f05 7f05 7f05 7f05 7f05 7f05     ................
    5bac:	7f05 7f05 7f05 7f05 7f05 7f05 7f05 7f05     ................
    5bbc:	7f05 7f05 7f05 7f05 7f05 7f05 7f05 7f05     ................
    5bcc:	7f05 7f05 7f05 bf05 9f05 5c04 5c04 7d04     ...........\.\.}
    5bdc:	9d04 9d04 9d04 9d04 9d04 9c04 bd04 be04     ................
    5bec:	bf04 9e04 9e04 9d04 7e04 5d04 5a04 bb55     .........~.].ZU.
    5bfc:	ffef ffff ffff ffff ffff ffff ffff ffff     ................
    5c0c:	ffff ffff ffff ffff ffff ffff ffff ffff     ................
    5c1c:	ffff ffff ffff ffff ffff ffff ffff ffff     ................
    5c2c:	ffff ffff ffff ffff ffff feff ffff 5b86     ...............[
    5c3c:	3b04 9e04 9e04 be04 9e04 7d04 9d04 9d04     .;.........}....
    5c4c:	9d04 9d04 9d04 bd04 9d04 9c04 9d04 7d04     ...............}
    5c5c:	7d04 3c04 7c04 bf05 9f05 9f05 7f05 7f05     .}.<.|..........
    5c6c:	7f05 5f05 5f05 5f05 5f05 5f05 5f05 5f05     ..._._._._._._._
    5c7c:	5f05 5f05 5f05 5f05 5f05 5f05 5f05 5f05     ._._._._._._._._
    5c8c:	5f05 5f05 5f05 5f05 5f05 5f05 5f05 5f05     ._._._._._._._._
    5c9c:	5f05 5f05 5f05 5f05 5f05 5f05 5f05 5f05     ._._._._._._._._
    5cac:	5f05 5f05 5f05 5f05 5f05 5f05 5f05 5f05     ._._._._._._._._
    5cbc:	5f05 5f05 5f05 5f05 5f05 5f05 5f05 7f05     ._._._._._._._..
    5ccc:	7f05 7f05 7f05 bf05 9f05 5c04 5c04 7d04     ...........\.\.}
    5cdc:	9d04 9d04 9d04 9d04 9d04 9d04 9e04 7d04     ...............}
    5cec:	9d04 9d04 9d04 9e04 9e04 9d04 9d04 5b04     ...............[
    5cfc:	bd9e ffff ffff ffff ffff ffff ffff ffff     ................
    5d0c:	ffff ffff ffff ffff ffff ffff ffff ffff     ................
    5d1c:	ffff ffff ffff ffff ffff ffff ffff ffff     ................
    5d2c:	ffff ffff ffff ffff ffff ffff ffe7 3b3d     ..............=;
    5d3c:	5c04 9c04 bd04 bd04 9e04 9d04 9c04 9d04     .\..............
    5d4c:	bd04 be04 be04 9e04 9c04 9d04 9d04 9d04     ................
    5d5c:	7d04 5c04 7d04 bf05 9f05 7f05 7f05 7f05     .}.\.}..........
    5d6c:	7f05 5f05 5f05 5f05 5f05 5f05 5f05 5f05     ..._._._._._._._
    5d7c:	5f05 5f05 7f05 5f05 5f05 5f05 5f05 5f05     ._._..._._._._._
    5d8c:	5f05 5f05 5f05 5f05 5f05 7f05 5f05 5f05     ._._._._._..._._
    5d9c:	5f05 5f05 5f05 5f05 5f05 5f05 5f05 5f05     ._._._._._._._._
    5dac:	5f05 5f05 5f05 5f05 5f05 5f05 5f05 5f05     ._._._._._._._._
    5dbc:	5f05 5f05 5f05 5f05 5f05 5f05 5f05 7f05     ._._._._._._._..
    5dcc:	7f05 7f05 7f05 bf05 9f05 5c04 5c04 7d04     ...........\.\.}
    5ddc:	9d04 9d04 9d04 9d04 9d04 be04 9e04 9d04     ................
    5dec:	9d04 9e04 9d04 9e04 9d04 bd04 9d04 5c04     ...............\
    5dfc:	bb55 ffff ffff ffff ffff ffff ffff ffff     U...............
    5e0c:	ffff ffff ffff ffff ffff ffff ffff ffff     ................
    5e1c:	ffff ffff ffff ffff ffff ffff ffff ffff     ................
    5e2c:	ffff ffff ffff ffff ffff ffff bfd7 da2c     ..............,.
    5e3c:	5c04 9d04 be04 9e04 7d04 9d04 bd04 9d04     .\.......}......
    5e4c:	9d04 7d04 9e04 7d04 9c04 9d04 7d04 7d04     ...}...}.....}.}
    5e5c:	7d04 5c04 7d04 bf05 9f05 7f05 7f05 7f05     .}.\.}..........
    5e6c:	7f05 5f05 5f05 5f05 5f05 5f05 5f05 7f05     ..._._._._._._..
    5e7c:	5f05 5f05 7f05 7f05 5f05 5f05 5f05 5f05     ._._....._._._._
    5e8c:	5f05 5f05 5f05 5f05 5f05 7f05 5f05 5f05     ._._._._._..._._
    5e9c:	5f05 5f05 5f05 5f05 5f05 5f05 5f05 5f05     ._._._._._._._._
    5eac:	5f05 5f05 5f05 5f05 5f05 5f05 7f05 5f05     ._._._._._._..._
    5ebc:	5f05 5f05 5f05 5f05 5f05 5f05 7f05 7f05     ._._._._._._....
    5ecc:	7f05 7f05 7f05 bf05 9f05 5c04 5c04 7d04     ...........\.\.}
    5edc:	9d04 9d04 9d04 9d04 9d04 9e04 9d04 9c04     ................
    5eec:	bd04 9e04 9d04 9c04 9d04 bf04 9c04 5c04     ...............\
    5efc:	bd4d fff7 ffff ffff ffff ffff ffff ffff     M...............
    5f0c:	ffff ffff ffff ffff ffff ffff ffff ffff     ................
    5f1c:	ffff ffff ffff ffff ffff ffff ffff ffff     ................
    5f2c:	ffff ffff ffff ffff ffff ffff bfd7 da2c     ..............,.
    5f3c:	7b04 7d04 9e04 9e04 7d04 9d04 be04 bd04     .{.}.....}......
    5f4c:	9d04 9e04 9e04 7d04 9c04 9c04 9d04 7d04     .......}.......}
    5f5c:	7d04 5c04 7d04 9f05 9f05 7f05 7f05 7f05     .}.\.}..........
    5f6c:	5f05 5f05 5f05 5f05 5f05 3f05 3f05 5f05     ._._._._._.?.?._
    5f7c:	3f05 3f05 3f05 3f05 3f05 3f05 3f05 3f05     .?.?.?.?.?.?.?.?
    5f8c:	3f05 3f05 5f05 5f05 5f05 7f05 7f05 7f05     .?.?._._._......
    5f9c:	5f05 7f05 7f05 5f05 5f05 5f05 3f05 3f05     ._....._._._.?.?
    5fac:	3f05 3f05 3f05 3f05 3f05 3f05 3f05 3f05     .?.?.?.?.?.?.?.?
    5fbc:	3f05 3f05 5f05 5f05 5f05 5f05 7f05 7f05     .?.?._._._._....
    5fcc:	7f05 7f05 7f05 bf05 9f05 5c04 5c04 7d04     ...........\.\.}
    5fdc:	9d04 9d04 9d04 9d04 9d04 9e04 9d04 9c04     ................
    5fec:	bd04 9d04 9e04 9d04 9d04 be04 9c04 5d04     ...............]
    5ffc:	bd4d ffff ffff ffff ffff ffff ffff ffff     M...............
    600c:	ffff ffff ffff ffff ffff ffff ffff ffff     ................
    601c:	ffff ffff ffff ffff ffff ffff ffff ffff     ................
    602c:	ffff ffff ffff ffff ffff ffff ffef bb55     ..............U.
    603c:	3b04 7d04 9d04 bd04 9c04 9d04 9e04 9e04     .;.}............
    604c:	9d04 be04 9e04 9d04 9d04 9d04 9c04 9d04     ................
    605c:	7d04 5c04 7d04 9f05 9f05 7f05 7f05 7f05     .}.\.}..........
    606c:	5f05 5f05 7f05 5f05 1e05 fd3d 3d5e fe4d     ._._..._..=.^=M.
    607c:	fe4d fe4d fe4d fe4d fe4d fe4d fe4d 3d5e     M.M.M.M.M.M.M.^=
    608c:	3d5e fe4d fd3d 3f05 5f05 7f05 7f05 7f05     ^=M.=..?._......
    609c:	5f05 7f05 7f05 3f05 5f05 7e15 3d5e 3d5e     ._.....?._.~^=^=
    60ac:	3d5e fe4d 3d5e fe4d fe4d 3d5e fe4d fe4d     ^=M.^=M.M.^=M.M.
    60bc:	3d5e fe4d fd3d 5e05 5f05 5f05 5f05 7f05     ^=M.=..^._._._..
    60cc:	7f05 7f05 7f05 bf05 9f05 5c04 5c04 7d04     ...........\.\.}
    60dc:	9d04 9d04 9d04 9d04 9d04 9e04 9e04 9e04     ................
    60ec:	9e04 7d04 9e04 9e04 bd04 9d04 9d04 3b04     ...}...........;
    60fc:	1b76 ffff ffff ffff ffff ffff ffff ffff     v...............
    610c:	ffff ffff ffff ffff ffff ffff ffff ffff     ................
    611c:	ffff ffff ffff ffff ffff ffff ffff ffff     ................
    612c:	ffff ffff ffff ffff ffff ffff feff 5ec7     ...............^
    613c:	db1c 7b04 bd04 bd04 9e04 7d04 9e04 9e04     ...{.......}....
    614c:	9d04 9d04 9c04 bd04 9e04 7d04 9c04 9d04     ...........}....
    615c:	7d04 5c04 7d04 9f05 9f05 7f05 7f05 7f05     .}.\.}..........
    616c:	5f05 5f05 7f05 5f05 9d25 bfd7 ffff ffff     ._._..._%.......
    617c:	ffff ffff ffff ffff ffff ffff ffff ffff     ................
    618c:	ffff ffff 9ecf 5d15 5f05 7f05 5f05 5f05     .......]._..._._
    619c:	5f05 7f05 5f05 3f05 5f05 3d5e dfef dff7     ._..._.?._^=....
    61ac:	ffff ffff ffff ffff ffff ffff ffff ffff     ................
    61bc:	ffff ffff ffe7 fd3d 5f05 7f05 5f05 5f05     ......=.._..._._
    61cc:	7f05 7f05 7f05 bf05 9f05 5c04 5c04 7d04     ...........\.\.}
    61dc:	9d04 9d04 9d04 9d04 9d04 9c04 9d04 9e04     ................
    61ec:	7d04 9d04 9d04 bd04 9d04 9e04 5b04 da2c     .}...........[,.
    61fc:	9ecf ffff ffff ffff ffff ffff ffff ffff     ................
    620c:	ffff ffff ffff ffff ffff ffff ffff ffff     ................
    621c:	ffff ffff ffff ffff ffff ffff ffff ffff     ................
    622c:	ffff ffff ffff ffff ffff ffff ffff ffff     ................
    623c:	dda6 da2c 3a04 7c04 7d04 7d04 7c04 7c04     ..,..:.|.}.}.|.|
    624c:	7c04 7c04 9d04 9e04 9d04 9c04 9c04 7d04     .|.|...........}
    625c:	7d04 5c04 7c04 9f05 9f05 7f05 7f05 7f05     .}.\.|..........
    626c:	5f05 5f05 7f05 3f05 bd35 ffe7 ffff ffff     ._._...?5.......
    627c:	ffff ffff ffff ffff ffff ffff ffff ffff     ................
    628c:	ffff ffff ffef fd3d 5f05 5f05 5f05 5f05     ......=.._._._._
    629c:	7f05 7f05 5f05 5f05 5e05 5eaf ffff ffff     ....._._.^.^....
    62ac:	ffff ffff ffff ffff ffff ffff ffff ffff     ................
    62bc:	ffff ffff ffef fe4d 3f05 5f05 5f05 7f05     ......M..?._._..
    62cc:	7f05 7f05 7f05 bf05 9f05 5c04 5c04 7d04     ...........\.\.}
    62dc:	9d04 9d04 9d04 9d04 9d04 9d04 7c04 7c04     .............|.|
    62ec:	7d04 5d04 5d04 5c04 7c04 5c04 da2c 5ebf     .}.].].\.|.\,..^
    62fc:	ffff dfff ffff ffff ffff ffff ffff ffff     ................
    630c:	ffff ffff ffff ffff ffff ffff ffff ffff     ................
    631c:	ffff ffff ffff ffff ffff ffff ffff ffff     ................
    632c:	ffff ffff ffff ffff ffff ffff ffff feff     ................
    633c:	ffff 7dd7 5b86 bb55 1a35 1b2d 3b3d 3b3d     ...}.[U.5.-.=;=;
    634c:	bd35 bd35 7d04 7d04 9c04 9c04 9c04 7d04     5.5..}.}.......}
    635c:	7d04 5c04 7c04 9f05 9f05 7f05 7f05 7f05     .}.\.|..........
    636c:	5f05 5f05 7f05 3f05 bd35 ffe7 ffff ffff     ._._...?5.......
    637c:	ffff ffff ffff ffff ffff ffff ffff ffff     ................
    638c:	ffff ffff ffff de86 1f05 5f05 5f05 5f05     ..........._._._
    639c:	7f05 5f05 5f05 3f05 9d25 dfdf ffff fff7     ..._._.?%.......
    63ac:	ffff ffff ffff ffff ffff ffff ffff ffff     ................
    63bc:	ffff ffff ffef fe4d 3f05 5f05 7f05 7f05     ......M..?._....
    63cc:	5f05 7f05 7f05 bf05 9f05 5c04 5c04 7d04     ._.........\.\.}
    63dc:	9d04 9d04 9d04 9d04 9e04 9d04 bd4d 3b3d     ............M.=;
    63ec:	3b3d 3b3d 3b3d 1a35 fb6d 5b86 7dd7 ffff     =;=;=;5.m..[.}..
    63fc:	ffff dfff ffff ffff ffff ffff ffff ffff     ................
    640c:	ffff ffff ffff ffff ffff ffff ffff ffff     ................
    641c:	ffff ffff ffff ffff ffff ffff ffff ffff     ................
    642c:	ffff ffff ffff ffff ffff ffff ffff ffff     ................
    643c:	deff ffff dfff ffef ffe7 ffef ffef ffef     ................
    644c:	fff7 5ebf 7b0c 9d04 9d04 9d04 9d04 7d04     ...^.{.........}
    645c:	7d04 5c04 7c04 9f05 9f05 7f05 7f05 7f05     .}.\.|..........
    646c:	5f05 5f05 7f05 3f05 bd35 ffe7 ffff ffff     ._._...?5.......
    647c:	ffff ffff ffff ffff ffff ffff ffff ffff     ................
    648c:	ffff ffff ffff 7fbf 3e0d 5f05 7f05 5f05     .........>._..._
    649c:	7f05 5f05 5f05 1e05 3d5e fff7 ffff fff7     ..._._..^=......
    64ac:	ffff ffff ffff ffff ffff ffff ffff ffff     ................
    64bc:	ffff ffff fff7 fe4d 5f05 5f05 5f05 7f05     ......M.._._._..
    64cc:	7f05 7f05 7f05 bf05 9f05 5c04 5c04 7d04     ...........\.\.}
    64dc:	9d04 9d04 9d04 9d04 9e04 9c0c 7ebf ffef     .............~..
    64ec:	ffe7 ffe7 ffef ffef fff7 ffff feff fff7     ................
    64fc:	ffff dfff ffff ffff ffff ffff ffff ffff     ................
    650c:	ffff ffff ffff ffff ffff ffff ffff ffff     ................
    651c:	ffff ffff ffff ffff ffff ffff ffff ffff     ................
    652c:	ffff ffff ffff ffff ffff ffff ffff ffff     ................
    653c:	ffff ffff ffff ffff ffff ffff ffff ffff     ................
    654c:	ffff 5ec7 9b0c 9d04 9d04 9d04 9d04 7d04     ...^...........}
    655c:	7d04 5c04 7c04 9f05 9f05 7f05 7f05 7f05     .}.\.|..........
    656c:	5f05 5f05 7f05 5f05 bd35 ffe7 ffff ffff     ._._..._5.......
    657c:	ffff ffff ffff ffff ffff ffff ffff ffff     ................
    658c:	ffff ffff ffff ffe7 be2d 3f05 7f05 5f05     ........-..?..._
    659c:	7f05 5f05 3f05 1e05 fe96 ffff ffff ffff     ..._.?..........
    65ac:	ffff ffff ffff ffff ffff ffff ffff ffff     ................
    65bc:	ffff ffff ffef fe4d 5f05 5f05 5f05 7f05     ......M.._._._..
    65cc:	7f05 7f05 7f05 bf05 9f05 5c04 5c04 7d04     ...........\.\.}
    65dc:	9d04 9d04 9d04 9d04 9e04 9c0c 7ecf ffff     .............~..
    65ec:	ffff ffff ffff ffff ffff ffff ffff ffff     ................
    65fc:	ffff ffff ffff ffff ffff ffff ffff ffff     ................
    660c:	ffff ffff ffff ffff ffff ffff ffff ffff     ................
    661c:	ffff ffff ffff ffff ffff ffff ffff ffff     ................
    662c:	ffff ffff ffff ffff ffff ffff ffff ffff     ................
    663c:	ffff ffff ffff ffff ffff ffff ffff ffff     ................
    664c:	ffff 5ec7 9b0c 9d04 9d04 9d04 9d04 7d04     ...^...........}
    665c:	7d04 5c04 7c04 9f05 9f05 7f05 7f05 7f05     .}.\.|..........
    666c:	5f05 5f05 7f05 3f05 bd35 ffe7 ffff ffff     ._._...?5.......
    667c:	ffff ffff ffff ffff ffff ffff ffff ffff     ................
    668c:	ffff ffff ffff ffff 3d5e 3f05 7f05 7f05     ........^=.?....
    669c:	7f05 7f05 3f05 7d1d bfd7 ffff ffff ffff     .....?.}........
    66ac:	ffff ffff ffff ffff ffff ffff ffff ffff     ................
    66bc:	ffff ffff ffef fe4d 3f05 5f05 5f05 7f05     ......M..?._._..
    66cc:	7f05 7f05 7f05 bf05 9f05 5c04 5c04 7d04     ...........\.\.}
    66dc:	9d04 9d04 9d04 9d04 9e04 9b0c 5ec7 ffff     .............^..
    66ec:	ffff ffff ffff ffff ffff ffff ffff ffff     ................
    66fc:	ffff ffff ffff ffff ffff ffff ffff ffff     ................
    670c:	ffff ffff ffff ffff ffff ffff ffff ffff     ................
    671c:	ffff ffff ffff ffff ffff ffff ffff ffff     ................
    672c:	ffff ffff ffff ffff ffff ffff ffff ffff     ................
    673c:	ffff ffff ffff ffff ffff ffff ffff ffff     ................
    674c:	ffff 5ec7 9b0c 9d04 9e04 9d04 9d04 7d04     ...^...........}
    675c:	7d04 5c04 7c04 9f05 9f05 7f05 7f05 7f05     .}.\.|..........
    676c:	5f05 5f05 7f05 3f05 bd35 ffe7 ffff ffff     ._._...?5.......
    677c:	ffff ffff ffff ffff ffff ffff ffff ffff     ................
    678c:	ffff feff ffff ffff 5eaf 1e05 5f05 5f05     .........^..._._
    679c:	7f05 7f05 3f05 3d5e ffef ffff ffff ffff     .....?^=........
    67ac:	ffff ffff ffff ffff ffff ffff ffff ffff     ................
    67bc:	ffff ffff ffef fe4d 3f05 5f05 5f05 7f05     ......M..?._._..
    67cc:	7f05 7f05 7f05 bf05 9f05 5c04 5c04 7d04     ...........\.\.}
    67dc:	9d04 9d04 9d04 9d04 9d04 9b0c 5ec7 ffff     .............^..
    67ec:	ffff ffff ffff ffff ffff ffff ffff ffff     ................
    67fc:	ffff ffff ffff ffff ffff ffff ffff ffff     ................
    680c:	ffff ffff ffff ffff ffff ffff ffff ffff     ................
    681c:	ffff ffff ffff ffff ffff ffff ffff ffff     ................
    682c:	ffff ffff ffff ffff ffff ffff ffff ffff     ................
    683c:	ffff ffff ffff ffff ffff ffff ffff ffff     ................
    684c:	ffff 5ec7 9b0c 9d04 9e04 9d04 9c04 7d04     ...^...........}
    685c:	7d04 5c04 7c04 9f05 9f05 7f05 7f05 7f05     .}.\.|..........
    686c:	5f05 5f05 7f05 3f05 bd35 ffe7 ffff ffff     ._._...?5.......
    687c:	ffff ffff ffff ffff ffff ffff ffff ffff     ................
    688c:	ffff feff ffff ffff bfd7 7d1d 3f05 5f05     ...........}.?._
    689c:	7f05 7f05 1f05 fe96 ffff ffff ffff ffff     ................
    68ac:	ffff ffff ffff ffff ffff ffff ffff ffff     ................
    68bc:	ffff ffff ffef fe4d 3f05 5f05 5f05 7f05     ......M..?._._..
    68cc:	7f05 7f05 7f05 bf05 9f05 5c04 5c04 7d04     ...........\.\.}
    68dc:	9d04 9d04 9d04 9d04 9d04 9b0c 5ec7 ffff     .............^..
    68ec:	ffff ffff ffff ffff ffff ffff ffff ffff     ................
    68fc:	ffff ffff ffff ffff ffff ffff ffff ffff     ................
    690c:	ffff ffff ffff ffff ffff ffff ffff ffff     ................
    691c:	ffff ffff ffff ffff ffff ffff ffff ffff     ................
    692c:	ffff ffff ffff ffff ffff ffff ffff ffff     ................
    693c:	ffff ffff ffff ffff ffff ffff ffff ffff     ................
    694c:	ffff 5ec7 9b0c 9d04 9e04 9d04 9c04 7d04     ...^...........}
    695c:	7d04 5c04 7c04 9f05 9f05 7f05 7f05 7f05     .}.\.|..........
    696c:	5f05 5f05 7f05 3f05 bd35 ffe7 ffff ffff     ._._...?5.......
    697c:	ffff ffff ffff ffff ffff ffff ffff ffff     ................
    698c:	ffff ffff ffff ffff fff7 fe4d 3f05 7f05     ..........M..?..
    699c:	7f05 5f05 5d15 9ecf ffff ffff ffff ffff     ..._.]..........
    69ac:	ffff ffff ffff ffff ffff ffff ffff ffff     ................
    69bc:	ffff ffff ffef fe4d 3f05 5f05 5f05 7f05     ......M..?._._..
    69cc:	7f05 7f05 7f05 bf05 9f05 5c04 5c04 7d04     ...........\.\.}
    69dc:	9d04 9d04 9d04 9d04 7d04 9b0c 5ec7 ffff     .........}...^..
    69ec:	ffff ffff ffff ffff ffff ffff ffff ffff     ................
    69fc:	ffff ffff ffff ffff ffff ffff ffff ffff     ................
    6a0c:	ffff ffff ffff ffff ffff ffff ffff ffff     ................
    6a1c:	ffff ffff ffff ffff ffff ffff ffff ffff     ................
    6a2c:	ffff ffff ffff ffff ffff ffff ffff ffff     ................
    6a3c:	ffff ffff ffff ffff ffff ffff ffff ffff     ................
    6a4c:	ffff 5ec7 9b0c 9d04 9e04 9d04 9c04 7d04     ...^...........}
    6a5c:	7d04 5c04 7c04 9f05 9f05 7f05 7f05 7f05     .}.\.|..........
    6a6c:	5f05 5f05 7f05 3f05 bd35 ffe7 ffff ffff     ._._...?5.......
    6a7c:	ffff ffff ffff ffff ffff ffff ffff ffff     ................
    6a8c:	ffff ffff ffff ffff ffff fe96 1e05 7f05     ................
    6a9c:	7f05 5f05 bd4d ffef ffff ffff ffff ffff     ..._M...........
    6aac:	ffff ffff ffff ffff ffff ffff ffff ffff     ................
    6abc:	ffff ffff ffef fe4d 3f05 5f05 5f05 7f05     ......M..?._._..
    6acc:	7f05 7f05 7f05 bf05 9f05 5c04 5c04 7d04     ...........\.\.}
    6adc:	9d04 9d04 9d04 9d04 7d04 9b0c 7ecf ffff     .........}...~..
    6aec:	ffff ffff ffff ffff ffff ffff ffff ffff     ................
    6afc:	ffff ffff ffff ffff ffff ffff ffff ffff     ................
    6b0c:	ffff ffff ffff ffff ffff ffff ffff ffff     ................
    6b1c:	ffff ffff ffff ffff ffff ffff ffff ffff     ................
    6b2c:	ffff ffff ffff ffff ffff ffff ffff ffff     ................
    6b3c:	ffff ffff ffff ffff ffff ffff ffff ffff     ................
    6b4c:	ffff 5ec7 9b0c 9d04 9d04 7d04 9c04 7d04     ...^.......}...}
    6b5c:	7d04 5c04 7c04 9f05 9f05 7f05 7f05 7f05     .}.\.|..........
    6b6c:	5f05 5f05 7f05 3f05 bd35 ffe7 ffff ffff     ._._...?5.......
    6b7c:	ffff ffff ffff ffff ffff ffff ffff ffff     ................
    6b8c:	ffff ffff ffff ffff ffff 5ebf 5d15 5f05     ...........^.]._
    6b9c:	5f05 1f05 de86 ffff ffff ffff ffff ffff     ._..............
    6bac:	ffff ffff ffff ffff ffff ffff ffff ffff     ................
    6bbc:	ffff ffff ffef fe4d 3f05 5f05 5f05 7f05     ......M..?._._..
    6bcc:	7f05 7f05 7f05 bf05 9f05 5c04 5c04 7d04     ...........\.\.}
    6bdc:	9d04 9d04 9d04 9d04 9e04 9b0c 7ecf ffff     .............~..
    6bec:	ffff ffff ffff ffff ffff ffff ffff ffff     ................
    6bfc:	ffff ffff ffff ffff ffff ffff ffff ffff     ................
    6c0c:	ffff ffff ffff ffff ffff ffff ffff ffff     ................
    6c1c:	ffff ffff ffff ffff ffff ffff ffff ffff     ................
    6c2c:	ffff ffff ffff ffff ffff ffff dfff ffff     ................
    6c3c:	ffff ffff ffff ffff ffff ffff ffff ffff     ................
    6c4c:	ffff 5ec7 9c0c 9e04 9d04 9d04 9d04 7d04     ...^...........}
    6c5c:	7d04 5c04 7c04 9f05 9f05 7f05 7f05 7f05     .}.\.|..........
    6c6c:	5f05 5f05 7f05 3f05 bd35 ffe7 ffff ffff     ._._...?5.......
    6c7c:	ffff ffff ffff ffff ffff dfff dfff ffff     ................
    6c8c:	ffff ffff ffff dfff ffff ffe7 bd35 3f05     ............5..?
    6c9c:	3f05 3d0d 7eb7 ffff ffff ffff ffff ffff     .?.=.~..........
    6cac:	ffff dfff dff7 ffff ffff ffff ffff ffff     ................
    6cbc:	ffff ffff ffef fe4d 3f05 5f05 5f05 7f05     ......M..?._._..
    6ccc:	7f05 7f05 7f05 bf05 9f05 5c04 5c04 7d04     ...........\.\.}
    6cdc:	9d04 9d04 9d04 9d04 9e04 9c0c 7ecf ffff     .............~..
    6cec:	ffff ffff ffff ffff feff ffff ffff ffff     ................
    6cfc:	ffff ffff ffff ffff ffff ffff ffff ffff     ................
    6d0c:	ffff ffff ffff ffff ffff ffff ffff ffff     ................
    6d1c:	ffff ffff ffff ffff ffff ffff ffff ffff     ................
    6d2c:	ffff ffff ffff ffff ffff ffff ffff ffff     ................
    6d3c:	ffff ffff fff7 bedf 9ed7 9ed7 9ed7 bedf     ................
    6d4c:	9ed7 fea6 9b0c 9d04 9d04 9d04 9d04 7d04     ...............}
    6d5c:	7d04 5c04 7c04 9f05 9f05 7f05 7f05 7f05     .}.\.|..........
    6d6c:	5f05 5f05 7f05 3f05 bd35 ffe7 ffff ffff     ._._...?5.......
    6d7c:	ffff ffff ffff ffff ffff 7dd7 7edf ffff     ...........}.~..
    6d8c:	ffff ffff ffff ffff ffff ffff 3d5e 1e05     ............^=..
    6d9c:	1f05 be2d ffe7 ffff ffff ffff ffff feff     ..-.............
    6dac:	ffff 7dd7 5dcf ffff ffff ffff ffff ffff     ...}.]..........
    6dbc:	ffff ffff ffef fe4d 3f05 5f05 5f05 7f05     ......M..?._._..
    6dcc:	7f05 7f05 7f05 bf05 9f05 5c04 5c04 7d04     ...........\.\.}
    6ddc:	9d04 9d04 9d04 9d04 9d04 7b04 1daf 9ed7     ...........{....
    6dec:	9ed7 9ed7 9ed7 9ed7 bedf fff7 ffff ffff     ................
    6dfc:	ffff ffff ffff ffff ffff ffff ffff ffff     ................
    6e0c:	ffff ffff ffff ffff ffff ffff ffff ffff     ................
    6e1c:	ffff ffff ffff ffff ffff ffff ffff ffff     ................
    6e2c:	ffff ffff ffff dfff ffff ffff ffff ffff     ................
    6e3c:	fff7 dda6 bb55 1a35 ba1c ba1c ba1c ba1c     ....U.5.........
    6e4c:	ba1c db14 9d04 9e04 9e04 9d04 9d04 7d04     ...............}
    6e5c:	7d04 5c04 7c04 9f05 9f05 7f05 7f05 7f05     .}.\.|..........
    6e6c:	5f05 5f05 7f05 3f05 bd35 ffe7 ffff ffff     ._._...?5.......
    6e7c:	ffff ffff ffff ffff ffff 1db7 9ba6 ffff     ................
    6e8c:	ffff ffff ffff ffff ffff ffff 5eaf 3d0d     .............^.=
    6e9c:	3f05 3d5e ffff dfff ffff ffff ffff ffff     .?^=............
    6eac:	fff7 7c96 1db7 ffff ffff ffff ffff ffff     ...|............
    6ebc:	ffff ffff ffef fe4d 3f05 5f05 5f05 7f05     ......M..?._._..
    6ecc:	7f05 7f05 7f05 bf05 9f05 5c04 5c04 7d04     ...........\.\.}
    6edc:	9d04 9d04 9d04 9d04 9d04 9d04 9914 b91c     ................
    6eec:	b91c b91c b91c b91c da2c bb55 1db7 ffff     ........,.U.....
    6efc:	ffff fff7 ffff ffff ffff ffff ffff ffff     ................
    6f0c:	ffff ffff ffff ffff ffff ffff ffff ffff     ................
    6f1c:	ffff ffff ffff ffff ffff ffff ffff ffff     ................
    6f2c:	ffff ffff ffff ffff ffff ffff ffff ffff     ................
    6f3c:	9d8e 7a0c 5b04 7c04 7d04 7d04 7d04 7d04     ...z.[.|.}.}.}.}
    6f4c:	9d04 7d04 9d04 9e04 9e04 9d04 9c04 7d04     ...}...........}
    6f5c:	7d04 5c04 7c04 9f05 9f05 7f05 7f05 7f05     .}.\.|..........
    6f6c:	5f05 5f05 7f05 3f05 bd35 ffe7 ffff ffff     ._._...?5.......
    6f7c:	ffff ffff ffff ffff ffff 1daf db65 ffe7     ............e...
    6f8c:	ffff ffff ffff ffff ffff ffff bfd7 7d1d     ...............}
    6f9c:	1e05 5eaf ffff ffff ffff ffff ffff ffff     ...^............
    6fac:	ffef db65 1daf ffff ffff ffff ffff ffff     ..e.............
    6fbc:	ffff ffff ffef fe4d 3f05 5f05 5f05 7f05     ......M..?._._..
    6fcc:	7f05 7f05 7f05 bf05 9f05 5c04 5c04 7d04     ...........\.\.}
    6fdc:	9d04 9d04 9d04 9d04 9d04 9d04 9c04 9d04     ................
    6fec:	9c04 9c04 9c04 7d04 5c04 5c04 ba1c bca6     .......}.\.\....
    6ffc:	ffff fff7 ffff ffff ffff ffff ffff ffff     ................
    700c:	ffff ffff ffff ffff ffff ffff ffff ffff     ................
    701c:	ffff ffff ffff ffff ffff ffff ffff ffff     ................
    702c:	ffff ffff ffff ffff ffff ffff ffff 5dcf     ...............]
    703c:	ba1c 7d04 be04 9e04 9d04 9d04 9e04 9e04     ...}............
    704c:	9d04 9d04 9c04 7d04 9d04 9d04 9c04 7d04     .......}.......}
    705c:	7d04 5c04 7c04 9f05 9f05 7f05 7f05 7f05     .}.\.|..........
    706c:	5f05 5f05 7f05 3f05 bd35 ffe7 ffff ffff     ._._...?5.......
    707c:	ffff ffff ffff ffff ffff 7eb7 1a35 7ebf     ...........~5..~
    708c:	ffff ffff ffff ffff ffff ffff fff7 bb55     ..............U.
    709c:	1b2d dfdf ffff ffff ffff ffff ffff ffff     -...............
    70ac:	7fbf 1a35 5eaf ffff ffff ffff ffff ffff     ..5..^..........
    70bc:	ffff ffff ffef fe4d 3f05 5f05 5f05 7f05     ......M..?._._..
    70cc:	7f05 7f05 7f05 bf05 9f05 5c04 5c04 7d04     ...........\.\.}
    70dc:	9d04 9d04 9d04 9d04 9d04 9e04 9e04 9e04     ................
    70ec:	9d04 be04 9e04 9e04 bd04 9d04 5c04 b91c     .............\..
    70fc:	7ecf feff ffff ffff ffff ffff ffff ffff     .~..............
    710c:	ffff ffff ffff ffff ffff ffff ffff ffff     ................
    711c:	ffff ffff ffff ffff ffff ffff ffff ffff     ................
    712c:	ffff ffff ffff ffff ffff ffff fff7 db65     ..............e.
    713c:	3b04 9d04 9d04 9d04 9d04 9d04 9e04 9e04     .;..............
    714c:	9d04 9e04 9e04 9d04 9c04 9c04 9c04 7d04     ...............}
    715c:	7d04 5c04 7c04 9f05 9f05 7f05 7f05 7f05     .}.\.|..........
    716c:	5f05 5f05 7f05 3f05 bd35 ffe7 ffff ffff     ._._...?5.......
    717c:	ffff ffff ffff dfff ffff 7eb7 ba1c 7c86     ...........~...|
    718c:	ffff ffff ffff ffff ffff ffff ffff 7c96     ...............|
    719c:	fb6d ffef ffff ffff ffff ffff ffff ffff     m...............
    71ac:	9d8e 1b05 5eaf ffff ffff ffff ffff ffff     .....^..........
    71bc:	ffff ffff ffef fe4d 3f05 5f05 5f05 7f05     ......M..?._._..
    71cc:	7f05 7f05 7f05 bf05 9f05 5c04 5c04 7d04     ...........\.\.}
    71dc:	9d04 9d04 9d04 9d04 9d04 9e04 9d04 9d04     ................
    71ec:	9e04 9e04 9d04 9d04 9d04 9d04 9c04 5b04     ...............[
    71fc:	fb6d ffff ffff ffff ffff ffff ffff ffff     m...............
    720c:	ffff ffff ffff ffff ffff ffff ffff ffff     ................
    721c:	ffff ffff ffff ffff ffff ffff ffff ffff     ................
    722c:	ffff ffff ffff ffff fff7 ffff dedf 1a35     ..............5.
    723c:	7d04 9d04 9d04 9d04 9d04 9d04 bd04 9d04     .}..............
    724c:	9d04 be04 9e04 9d04 9c04 9c04 9c04 7d04     ...............}
    725c:	7d04 5c04 7c04 9f05 9f05 7f05 7f05 7f05     .}.\.|..........
    726c:	5f05 5f05 7f05 3f05 bd35 ffe7 ffff ffff     ._._...?5.......
    727c:	ffff ffff ffff ffff ffff 7eb7 db14 fd3d     ...........~..=.
    728c:	ffef ffff ffff ffff ffff ffff ffff 7edf     ...............~
    729c:	fcc6 ffff ffff ffff ffff ffff ffff ffef     ................
    72ac:	bd4d 1b05 5eaf ffff ffff ffff ffff ffff     M....^..........
    72bc:	ffff ffff ffef fe4d 3f05 5f05 5f05 7f05     ......M..?._._..
    72cc:	7f05 7f05 7f05 bf05 9f05 5c04 5c04 7d04     ...........\.\.}
    72dc:	9d04 9d04 9d04 9d04 9d04 9e04 9d04 9d04     ................
    72ec:	9d04 bd04 bc04 9d04 9d04 bf04 9c04 5c04     ...............\
    72fc:	bd4d ffff ffff ffff ffff ffff ffff ffff     M...............
    730c:	ffff ffff ffff ffff ffff ffff ffff ffff     ................
    731c:	ffff ffff ffff ffff ffff ffff ffff ffff     ................
    732c:	ffff ffff ffff ffff ffff ffff 9ed7 b91c     ................
    733c:	7d04 9d04 9d04 bd04 9e04 9e04 9d04 9e04     .}..............
    734c:	be04 be04 9c04 9c04 9d04 9d04 9c04 7d04     ...............}
    735c:	7d04 5c04 7c04 9f05 9f05 7f05 7f05 7f05     .}.\.|..........
    736c:	5f05 5f05 7f05 3f05 bd35 ffe7 ffff ffff     ._._...?5.......
    737c:	ffff ffff ffff ffff ffff 7eb7 3d0d 7e15     ...........~.=.~
    738c:	9ecf ffff ffff ffff ffff ffff ffff ffff     ................
    739c:	dfff ffff ffff ffff ffff ffff ffff 7fbf     ................
    73ac:	5d15 1b05 5eaf ffff ffff ffff ffff ffff     .]...^..........
    73bc:	ffff ffff ffef fe4d 3f05 5f05 5f05 7f05     ......M..?._._..
    73cc:	7f05 7f05 7f05 bf05 9f05 5c04 5c04 7d04     ...........\.\.}
    73dc:	9d04 9d04 9d04 9d04 bd04 9d04 bd04 9d04     ................
    73ec:	9e04 9e04 7d04 7d04 7d04 bf04 9d04 5c04     .....}.}.}.....\
    73fc:	bb55 dff7 ffff ffff ffff ffff ffff ffff     U...............
    740c:	ffff ffff ffff ffff ffff ffff ffff ffff     ................
    741c:	ffff ffff ffff ffff ffff ffff ffff ffff     ................
    742c:	ffff ffff ffff ffff ffff ffff ffe7 193d     ..............=.
    743c:	7c04 9d04 9d04 bd04 9e04 9e04 7e04 9c04     .|...........~..
    744c:	9d04 9d04 9c04 9e04 9e04 9d04 9c04 7d04     ...............}
    745c:	7d04 5c04 7c04 9f05 9f05 7f05 7f05 7f05     .}.\.|..........
    746c:	5f05 5f05 7f05 3f05 bd35 ffe7 ffff ffff     ._._...?5.......
    747c:	ffff ffff ffff ffff ffff 7eb7 3d0d 1e05     ...........~.=..
    748c:	fe96 ffff ffff ffff ffff ffff ffff ffff     ................
    749c:	ffff ffff ffff ffff ffff ffff ffff de86     ................
    74ac:	1f05 3d0d 5eaf ffff ffff ffff ffff ffff     ...=.^..........
    74bc:	ffff ffff ffef fe4d 3f05 5f05 5f05 7f05     ......M..?._._..
    74cc:	7f05 7f05 7f05 bf05 9f05 5c04 5c04 7d04     ...........\.\.}
    74dc:	9d04 9d04 9d04 9d04 9d04 7d04 9e04 7d04     ...........}...}
    74ec:	9d04 9e04 9e04 bd04 9e04 9e04 9d04 5c04     ...............\
    74fc:	bb55 ffff ffff ffff ffff ffff ffff ffff     U...............
    750c:	ffff ffff ffff ffff ffff ffff ffff ffff     ................
    751c:	ffff ffff ffff ffff ffff ffff ffff ffff     ................
    752c:	ffff ffff ffff ffff ffff ffff ffff 1daf     ................
    753c:	7b04 9e04 be04 be04 9d04 7d04 9e04 7d04     .{.........}...}
    754c:	9e04 be04 9d04 be04 be04 9c04 9c04 7d04     ...............}
    755c:	7d04 5c04 7c04 9f05 9f05 7f05 7f05 7f05     .}.\.|..........
    756c:	5f05 5f05 7f05 3f05 bd35 ffe7 ffff ffff     ._._...?5.......
    757c:	ffff ffff ffff ffff ffff 7eb7 3d0d 1e05     ...........~.=..
    758c:	fe4d fff7 ffff ffff ffff ffff ffff ffff     M...............
    759c:	ffff ffff ffff ffff ffff ffff ffef fe4d     ..............M.
    75ac:	1f05 3d0d 5eaf ffff ffff ffff ffff ffff     ...=.^..........
    75bc:	ffff ffff ffef fe4d 3f05 5f05 5f05 7f05     ......M..?._._..
    75cc:	7f05 7f05 7f05 bf05 9f05 5c04 5c04 7d04     ...........\.\.}
    75dc:	9d04 9d04 9d04 9d04 9d04 bd04 bf04 9e04     ................
    75ec:	9c04 9c04 bd04 9d04 9d04 9c04 7c04 9a14     .............|..
    75fc:	1db7 ffff ffff ffff ffff ffff ffff ffff     ................
    760c:	ffff ffff ffff ffff ffff ffff ffff ffff     ................
    761c:	ffff ffff ffff ffff ffff ffff ffff ffff     ................
    762c:	ffff ffff ffff ffff ffff feff dfff fff7     ................
    763c:	db65 3b04 7d04 9d04 7c04 9c04 9d04 9e04     e..;.}...|......
    764c:	9e04 9c04 7c04 9d04 be04 9d04 9c04 7d04     .....|.........}
    765c:	7d04 5c04 7c04 9f05 9f05 7f05 7f05 7f05     .}.\.|..........
    766c:	5f05 5f05 7f05 3f05 bd35 ffe7 ffff ffff     ._._...?5.......
    767c:	ffff ffff ffff ffff ffff 7eb7 3d0d 3f05     ...........~.=.?
    768c:	9d25 bfd7 ffff ffff ffff ffff ffff ffff     %...............
    769c:	ffff ffff ffff ffff ffff ffff 9ecf 5d15     ...............]
    76ac:	3f05 3d0d 5eaf ffff ffff ffff ffff ffff     .?.=.^..........
    76bc:	ffff ffff ffef fe4d 3f05 5f05 5f05 7f05     ......M..?._._..
    76cc:	7f05 7f05 7f05 bf05 9f05 5c04 5c04 7d04     ...........\.\.}
    76dc:	9d04 9d04 9d04 9d04 9d04 9c04 9d04 be04     ................
    76ec:	7d04 9d04 9d04 7d04 7e04 7d04 5a04 5b86     .}.....}.~.}.Z.[
    76fc:	ffff feff ffff ffff ffff ffff ffff ffff     ................
    770c:	ffff ffff ffff ffff ffff ffff ffff ffff     ................
    771c:	ffff ffff ffff ffff ffff ffff ffff ffff     ................
    772c:	ffff ffff ffff ffff ffff feff ffff ffff     ................
    773c:	ffe7 7c96 193d 7b0c 9c04 9b04 9a0c 9c04     ...|=..{........
    774c:	9c0c 7a0c 9d04 bd04 9d04 9d04 9c04 9d04     ...z............
    775c:	7d04 5c04 7c04 9f05 9f05 7f05 7f05 7f05     .}.\.|..........
    776c:	5f05 5f05 7f05 3f05 bd35 ffe7 ffff ffff     ._._...?5.......
    777c:	ffff ffff ffff ffff ffff 7eb7 3d0d 5f05     ...........~.=._
    778c:	1e05 fea6 ffff ffff ffff ffff ffff ffff     ................
    779c:	ffff ffff ffff ffff ffff ffff fe96 1e05     ................
    77ac:	5f05 3d0d 5eaf ffff ffff ffff ffff ffff     ._.=.^..........
    77bc:	ffff ffff ffef fe4d 3f05 5f05 5f05 7f05     ......M..?._._..
    77cc:	7f05 7f05 7f05 bf05 9f05 5c04 5c04 7d04     ...........\.\.}
    77dc:	9d04 9d04 9d04 9d04 bd04 7d04 7b0c 9b0c     ...........}.{..
    77ec:	9c04 9c0c 9a0c 9b04 db14 da2c bd9e ffef     ..........,.....
    77fc:	fff7 ffff ffff ffff ffff ffff ffff ffff     ................
    780c:	ffff ffff ffff ffff ffff ffff ffff ffff     ................
    781c:	ffff ffff ffff ffff ffff ffff ffff ffff     ................
    782c:	ffff ffff ffff ffff ffff ffff ffff dfff     ................
    783c:	ffff ffff ffe7 5ebf 5ebf 5ec7 5ec7 5ebf     .......^.^.^.^.^
    784c:	5dcf bd9e 9c0c be04 9d04 9d04 9c04 9d04     .]..............
    785c:	7d04 5c04 7c04 9f05 9f05 7f05 7f05 7f05     .}.\.|..........
    786c:	5f05 5f05 7f05 3f05 bd35 ffe7 ffff ffff     ._._...?5.......
    787c:	ffff ffff ffff ffff ffff 7eb7 3d0d 5f05     ...........~.=._
    788c:	3f05 3d5e fff7 ffff ffff ffff ffff ffff     .?^=............
    789c:	ffff ffff ffff ffff ffff ffef fe4d 1f05     ............M...
    78ac:	5f05 3d0d 5eaf ffff ffff ffff ffff ffff     ._.=.^..........
    78bc:	ffff ffff ffef fe4d 3f05 5f05 5f05 7f05     ......M..?._._..
    78cc:	7f05 7f05 7f05 bf05 9f05 5c04 5c04 7d04     ...........\.\.}
    78dc:	9d04 9d04 9d04 9d04 9e04 9c04 bd9e 5dcf     ...............]
    78ec:	5ebf 5ec7 5ec7 5ec7 7ecf dedf ffff ffff     .^.^.^.^.~......
    78fc:	ffff ffff ffff ffff ffff ffff ffff ffff     ................
    790c:	ffff ffff ffff ffff ffff ffff ffff ffff     ................
    791c:	ffff ffff ffff ffff ffff ffff ffff ffff     ................
    792c:	ffff ffff ffff ffff ffff ffff ffff ffff     ................
    793c:	ffff ffff ffff ffff ffff ffff ffff ffff     ................
    794c:	ffff 7ecf 9b0c 9d04 9d04 9d04 9c04 7d04     ...~...........}
    795c:	7d04 5c04 7c04 9f05 9f05 7f05 7f05 7f05     .}.\.|..........
    796c:	5f05 5f05 7f05 3f05 bd35 ffe7 ffff ffff     ._._...?5.......
    797c:	ffff ffff ffff ffff ffff 7eb7 3d0d 7f05     ...........~.=..
    798c:	5f05 bd35 bfdf ffff ffff ffff ffff ffff     ._5.............
    799c:	ffff ffff ffff ffff ffff bfd7 7d1d 5f05     .............}._
    79ac:	5f05 3d0d 7eb7 ffff ffff ffff ffff ffff     ._.=.~..........
    79bc:	ffff ffff ffef fe4d 5f05 7f05 7f05 7f05     ......M.._......
    79cc:	7f05 7f05 7f05 bf05 9f05 5c04 5c04 7d04     ...........\.\.}
    79dc:	9d04 9d04 9d04 9d04 9e04 9b0c 7ecf ffff     .............~..
    79ec:	ffff ffff ffff ffff ffff ffff ffff ffff     ................
    79fc:	ffff ffff ffff ffff ffff ffff ffff ffff     ................
    7a0c:	ffff ffff ffff ffff ffff ffff ffff ffff     ................
    7a1c:	ffff ffff ffff ffff ffff ffff ffff ffff     ................
    7a2c:	ffff ffff ffff ffff ffff ffff ffff ffff     ................
    7a3c:	ffff ffff ffff ffff ffff ffff ffff ffff     ................
    7a4c:	ffff 5ec7 9b0c 9d04 9e04 9d04 9c04 7d04     ...^...........}
    7a5c:	7d04 5c04 7c04 9f05 9f05 7f05 7f05 7f05     .}.\.|..........
    7a6c:	5f05 5f05 7f05 3f05 bd35 ffe7 ffff ffff     ._._...?5.......
    7a7c:	ffff ffff ffff ffff ffff 7eb7 3d0d 5f05     ...........~.=._
    7a8c:	5f05 3f05 5eaf ffff ffff ffff ffff ffff     ._.?.^..........
    7a9c:	ffff ffff ffff ffff ffff fea6 1e05 5f05     ..............._
    7aac:	5f05 3d0d 5eaf ffff ffff ffff ffff ffff     ._.=.^..........
    7abc:	ffff ffff ffef fe4d 3f05 5f05 7f05 7f05     ......M..?._....
    7acc:	7f05 7f05 7f05 bf05 9f05 5c04 5c04 7d04     ...........\.\.}
    7adc:	9d04 9d04 9d04 9d04 9e04 9b0c 5ec7 ffff     .............^..
    7aec:	ffff ffff ffff ffff ffff ffff ffff ffff     ................
    7afc:	ffff ffff ffff ffff ffff ffff ffff ffff     ................
    7b0c:	ffff ffff ffff ffff ffff ffff ffff ffff     ................
    7b1c:	ffff ffff ffff ffff ffff ffff ffff ffff     ................
    7b2c:	ffff ffff ffff ffff ffff ffff ffff ffff     ................
    7b3c:	ffff ffff ffff ffff ffff ffff ffff ffff     ................
    7b4c:	ffff 5ec7 9b04 9d04 9e04 9d04 9c04 7d04     ...^...........}
    7b5c:	7d04 5c04 7c04 9f05 9f05 7f05 7f05 7f05     .}.\.|..........
    7b6c:	5f05 5f05 7f05 3f05 bd35 ffe7 ffff ffff     ._._...?5.......
    7b7c:	ffff ffff ffff ffff ffff 7eb7 3d0d 3f05     ...........~.=.?
    7b8c:	5f05 5f05 3d5e ffff ffff ffff ffff ffff     ._._^=..........
    7b9c:	ffff ffff ffff ffff fff7 3d5e 1e05 5f05     ..........^=..._
    7bac:	5f05 3d0d 5eaf ffff ffff ffff ffff ffff     ._.=.^..........
    7bbc:	ffff ffff ffef fe4d 3f05 5f05 7f05 7f05     ......M..?._....
    7bcc:	7f05 7f05 7f05 bf05 9f05 5c04 5c04 7d04     ...........\.\.}
    7bdc:	9d04 9d04 9d04 9d04 9e04 9b0c 5ec7 ffff     .............^..
    7bec:	ffff ffff ffff ffff ffff ffff ffff ffff     ................
    7bfc:	ffff ffff ffff ffff ffff ffff ffff ffff     ................
    7c0c:	ffff ffff ffff ffff ffff ffff ffff ffff     ................
    7c1c:	ffff ffff ffff ffff ffff ffff ffff ffff     ................
    7c2c:	ffff ffff ffff ffff ffff ffff ffff ffff     ................
    7c3c:	ffff ffff ffff ffff ffff ffff ffff ffff     ................
    7c4c:	ffff 5ec7 9b0c 9d04 9e04 9d04 9c04 7d04     ...^...........}
    7c5c:	7d04 5c04 7c04 9f05 9f05 7f05 7f05 7f05     .}.\.|..........
    7c6c:	5f05 5f05 7f05 3f05 bd35 ffe7 ffff ffff     ._._...?5.......
    7c7c:	ffff ffff ffff ffff ffff 7eb7 3d0d 5f05     ...........~.=._
    7c8c:	5f05 5e05 bd35 dfdf ffff ffff ffff ffff     ._.^5...........
    7c9c:	ffff ffff ffff ffff bfd7 9d25 3f05 7f05     ..........%..?..
    7cac:	5f05 3d0d 5eaf ffff ffff ffff ffff ffff     ._.=.^..........
    7cbc:	ffff ffff ffef fe4d 3f05 5f05 7f05 7f05     ......M..?._....
    7ccc:	7f05 7f05 7f05 bf05 9f05 5c04 5c04 7d04     ...........\.\.}
    7cdc:	9d04 9d04 9d04 9d04 9e04 9b0c 5ec7 ffff     .............^..
    7cec:	ffff ffff ffff ffff ffff ffff ffff ffff     ................
    7cfc:	ffff ffff ffff ffff ffff ffff ffff ffff     ................
    7d0c:	ffff ffff ffff ffff ffff ffff ffff ffff     ................
    7d1c:	ffff ffff ffff ffff ffff ffff ffff ffff     ................
    7d2c:	ffff ffff ffff ffff ffff ffff ffff ffff     ................
    7d3c:	ffff ffff ffff ffff ffff ffff ffff ffff     ................
    7d4c:	ffff 5ec7 9b0c 9d04 9e04 9d04 9c04 7d04     ...^...........}
    7d5c:	7d04 5c04 7c04 9f05 9f05 7f05 7f05 7f05     .}.\.|..........
    7d6c:	5f05 5f05 7f05 3f05 bd35 ffe7 ffff ffff     ._._...?5.......
    7d7c:	ffff ffff ffff ffff ffff 7eb7 3d0d 5f05     ...........~.=._
    7d8c:	5f05 5f05 3d0d 7eb7 ffff ffff ffff ffff     ._._.=.~........
    7d9c:	ffff ffff ffff ffff 5eaf 1e05 5f05 7f05     .........^..._..
    7dac:	5f05 3d0d 5eaf ffff ffff ffff ffff ffff     ._.=.^..........
    7dbc:	ffff ffff ffef fe4d 3f05 5f05 7f05 7f05     ......M..?._....
    7dcc:	7f05 7f05 7f05 bf05 9f05 5c04 5c04 7d04     ...........\.\.}
    7ddc:	9d04 9d04 9d04 9d04 9e04 9b0c 5ec7 ffff     .............^..
    7dec:	ffff ffff ffff ffff ffff ffff ffff ffff     ................
    7dfc:	ffff ffff ffff ffff ffff ffff ffff ffff     ................
    7e0c:	ffff ffff ffff ffff ffff ffff ffff ffff     ................
    7e1c:	ffff ffff ffff ffff ffff ffff ffff ffff     ................
    7e2c:	ffff ffff ffff ffff ffff ffff ffff ffff     ................
    7e3c:	ffff ffff ffff ffff ffff ffff ffff ffff     ................
    7e4c:	ffff 5ec7 9b0c 9d04 9e04 7d04 9c04 7d04     ...^.......}...}
    7e5c:	7d04 5c04 7c04 9f05 9f05 7f05 7f05 7f05     .}.\.|..........
    7e6c:	5f05 5f05 7f05 3f05 bd35 ffe7 ffff ffff     ._._...?5.......
    7e7c:	ffff ffff ffff ffff ffff 7eb7 3d0d 5f05     ...........~.=._
    7e8c:	5f05 5f05 1e05 fd3d de86 de86 de86 de86     ._._..=.........
    7e9c:	de86 de86 de86 de86 fd3d 3f05 5f05 7f05     ........=..?._..
    7eac:	5f05 3d0d 5eaf ffff ffff ffff ffff ffff     ._.=.^..........
    7ebc:	ffff ffff ffef fe4d 3f05 5f05 7f05 7f05     ......M..?._....
    7ecc:	7f05 7f05 7f05 bf05 9f05 5c04 5c04 7d04     ...........\.\.}
    7edc:	9d04 9d04 9d04 9d04 9e04 9b0c 5ec7 ffff     .............^..
    7eec:	ffff ffff ffff ffff ffff ffff ffff ffff     ................
    7efc:	ffff ffff ffff ffff ffff ffff ffff ffff     ................
    7f0c:	ffff ffff ffff ffff ffff ffff ffff ffff     ................
    7f1c:	ffff ffff ffff ffff ffff ffff ffff ffff     ................
    7f2c:	ffff ffff ffff ffff ffff ffff ffff ffff     ................
    7f3c:	ffff ffff ffff ffff ffff ffff ffff ffff     ................
    7f4c:	ffff 5ebf 9b0c 9d04 be04 9d04 9c04 7d04     ...^...........}
    7f5c:	7d04 5c04 7c04 9f05 9f05 7f05 7f05 7f05     .}.\.|..........
    7f6c:	5f05 5f05 7f05 3f05 bd35 ffe7 ffff ffff     ._._...?5.......
    7f7c:	ffff ffff ffff ffff ffff 7eb7 3d0d 5f05     ...........~.=._
    7f8c:	7f05 5f05 5f05 5f05 1f05 1f05 1f05 1f05     ..._._._........
    7f9c:	3f05 1e05 1e05 3f05 5f05 7f05 7f05 7f05     .?.....?._......
    7fac:	5f05 3d0d 5eaf ffff ffff ffff ffff ffff     ._.=.^..........
    7fbc:	ffff ffff ffef fe4d 3f05 7f05 7f05 7f05     ......M..?......
    7fcc:	7f05 7f05 7f05 bf05 9f05 5c04 5c04 7d04     ...........\.\.}
    7fdc:	9d04 9d04 9d04 9d04 9e04 9b0c 5ec7 ffff     .............^..
    7fec:	ffff ffff ffff ffff ffff feff dfff ffff     ................
    7ffc:	ffff ffff ffff ffff ffff ffff ffff ffff     ................
    800c:	ffff ffff ffff ffff ffff ffff ffff ffff     ................
    801c:	ffff ffff ffff ffff ffff ffff ffff ffff     ................
    802c:	ffff ffff ffff ffff ffff ffff ffff ffff     ................
    803c:	ffff ffff deff deff ffff ffff ffff feff     ................
    804c:	ffff 5ec7 9b0c 7d04 bd04 9d04 7d04 7d04     ...^...}.....}.}
    805c:	7c04 5c04 7c04 9f05 9f05 7f05 7f05 7f05     .|.\.|..........
    806c:	5f05 5f05 7f05 3f05 bd35 ffe7 ffff ffff     ._._...?5.......
    807c:	ffff ffff ffff ffff ffff 7eb7 5d15 5f05     ...........~.]._
    808c:	7f05 5f05 5f05 5f05 5f05 5f05 5f05 5f05     ..._._._._._._._
    809c:	5f05 5f05 5f05 5f05 5f05 5f05 5f05 7f05     ._._._._._._._..
    80ac:	5f05 3d0d 5eaf ffff ffff ffff ffff ffff     ._.=.^..........
    80bc:	ffff ffff ffef fe4d 3f05 5f05 5f05 5f05     ......M..?._._._
    80cc:	5f05 7f05 7f05 bf05 9f05 5c04 5c04 7d04     ._.........\.\.}
    80dc:	9d04 9d04 9d04 9e04 9e04 9b0c 5ec7 ffff     .............^..
    80ec:	deff ffff ffff ffff ffff fef7 dfff ffff     ................
    80fc:	fff7 ffff ffff ffff ffff ffff ffff ffff     ................
    810c:	ffff ffff ffff ffff ffff ffff ffff ffff     ................
    811c:	ffff ffff ffff ffff ffff ffff ffff ffff     ................
    812c:	ffff ffff ffff ffff ffff ffff ffff ffff     ................
    813c:	ffff ffff ffff ffff ffef ffef fff7 fef7     ................
    814c:	fff7 7eb7 9b0c 7d04 bd04 9d04 9d04 7d04     ...~...}.......}
    815c:	7c04 5c04 7c04 9f05 9f05 7f05 7f05 7f05     .|.\.|..........
    816c:	5f05 5f05 7f05 3f05 bd35 ffe7 ffff ffff     ._._...?5.......
    817c:	ffff ffff ffff ffff ffff 7eb7 3d0d 5f05     ...........~.=._
    818c:	5f05 5f05 5f05 5f05 5f05 5f05 5f05 5f05     ._._._._._._._._
    819c:	5f05 5f05 5f05 5f05 5f05 3f05 5f05 7f05     ._._._._._.?._..
    81ac:	5f05 3d0d 5eaf ffff ffff ffff ffff ffff     ._.=.^..........
    81bc:	ffff ffff fff7 fe4d 5f05 5f05 5f05 7f05     ......M.._._._..
    81cc:	7f05 7f05 7f05 bf05 9f05 5c04 5c04 7d04     ...........\.\.}
    81dc:	9d04 9d04 9d04 9d04 9d04 9a0c 7ebf fff7     .............~..
    81ec:	fff7 ffef ffef fff7 ffff ffff ffff ffff     ................
    81fc:	ffff ffff ffff ffff ffff ffff ffff ffff     ................
    820c:	ffff ffff ffff ffff ffff ffff ffff ffff     ................
    821c:	ffff ffff ffff ffff ffff ffff ffff ffff     ................
    822c:	ffff ffff ffff ffff ffff ffff ffff dfff     ................
    823c:	ffff bedf bca6 7c86 5a4d 5a4d 5a4d 5a4d     .......|MZMZMZMZ
    824c:	5a4d 1a35 9d04 9d04 bd04 9d04 9d04 7d04     MZ5............}
    825c:	7c04 5c04 7c04 9f05 9f05 7f05 7f05 7f05     .|.\.|..........
    826c:	5f05 5f05 7f05 3f05 bd35 dfdf ffff ffff     ._._...?5.......
    827c:	ffff ffff ffff ffff ffff 5eaf 3d0d 5f05     ...........^.=._
    828c:	5f05 5f05 5f05 5f05 5f05 5f05 5f05 5f05     ._._._._._._._._
    829c:	5f05 5f05 5f05 5f05 5f05 7f05 7f05 5f05     ._._._._._....._
    82ac:	5f05 1e05 5eaf ffff ffff ffff ffff ffff     ._...^..........
    82bc:	ffff ffff ffef fe4d 5f05 5f05 7f05 7f05     ......M.._._....
    82cc:	7f05 7f05 7f05 bf05 9f05 5c04 5c04 7d04     ...........\.\.}
    82dc:	9d04 9d04 9d04 9d04 9d04 9c04 193d 5a4d     ............=.MZ
    82ec:	5a4d 5a4d 5a4d 5a4d fb6d bd9e bedf ffff     MZMZMZMZm.......
    82fc:	ffff ffff ffff ffff ffff ffff ffff ffff     ................
    830c:	ffff ffff ffff ffff ffff ffff ffff ffff     ................
    831c:	ffff ffff ffff ffff ffff ffff ffff ffff     ................
    832c:	ffff ffff ffff ffff ffff ffff dfff ffff     ................
    833c:	1db7 1a35 3a04 5b04 7b04 5c04 5c04 5c04     ..5..:.[.{.\.\.\
    834c:	5c04 7c04 9d04 9d04 9d04 9d04 9d04 7d04     .\.|...........}
    835c:	7d04 5c04 7c04 9f05 9f05 7f05 7f05 7f05     .}.\.|..........
    836c:	5f05 5f05 7f05 3f05 bd35 dfdf ffff ffff     ._._...?5.......
    837c:	ffff ffff ffff ffff ffff 7eb7 3d0d 5f05     ...........~.=._
    838c:	5f05 5f05 5f05 5f05 5f05 5f05 5f05 5f05     ._._._._._._._._
    839c:	5f05 5f05 5f05 5f05 5f05 5f05 5f05 5f05     ._._._._._._._._
    83ac:	5f05 3d0d 7eb7 ffff ffff ffff ffff ffff     ._.=.~..........
    83bc:	ffff ffff ffef fe4d 5f05 5f05 5f05 7f05     ......M.._._._..
    83cc:	7f05 7f05 7f05 bf05 9f05 5c04 5c04 7d04     ...........\.\.}
    83dc:	9d04 9d04 9d04 9d04 9d04 9e04 5c04 5b04     .............\.[
    83ec:	7c04 7c04 5c04 5c04 7c04 5b04 193d 7ecf     .|.|.\.\.|.[=..~
    83fc:	ffff dff7 ffff ffff ffff ffff ffff ffff     ................
    840c:	ffff ffff ffff ffff ffff ffff ffff ffff     ................
    841c:	ffff ffff ffff ffff ffff ffff ffff ffff     ................
    842c:	ffff ffff ffff ffff ffff ffff ffff bedf     ................
    843c:	1a35 5c04 9d04 9d04 7d04 9e04 9e04 9d04     5..\.....}......
    844c:	9d04 9d04 9d04 9d04 9d04 9d04 9d04 7d04     ...............}
    845c:	7d04 5c04 7c04 9f05 9f05 7f05 7f05 7f05     .}.\.|..........
    846c:	5f05 5f05 7f05 5f05 9d25 7ebf ffef fff7     ._._..._%..~....
    847c:	ffef ffef ffef ffef ffef fe96 1e05 5f05     ..............._
    848c:	5f05 5f05 5f05 5f05 5f05 5f05 5f05 5f05     ._._._._._._._._
    849c:	5f05 5f05 5f05 5f05 5f05 5f05 7f05 7f05     ._._._._._._....
    84ac:	5f05 3d0d de86 ffef ffef ffef ffef ffef     ._.=............
    84bc:	ffef fff7 9ed7 bd35 5f05 5f05 5f05 7f05     ......5.._._._..
    84cc:	7f05 7f05 7f05 bf05 9f05 5c04 5c04 7d04     ...........\.\.}
    84dc:	9d04 9d04 9d04 9d04 9d04 9d04 9d04 bd04     ................
    84ec:	bd04 9d04 9e04 9e04 bd04 7d04 5a04 193d     ...........}.Z=.
    84fc:	bfdf ffff ffff ffff ffff ffff ffff ffff     ................
    850c:	ffff ffff ffff ffff ffff ffff ffff ffff     ................
    851c:	ffff ffff ffff ffff ffff ffff ffff ffff     ................
    852c:	ffff ffff ffff ffff ffff fff7 ffff 1b76     ..............v.
    853c:	3b04 9d04 9d04 9d04 9e04 9e04 9d04 9c04     .;..............
    854c:	bd04 be04 9e04 9e04 9d04 9d04 9d04 7d04     ...............}
    855c:	7d04 5c04 7c04 9f05 9f05 9f05 7f05 7f05     .}.\.|..........
    856c:	5f05 5f05 7f05 7f05 5f05 be2d fe4d fe4d     ._._....._-.M.M.
    857c:	fe4d fe4d fe4d fe4d fe4d 7d1d 5f05 5f05     M.M.M.M.M..}._._
    858c:	5f05 5f05 5f05 5f05 5f05 5f05 5f05 5f05     ._._._._._._._._
    859c:	5f05 5f05 5f05 5f05 5f05 7f05 7f05 5f05     ._._._._._....._
    85ac:	5f05 5f05 9d15 fd3d fe4d fe4d fe4d fe4d     ._._..=.M.M.M.M.
    85bc:	fe4d fe4d be2d 3f05 5f05 7f05 7f05 7f05     M.M.-..?._......
    85cc:	7f05 7f05 7f05 bf05 9f05 5c04 5c04 7d04     ...........\.\.}
    85dc:	9d04 9d04 9d04 9d04 9d04 bd04 be04 be04     ................
    85ec:	9d04 7d04 9d04 9e04 bd04 bd04 9e04 5b04     ...}...........[
    85fc:	1b76 feff ffff ffff ffff ffff ffff ffff     v...............
    860c:	ffff ffff ffff ffff ffff ffff ffff ffff     ................
    861c:	ffff ffff ffff ffff ffff ffff ffff ffff     ................
    862c:	ffff ffff ffff ffff ffff ffff dfe7 1a35     ..............5.
    863c:	7c04 9d04 9d04 9d04 9d04 9d04 9d04 9d04     .|..............
    864c:	9d04 9d04 9e04 9e04 9d04 9d04 7d04 7d04     .............}.}
    865c:	7c04 5c04 7d04 9f05 9f05 9f05 7f05 7f05     .|.\.}..........
    866c:	5f05 5f05 5f05 5f05 5f05 3f05 3f05 3f05     ._._._._._.?.?.?
    867c:	3f05 1f05 3f05 3f05 3f05 5f05 5f05 5f05     .?...?.?.?._._._
    868c:	5f05 5f05 5f05 5f05 5f05 5f05 5f05 5f05     ._._._._._._._._
    869c:	5f05 5f05 5f05 5f05 5f05 5f05 5f05 5f05     ._._._._._._._._
    86ac:	5f05 5f05 5f05 3f05 3f05 3f05 3f05 3f05     ._._._.?.?.?.?.?
    86bc:	3f05 3f05 5f05 5f05 5f05 5f05 5f05 7f05     .?.?._._._._._..
    86cc:	7f05 7f05 7f05 bf05 9f05 5c04 5c04 7d04     ...........\.\.}
    86dc:	9d04 9d04 9d04 9d04 9d04 9d04 9d04 9e04     ................
    86ec:	9e04 9d04 9e04 9d04 9e04 be04 9e04 5d04     ...............]
    86fc:	bb55 ffff ffff ffff ffff ffff ffff ffff     U...............
    870c:	ffff ffff ffff ffff ffff ffff ffff ffff     ................
    871c:	ffff ffff ffff ffff ffff ffff ffff ffff     ................
    872c:	ffff ffff ffff ffff ffff ffff 9ed7 ba1c     ................
    873c:	7c04 7d04 bf04 be04 bd04 9c04 9d04 9e04     .|.}............
    874c:	9d04 9d04 9e04 9e04 9d04 9d04 7d04 9c04     .............}..
    875c:	7c04 5c04 7d04 9f05 9f05 7f05 7f05 7f05     .|.\.}..........
    876c:	5f05 5f05 5f05 5f05 5f05 5f05 5f05 5f05     ._._._._._._._._
    877c:	5f05 5f05 5f05 5f05 5f05 5f05 5f05 5f05     ._._._._._._._._
    878c:	5f05 5f05 5f05 5f05 5f05 5f05 5f05 5f05     ._._._._._._._._
    879c:	5f05 5f05 5f05 5f05 5f05 5f05 5f05 5f05     ._._._._._._._._
    87ac:	5f05 7f05 5f05 5f05 5f05 5f05 5f05 5f05     ._..._._._._._._
    87bc:	5f05 5f05 5f05 5f05 5f05 5f05 5f05 7f05     ._._._._._._._..
    87cc:	7f05 7f05 7f05 bf05 9f05 5c04 5c04 7d04     ...........\.\.}
    87dc:	9d04 9d04 9d04 9d04 9d04 9d04 9d04 9d04     ................
    87ec:	9d04 9d04 9d04 9d04 7d04 be04 bd04 7b04     .........}.....{
    87fc:	bd4d fff7 ffff ffff ffff ffff ffff ffff     M...............
    880c:	ffff ffff ffff ffff ffff ffff ffff ffff     ................
    881c:	ffff ffff ffff ffff ffff ffff ffff ffff     ................
    882c:	ffff ffff ffff ffff ffff ffff bfdf da2c     ..............,.
    883c:	7c04 7d04 9d04 9e04 9e04 9d04 9d04 9d04     .|.}............
    884c:	9e04 9e04 9e04 9e04 9d04 9d04 9d04 7d04     ...............}
    885c:	7c04 5d04 7d04 9f05 9f05 7f05 7f05 7f05     .|.].}..........
    886c:	5f05 5f05 5f05 5f05 5f05 5f05 5f05 5f05     ._._._._._._._._
    887c:	5f05 5f05 5f05 5f05 5f05 5f05 5f05 5f05     ._._._._._._._._
    888c:	5f05 5f05 5f05 5f05 5f05 5f05 5f05 5f05     ._._._._._._._._
    889c:	5f05 5f05 5f05 5f05 5f05 5f05 5f05 5f05     ._._._._._._._._
    88ac:	5f05 5f05 5f05 7f05 7f05 7f05 7f05 7f05     ._._._..........
    88bc:	7f05 7f05 5f05 5f05 5f05 5f05 5f05 5f05     ....._._._._._._
    88cc:	7f05 7f05 7f05 bf05 9f05 5c04 5c04 7d04     ...........\.\.}
    88dc:	9d04 9d04 9d04 9d04 9d04 9d04 9d04 9d04     ................
    88ec:	9d04 9d04 9d04 9e04 9e04 9d04 9d04 5b04     ...............[
    88fc:	bb55 ffff ffff ffff ffff ffff ffff ffff     U...............
    890c:	ffff ffff ffff ffff ffff ffff ffff ffff     ................
    891c:	ffff ffff ffff ffff ffff ffff ffff ffff     ................
    892c:	ffff ffff ffff ffff ffff ffff feff 5b86     ...............[
    893c:	3b04 9e04 9d04 7d04 9e04 be04 bd04 9d04     .;.....}........
    894c:	9e04 9e04 9e04 9e04 9d04 9d04 7d04 9d04     .............}..
    895c:	7c04 5d04 7d04 bf05 9f05 7f05 7f05 7f05     .|.].}..........
    896c:	7f05 5f05 5f05 5f05 5f05 5f05 5f05 5f05     ..._._._._._._._
    897c:	5f05 5f05 5f05 5f05 5f05 5f05 5f05 5f05     ._._._._._._._._
    898c:	5f05 5f05 5f05 5f05 5f05 5f05 5f05 5f05     ._._._._._._._._
    899c:	5f05 5f05 5f05 5f05 5f05 5f05 5f05 5f05     ._._._._._._._._
    89ac:	5f05 5f05 5f05 7f05 7f05 7f05 7f05 7f05     ._._._..........
    89bc:	7f05 7f05 7f05 5f05 5f05 5f05 5f05 5f05     ......._._._._._
    89cc:	7f05 7f05 7f05 bf05 9f05 5c04 5c04 7d04     ...........\.\.}
    89dc:	9d04 9d04 9d04 9d04 9d04 9d04 9e04 9e04     ................
    89ec:	9e04 9e04 9e04 9e04 9e04 7d04 7e04 5a04     ...........}.~.Z
    89fc:	dda6 ffff ffff ffff ffff ffff ffff ffff     ................
    8a0c:	ffff ffff ffff ffff ffff ffff ffff ffff     ................
    8a1c:	ffff ffff ffff ffff ffff ffff ffff ffff     ................
    8a2c:	ffff ffff ffff ffff ffff ffff feff bedf     ................
    8a3c:	1a35 5d04 9d04 9d04 9d04 9e04 9e04 9d04     5..]............
    8a4c:	9d04 9d04 9e04 bd04 9d04 9d04 9d04 9d04     ................
    8a5c:	7c04 5d04 7d04 bf05 9f05 7f05 7f05 7f05     .|.].}..........
    8a6c:	7f05 7f05 5f05 5f05 5f05 5f05 5f05 5f05     ....._._._._._._
    8a7c:	5f05 5f05 5f05 5f05 5f05 5f05 5f05 5f05     ._._._._._._._._
    8a8c:	5f05 5f05 5f05 5f05 5f05 5f05 5f05 5f05     ._._._._._._._._
    8a9c:	5f05 5f05 5f05 5f05 5f05 5f05 5f05 5f05     ._._._._._._._._
    8aac:	5f05 5f05 5f05 7f05 7f05 7f05 7f05 7f05     ._._._..........
    8abc:	7f05 7f05 7f05 5f05 5f05 7f05 7f05 7f05     ......._._......
    8acc:	7f05 7f05 7f05 bf05 9f05 5c04 5c04 7d04     ...........\.\.}
    8adc:	9d04 9d04 9d04 9d04 9d04 9d04 9e04 9e04     ................
    8aec:	9e04 9d04 9d04 9d04 9d04 9c04 5a04 5a4d     .............ZMZ
    8afc:	dfe7 ffff ffff ffff ffff ffff ffff ffff     ................
    8b0c:	ffff ffff ffff ffff ffff ffff ffff ffff     ................
    8b1c:	ffff ffff ffff ffff ffff ffff ffff ffff     ................
    8b2c:	ffff ffff ffff ffff ffff ffff dff7 ffff     ................
    8b3c:	9ed7 bb55 5a04 5c04 5c04 3b04 5b04 5c04     ..U..Z.\.\.;.[.\
    8b4c:	5c04 5c04 9d04 9d04 9d04 9d04 9d04 9d04     .\.\............
    8b5c:	7c04 5d04 7d04 bf05 9f05 7f05 7f05 7f05     .|.].}..........
    8b6c:	7f05 7f05 7f05 7f05 7f05 7f05 7f05 7f05     ................
    8b7c:	7f05 7f05 7f05 7f05 7f05 7f05 7f05 7f05     ................
    8b8c:	7f05 7f05 7f05 7f05 7f05 7f05 7f05 7f05     ................
    8b9c:	7f05 7f05 7f05 7f05 7f05 7f05 7f05 7f05     ................
    8bac:	7f05 7f05 7f05 7f05 7f05 7f05 7f05 7f05     ................
    8bbc:	7f05 7f05 7f05 7f05 7f05 7f05 7f05 7f05     ................
    8bcc:	7f05 7f05 7f05 bf05 9f05 5c04 5c04 7d04     ...........\.\.}
    8bdc:	7d04 9d04 9d04 9d04 9d04 9d04 5c04 5c04     .}...........\.\
    8bec:	5c04 5c04 5c04 5b04 3b04 790c db65 bedf     .\.\.\.[.;.ye...
    8bfc:	fff7 dff7 ffff ffff ffff ffff ffff ffff     ................
    8c0c:	ffff ffff ffff ffff ffff ffff ffff ffff     ................
    8c1c:	ffff ffff ffff ffff ffff ffff ffff ffff     ................
    8c2c:	ffff ffff ffff ffff ffff ffff ffff ffff     ................
    8c3c:	ffff fff7 dda6 7c86 7c86 7c86 7c86 7c86     .......|.|.|.|.|
    8c4c:	7c86 3d5e 9b04 9d04 9d04 9d04 9d04 9d04     .|^=............
    8c5c:	7c04 5c04 7d04 bf05 bf05 9f05 9f05 7f05     .|.\.}..........
    8c6c:	7f05 7f05 7f05 7f05 7f05 7f05 7f05 7f05     ................
    8c7c:	7f05 7f05 7f05 7f05 7f05 7f05 7f05 7f05     ................
    8c8c:	7f05 7f05 7f05 7f05 7f05 7f05 7f05 7f05     ................
    8c9c:	7f05 7f05 7f05 7f05 7f05 7f05 7f05 7f05     ................
    8cac:	7f05 7f05 7f05 7f05 7f05 7f05 7f05 7f05     ................
    8cbc:	7f05 7f05 7f05 7f05 7f05 7f05 7f05 7f05     ................
    8ccc:	7f05 9f05 9f05 bf05 9f05 7c04 7c04 7d04     ...........|.|.}
    8cdc:	7d04 9d04 9d04 9d04 9e04 9c04 3d5e 7c86     .}..........^=.|
    8cec:	7c86 7c86 7c86 7c86 7c86 5ebf ffff ffff     .|.|.|.|.|.^....
    8cfc:	ffff ffff ffff ffff ffff ffff ffff ffff     ................
    8d0c:	ffff ffff ffff ffff ffff ffff ffff ffff     ................
    8d1c:	ffff ffff ffff ffff ffff ffff ffff ffff     ................
    8d2c:	ffff ffff ffff ffff ffff ffff ffff ffff     ................
    8d3c:	ffff ffff ffff ffff ffff ffff ffff ffff     ................
    8d4c:	ffff 7ecf 9b0c 9d04 9e04 9d04 9d04 9d04     ...~............
    8d5c:	7d04 5c04 7d04 9f05 df05 bf05 bf05 9f05     .}.\.}..........
    8d6c:	9f05 9f05 7f05 7f05 7f05 7f05 7f05 7f05     ................
    8d7c:	7f05 7f05 7f05 7f05 7f05 7f05 7f05 7f05     ................
    8d8c:	7f05 7f05 7f05 7f05 7f05 7f05 7f05 7f05     ................
    8d9c:	7f05 7f05 7f05 7f05 7f05 7f05 7f05 7f05     ................
    8dac:	7f05 7f05 7f05 7f05 7f05 7f05 7f05 7f05     ................
    8dbc:	7f05 7f05 7f05 7f05 7f05 7f05 7f05 7f05     ................
    8dcc:	9f05 bf05 bf05 df05 7f05 7c04 7c04 7d04     ...........|.|.}
    8ddc:	9d04 9d04 9d04 9d04 9e04 9b0c 7ecf ffff     .............~..
    8dec:	ffff ffff ffff ffff ffff ffff ffff ffff     ................
    8dfc:	ffff ffff ffff ffff ffff ffff ffff ffff     ................
    8e0c:	ffff ffff ffff ffff ffff ffff ffff ffff     ................
    8e1c:	ffff ffff ffff ffff ffff ffff ffff ffff     ................
    8e2c:	ffff ffff ffff ffff ffff ffff ffff ffff     ................
    8e3c:	ffff ffff ffff ffff ffff ffff ffff ffff     ................
    8e4c:	ffff 5ebf 9b0c 9d04 9e04 9d04 9d04 9d04     ...^............
    8e5c:	7d04 7d04 5c04 1e05 df05 df05 bf05 bf05     .}.}.\..........
    8e6c:	bf05 bf05 bf05 9f05 9f05 9f05 9f05 9f05     ................
    8e7c:	bf05 bf05 bf05 bf05 bf05 bf05 9f05 bf05     ................
    8e8c:	bf05 9f05 bf05 9f05 9f05 bf05 9f05 bf05     ................
    8e9c:	bf05 9f05 bf05 9f05 9f05 bf05 9f05 bf05     ................
    8eac:	bf05 9f05 bf05 bf05 9f05 bf05 9f05 bf05     ................
    8ebc:	bf05 9f05 9f05 9f05 9f05 bf05 bf05 bf05     ................
    8ecc:	bf05 df05 df05 df05 1e05 5c04 7d04 9d04     ...........\.}..
    8edc:	9d04 7d04 9d04 9d04 9e04 7b0c 7ecf ffff     ...}.......{.~..
    8eec:	ffff ffff ffff ffff ffff ffff ffff ffff     ................
    8efc:	ffff ffff ffff ffff ffff ffff ffff ffff     ................
    8f0c:	ffff ffff ffff ffff ffff ffff ffff ffff     ................
    8f1c:	ffff ffff ffff ffff ffff ffff ffff ffff     ................
    8f2c:	ffff ffff ffff ffff ffff ffff ffff ffff     ................
    8f3c:	ffff ffff ffff ffff ffff ffff ffff ffff     ................
    8f4c:	ffff 5ec7 9b0c 9d04 9e04 9d04 9d04 9d04     ...^............
    8f5c:	7d04 7d04 7c04 5c04 1e05 bf05 df05 bf05     .}.}.|.\........
    8f6c:	bf05 bf05 bf05 bf05 bf05 bf05 bf05 bf05     ................
    8f7c:	bf05 bf05 bf05 bf05 bf05 bf05 bf05 bf05     ................
    8f8c:	bf05 bf05 bf05 bf05 9f05 bf05 bf05 bf05     ................
    8f9c:	bf05 bf05 bf05 bf05 bf05 bf05 bf05 bf05     ................
    8fac:	bf05 bf05 bf05 bf05 bf05 bf05 bf05 bf05     ................
    8fbc:	bf05 bf05 bf05 bf05 bf05 bf05 9f05 bf05     ................
    8fcc:	bf05 bf05 9f05 1e05 5c04 7c04 7d04 9d04     .........\.|.}..
    8fdc:	9d04 7d04 9d04 9e04 9e04 7b0c 7ecf ffff     ...}.......{.~..
    8fec:	ffff ffff ffff ffff ffff ffff ffff ffff     ................
    8ffc:	ffff ffff ffff ffff ffff ffff ffff ffff     ................
    900c:	ffff ffff ffff ffff ffff ffff ffff ffff     ................
    901c:	ffff ffff ffff ffff ffff ffff ffff ffff     ................
    902c:	ffff ffff ffff ffff ffff ffff ffff ffff     ................
    903c:	ffff ffff ffff ffff ffff ffff ffff ffff     ................
    904c:	ffff 5ebf 9b0c 9d04 9e04 9d04 9d04 9d04     ...^............
    905c:	9d04 7d04 7d04 7d04 5c04 9c04 9d04 9d04     ...}.}.}.\......
    906c:	9d04 9d04 9d04 9d04 9d04 7d04 7d04 7d04     ...........}.}.}
    907c:	7d04 9d04 9d04 7d04 9d04 9d04 7d04 7d04     .}.....}.....}.}
    908c:	9d04 9d04 9d04 9d04 7d04 7d04 9d04 9d04     .........}.}....
    909c:	9d04 7d04 7d04 7d04 7d04 7d04 7d04 7d04     ...}.}.}.}.}.}.}
    90ac:	7d04 7d04 7d04 7d04 7d04 9d04 7d04 9d04     .}.}.}.}.}...}..
    90bc:	7d04 7d04 7d04 7d04 9d04 9d04 9d04 9d04     .}.}.}.}........
    90cc:	9d04 9d04 7c04 5c04 7c04 7c04 9d04 9d04     .....|.\.|.|....
    90dc:	9d04 7d04 9d04 9d04 9e04 7b0c 5ec7 ffff     ...}.......{.^..
    90ec:	ffff ffff ffff ffff ffff ffff ffff ffff     ................
    90fc:	ffff ffff ffff ffff ffff ffff ffff ffff     ................
    910c:	ffff ffff ffff ffff ffff ffff ffff ffff     ................
    911c:	ffff ffff ffff ffff ffff ffff ffff ffff     ................
    912c:	ffff ffff ffff ffff ffff ffff ffff ffff     ................
    913c:	ffff ffff ffff ffff ffff ffff ffff ffff     ................
    914c:	ffff 5ebf 9b04 9d04 9e04 9d04 9d04 9d04     ...^............
    915c:	9d04 7d04 7d04 7d04 7c04 5c04 5c04 5c04     ...}.}.}.|.\.\.\
    916c:	5c04 5c04 5c04 3c04 3c04 3c04 3c04 3c04     .\.\.\.<.<.<.<.<
    917c:	3c04 3c04 3c04 3c04 3c04 3c04 3c04 3c04     .<.<.<.<.<.<.<.<
    918c:	3c04 3c04 3c04 5c04 5c04 5c04 3c04 3c04     .<.<.<.\.\.\.<.<
    919c:	3c04 3c04 3c04 3c04 3c04 3c04 3c04 3c04     .<.<.<.<.<.<.<.<
    91ac:	3c04 3c04 3c04 3c04 3c04 3c04 3c04 3c04     .<.<.<.<.<.<.<.<
    91bc:	3c04 3c04 3c04 3c04 3c04 5c04 3c04 5c04     .<.<.<.<.<.\.<.\
    91cc:	5c04 5c04 7c04 7c04 7d04 7d04 7d04 7d04     .\.\.|.|.}.}.}.}
    91dc:	9d04 9d04 9d04 9d04 7d04 9b0c 5ec7 ffff     .........}...^..
    91ec:	ffff ffff ffff ffff ffff ffff ffff ffff     ................
    91fc:	ffff ffff ffff ffff ffff ffff ffff ffff     ................
    920c:	ffff ffff ffff ffff ffff ffff ffff ffff     ................
    921c:	ffff ffff ffff ffff ffff ffff ffff ffff     ................
    922c:	ffff ffff ffff ffff ffff ffff ffff ffff     ................
    923c:	ffff ffff ffff ffff ffff ffff ffff ffff     ................
    924c:	ffff 1db7 9b04 9e04 9e04 9d04 bd04 9d04     ................
    925c:	7d04 7d04 9d04 9d04 9c04 7c04 7c04 7c04     .}.}.......|.|.|
    926c:	9c04 9c04 9c04 7c04 7c04 7c04 7c04 7c04     .......|.|.|.|.|
    927c:	7c04 7c04 7c04 7c04 7c04 7c04 7c04 7c04     .|.|.|.|.|.|.|.|
    928c:	7c04 7c04 7c04 7c04 7c04 7c04 7c04 7c04     .|.|.|.|.|.|.|.|
    929c:	7c04 7c04 7c04 7c04 7c04 7c04 7c04 7c04     .|.|.|.|.|.|.|.|
    92ac:	7c04 7c04 7c04 7c04 7c04 7c04 7c04 7c04     .|.|.|.|.|.|.|.|
    92bc:	7c04 7c04 7c04 7c04 7c04 7c04 7c04 7c04     .|.|.|.|.|.|.|.|
    92cc:	7d04 7d04 9d04 9d04 9d04 9e04 7d04 7d04     .}.}.........}.}
    92dc:	7d04 9d04 9e04 9d04 7d04 9b0c 5ec7 ffff     .}.......}...^..
    92ec:	ffff ffff ffff ffff ffff ffff ffff ffff     ................
    92fc:	ffff ffff ffff ffff ffff ffff ffff ffff     ................
    930c:	ffff ffff ffff ffff ffff ffff ffff ffff     ................
    931c:	ffff ffff ffff ffff ffff ffff ffff ffff     ................
    932c:	ffff ffff ffff ffff ffff ffff ffff ffff     ................
    933c:	ffff ffff ffff ffff ffff ffff ffff ffff     ................
    934c:	ffff 1db7 9c04 9e04 9e04 9d04 9d04 9d04     ................
    935c:	9d04 9d04 7d04 7d04 9d04 9d04 7d04 7d04     .....}.}.....}.}
    936c:	9d04 9d04 9d04 9c04 9c04 9c04 7d04 7d04     .............}.}
    937c:	7d04 7d04 7d04 7d04 7d04 7d04 9d04 7d04     .}.}.}.}.}.}...}
    938c:	9d04 7d04 7d04 9d04 9d04 9d04 9d04 9d04     ...}.}..........
    939c:	7d04 7d04 7d04 7d04 7d04 9d04 9d04 9d04     .}.}.}.}.}......
    93ac:	9d04 7d04 7d04 9c04 9c04 7d04 9d04 9d04     ...}.}.....}....
    93bc:	9c04 9c04 9c04 9d04 9d04 9d04 9d04 9d04     ................
    93cc:	9d04 9d04 9d04 9d04 9d04 7d04 7d04 9e04     ...........}.}..
    93dc:	9d04 bd04 9d04 9c04 9d04 db14 9ed7 ffff     ................
    93ec:	dfff ffff ffff ffff ffff ffff ffff ffff     ................
    93fc:	ffff ffff ffff ffff ffff ffff ffff ffff     ................
    940c:	ffff ffff ffff ffff ffff ffff ffff ffff     ................
    941c:	ffff ffff ffff ffff ffff ffff ffff ffff     ................
    942c:	ffff ffff ffff ffff ffff ffff ffff ffff     ................
    943c:	ffff ffff ffff ffff ffff ffff ffff ffff     ................
    944c:	feff 9ed7 ba1c 7d04 9d04 9d04 9d04 9d04     .......}........
    945c:	bd04 bd04 be04 9e04 7d04 7d04 7d04 7d04     .........}.}.}.}
    946c:	9d04 9d04 9c04 9c04 9c04 9d04 9d04 9d04     ................
    947c:	9d04 9d04 9d04 9c04 9c04 9c04 9c04 9c04     ................
    948c:	9d04 9d04 9c04 9c04 9c04 9d04 7d04 7d04     .............}.}
    949c:	9d04 9d04 9d04 9d04 7d04 9c04 9c04 9c04     .........}......
    94ac:	9c04 9c04 9c04 9c04 9c04 7d04 9d04 9d04     ...........}....
    94bc:	9c04 9c04 9c04 9d04 9d04 9d04 9d04 9d04     ................
    94cc:	9d04 9c04 9c04 9c04 9d04 9d04 9d04 bd04     ................
    94dc:	9d04 bd04 9d04 7d04 5d04 3b3d ffe7 ffff     .......}.]=;....
    94ec:	ffff ffff ffff ffff ffff ffff ffff ffff     ................
    94fc:	ffff ffff ffff ffff ffff ffff ffff ffff     ................
    950c:	ffff ffff ffff ffff ffff ffff ffff ffff     ................
    951c:	ffff ffff ffff ffff ffff ffff ffff ffff     ................
    952c:	ffff ffff ffff ffff ffff ffff ffff ffff     ................
    953c:	ffff ffff ffff ffff ffff ffff ffff ffff     ................
    954c:	fff7 ffef 5a4d 5b04 9c04 9d04 7d04 9d04     ....MZ.[.....}..
    955c:	bd04 bd04 9d04 7d04 7d04 9e04 9d04 9d04     .......}.}......
    956c:	9d04 9d04 9d04 9d04 9d04 9d04 9d04 9d04     ................
    957c:	9d04 9d04 7d04 7d04 7d04 9d04 7d04 7d04     .....}.}.}...}.}
    958c:	9d04 9d04 7d04 9d04 9d04 9d04 9d04 9d04     .....}..........
    959c:	9d04 9d04 9d04 9d04 9d04 9d04 9c04 9d04     ................
    95ac:	9d04 9d04 9d04 9d04 9d04 7d04 9d04 9d04     ...........}....
    95bc:	9d04 9d04 9d04 9d04 9d04 9d04 9d04 9d04     ................
    95cc:	9d04 9d04 9d04 9d04 7d04 9d04 9d04 9d04     .........}......
    95dc:	9d04 bd04 bf04 9e04 3c04 db65 ffff ffff     .........<e.....
    95ec:	ffff ffff ffff ffff ffff ffff ffff ffff     ................
    95fc:	ffff ffff ffff ffff ffff ffff ffff ffff     ................
    960c:	ffff ffff ffff ffff ffff ffff ffff ffff     ................
    961c:	ffff ffff ffff ffff ffff ffff ffff ffff     ................
    962c:	ffff ffff ffff ffff ffff ffff ffff ffff     ................
    963c:	ffff ffff ffff ffff ffff ffff ffff ffff     ................
    964c:	fff7 ffff 5ebf 9a0c 7c04 7d04 9e04 9e04     .....^...|.}....
    965c:	9e04 7d04 9d04 9d04 9d04 9e04 9e04 9d04     ...}............
    966c:	9e04 9e04 9e04 9e04 bd04 9d04 9d04 9d04     ................
    967c:	9c04 9d04 9e04 9e04 9e04 9e04 9e04 9e04     ................
    968c:	9e04 9e04 9e04 9e04 9e04 9e04 9e04 9d04     ................
    969c:	9d04 9d04 9d04 9d04 9d04 9d04 9d04 bd04     ................
    96ac:	bd04 9e04 9e04 9e04 9e04 9e04 9d04 9d04     ................
    96bc:	9e04 9e04 9d04 9d04 9d04 9d04 9d04 9d04     ................
    96cc:	be04 be04 be04 9e04 be04 be04 9e04 9e04     ................
    96dc:	9e04 7c04 9c04 7c04 b91c 7ecf ffff ffff     ...|...|...~....
    96ec:	ffff ffff ffff ffff ffff ffff ffff ffff     ................
    96fc:	ffff ffff ffff ffff ffff ffff ffff ffff     ................
    970c:	ffff ffff ffff ffff ffff ffff ffff ffff     ................
    971c:	ffff ffff ffff ffff ffff ffff ffff ffff     ................
    972c:	ffff ffff ffff ffff ffff ffff ffff ffff     ................
    973c:	ffff ffff ffff ffff ffff ffff ffff ffff     ................
    974c:	ffff ffff ffff dda6 ba1c 5d04 7d04 7d04     ...........].}.}
    975c:	9e04 9e04 9e04 9d04 9c04 9c04 9d04 9d04     ................
    976c:	7d04 9e04 9e04 9e04 9e04 9e04 9d04 9d04     .}..............
    977c:	9d04 9d04 9d04 9d04 bd04 9d04 9d04 9d04     ................
    978c:	9d04 9d04 9d04 9e04 9e04 9e04 9e04 9d04     ................
    979c:	9d04 9d04 9d04 9d04 9d04 9c04 9d04 9d04     ................
    97ac:	9d04 9d04 9d04 9d04 7d04 7d04 7d04 9d04     .........}.}.}..
    97bc:	9e04 9e04 9d04 9d04 9d04 9d04 9d04 9e04     ................
    97cc:	9d04 9d04 9d04 9d04 7d04 7d04 9d04 be04     .........}.}....
    97dc:	9e04 7d04 7b04 ba1c dda6 ffff ffff ffff     ...}.{..........
    97ec:	ffff ffff ffff ffff ffff ffff ffff ffff     ................
    97fc:	ffff ffff ffff ffff ffff ffff ffff ffff     ................
    980c:	ffff ffff ffff ffff ffff ffff ffff ffff     ................
    981c:	ffff ffff ffff ffff ffff ffff ffff ffff     ................
    982c:	ffff ffff ffff ffff ffff ffff ffff ffff     ................
    983c:	ffff ffff ffff ffff ffff ffff ffff ffff     ................
    984c:	ffff ffff feff feff 5ebf 5a4d b91c 7a0c     .........^MZ...z
    985c:	3b04 5c04 5c04 5b04 5b04 7b04 9c04 7c04     .;.\.\.[.[.{...|
    986c:	9d04 9e04 9e04 9e04 9e04 9e04 9d04 9d04     ................
    987c:	9c04 9c04 7b04 5b04 5b04 5b04 5b04 5b04     .....{.[.[.[.[.[
    988c:	5b04 7b04 9c04 9c04 9d04 9e04 9e04 9d04     .[.{............
    989c:	9d04 9d04 9d04 9d04 9d04 9c04 7b04 5b04     .............{.[
    98ac:	5b04 5b04 5b04 5b04 5c04 5c04 7c04 7c04     .[.[.[.[.\.\.|.|
    98bc:	7d04 be04 9d04 9d04 9d04 9d04 9d04 9d04     .}..............
    98cc:	9c04 9b04 7b04 5b04 5b04 3b04 5b04 5b04     .....{.[.[.;.[.[
    98dc:	7b0c ba1c bb55 5ec7 ffff ffff ffff ffff     .{..U..^........
    98ec:	ffff ffff ffff ffff ffff ffff ffff ffff     ................
    98fc:	ffff ffff ffff ffff ffff ffff ffff ffff     ................
    990c:	ffff ffff ffff ffff ffff ffff ffff ffff     ................
    991c:	ffff ffff ffff ffff ffff ffff ffff ffff     ................
    992c:	ffff ffff ffff ffff ffff ffff ffff ffff     ................
    993c:	ffff ffff ffff ffff ffff ffff ffff ffff     ................
    994c:	ffff ffff ffff ffff ffff ffef bfd7 1db7     ................
    995c:	7c96 bd9e bd9e bd9e bd9e fea6 bb55 5c04     .|..........U..\
    996c:	9d04 9d04 9e04 9e04 9d04 9e04 9e04 7c04     ...............|
    997c:	3b3d 5eaf dda6 bd9e bd9e bd9e bd9e bd9e     =;.^............
    998c:	bd9e fea6 3d5e 7b04 7d04 9e04 9e04 9d04     ....^=.{.}......
    999c:	9d04 9d04 9d04 7d04 db14 fe96 fea6 bd9e     .......}........
    99ac:	bd9e bd9e bd9e bd9e bd9e fea6 fe96 1b2d     ..............-.
    99bc:	7d04 9e04 9d04 9d04 9d04 9d04 9d04 9d04     .}..............
    99cc:	7b04 7c86 fea6 bd9e bd9e bd9e bd9e bd9e     .{.|............
    99dc:	5ebf 9ed7 fff7 ffff ffff ffff ffff ffff     .^..............
    99ec:	ffff ffff ffff ffff ffff ffff ffff ffff     ................
    99fc:	ffff ffff ffff ffff ffff ffff ffff ffff     ................
    9a0c:	ffff ffff ffff ffff ffff ffff ffff ffff     ................
    9a1c:	ffff ffff ffff ffff ffff ffff ffff ffff     ................
    9a2c:	ffff ffff ffff ffff ffff ffff ffff ffff     ................
    9a3c:	ffff ffff ffff ffff ffff ffff ffff ffff     ................
    9a4c:	ffff ffff ffff ffff ffff ffff ffff ffff     ................
    9a5c:	ffff ffff ffff ffff ffff ffff 1b76 5b04     ............v..[
    9a6c:	be04 9d04 9e04 9d04 9d04 9e04 9e04 7c04     ...............|
    9a7c:	db65 ffff ffff ffff ffff ffff ffff ffff     e...............
    9a8c:	ffff ffff dda6 5a04 9e04 9e04 9e04 9e04     .......Z........
    9a9c:	9d04 9e04 9e04 7d04 db1c dfdf ffff ffff     .......}........
    9aac:	ffff ffff ffff ffff ffff ffff ffef 3b3d     ..............=;
    9abc:	7d04 9e04 9d04 9d04 9d04 9d04 9d04 9e04     .}..............
    9acc:	7b04 7eb7 ffff ffff ffff ffff ffff ffff     .{.~............
    9adc:	ffff ffff ffff ffff ffff ffff ffff ffff     ................
    9aec:	ffff ffff ffff ffff ffff ffff ffff ffff     ................
    9afc:	ffff ffff ffff ffff ffff ffff ffff ffff     ................
    9b0c:	ffff ffff ffff ffff ffff ffff ffff ffff     ................
    9b1c:	ffff ffff ffff ffff ffff ffff ffff ffff     ................
    9b2c:	ffff ffff ffff ffff ffff ffff ffff ffff     ................
    9b3c:	ffff ffff ffff ffff ffff ffff ffff ffff     ................
    9b4c:	ffff ffff ffff ffff ffff ffff ffff ffff     ................
    9b5c:	ffff ffff ffff ffff ffff ffff 1b76 5b04     ............v..[
    9b6c:	be04 9d04 9e04 9d04 9c04 9e04 9e04 7c04     ...............|
    9b7c:	db65 ffff ffff ffff ffff ffff ffff ffff     e...............
    9b8c:	ffff ffff dda6 5a04 9e04 9e04 9e04 9d04     .......Z........
    9b9c:	9d04 9d04 9e04 7d04 db1c bfd7 ffff dfff     .......}........
    9bac:	ffff ffff ffff ffff ffff ffff bfdf da2c     ..............,.
    9bbc:	7d04 9d04 9d04 9d04 9d04 9d04 9d04 9e04     .}..............
    9bcc:	7c04 fea6 ffff ffff ffff ffff ffff ffff     .|..............
    9bdc:	ffff ffff ffff ffff ffff ffff ffff ffff     ................
    9bec:	ffff ffff ffff ffff ffff ffff ffff ffff     ................
    9bfc:	ffff ffff ffff ffff ffff ffff ffff ffff     ................
    9c0c:	ffff ffff ffff ffff ffff ffff ffff ffff     ................
    9c1c:	ffff ffff ffff ffff ffff ffff ffff ffff     ................
    9c2c:	ffff ffff ffff ffff ffff ffff ffff ffff     ................
    9c3c:	ffff ffff ffff ffff ffff ffff ffff ffff     ................
    9c4c:	ffff ffff ffff ffff ffff ffff ffff ffff     ................
    9c5c:	ffff ffff ffff ffff ffff ffff 1b76 3b04     ............v..;
    9c6c:	9e04 9d04 9e04 9d04 9c04 9e04 9e04 7c04     ...............|
    9c7c:	db65 ffff ffff ffff ffff ffff ffff ffff     e...............
    9c8c:	ffff ffff dda6 5a04 9e04 9e04 9e04 9e04     .......Z........
    9c9c:	9d04 9e04 9e04 7d04 db1c bfd7 ffff dfff     .......}........
    9cac:	ffff ffff ffff ffff ffff ffff bfd7 da2c     ..............,.
    9cbc:	7d04 9d04 9d04 9d04 9d04 9d04 9d04 9e04     .}..............
    9ccc:	7c04 fea6 ffff ffff ffff ffff ffff ffff     .|..............
    9cdc:	ffff ffff ffff ffff ffff ffff ffff ffff     ................
    9cec:	ffff ffff ffff ffff ffff ffff ffff ffff     ................
    9cfc:	ffff ffff ffff ffff ffff ffff ffff ffff     ................
    9d0c:	ffff ffff ffff ffff ffff ffff ffff ffff     ................
    9d1c:	ffff ffff ffff ffff ffff ffff ffff ffff     ................
    9d2c:	ffff ffff ffff ffff ffff ffff ffff ffff     ................
    9d3c:	ffff ffff ffff ffff ffff ffff ffff ffff     ................
    9d4c:	ffff ffff ffff ffff ffff ffff ffff ffff     ................
    9d5c:	ffff ffff ffff ffff ffff ffff 1b76 5b04     ............v..[
    9d6c:	bd04 9d04 9e04 9d04 9c04 9e04 9e04 7c04     ...............|
    9d7c:	db65 ffff ffff ffff ffff ffff ffff ffff     e...............
    9d8c:	ffff ffff bca6 3a04 9e04 9e04 9e04 9e04     .......:........
    9d9c:	9d04 9e04 9e04 7d04 db1c bfd7 ffff ffff     .......}........
    9dac:	ffff ffff ffff ffff ffff ffff bedf da2c     ..............,.
    9dbc:	7d04 9d04 9d04 9d04 9d04 9d04 9d04 9e04     .}..............
    9dcc:	5b04 fea6 ffff ffff ffff ffff ffff ffff     .[..............
    9ddc:	ffff ffff ffff ffff ffff ffff ffff ffff     ................
    9dec:	ffff ffff ffff ffff ffff ffff ffff ffff     ................
    9dfc:	ffff ffff ffff ffff ffff ffff ffff ffff     ................
    9e0c:	ffff ffff ffff ffff ffff ffff ffff ffff     ................
    9e1c:	ffff ffff ffff ffff ffff ffff ffff ffff     ................
    9e2c:	ffff ffff ffff ffff ffff ffff ffff ffff     ................
    9e3c:	ffff ffff ffff ffff ffff ffff ffff ffff     ................
    9e4c:	ffff ffff ffff ffff ffff ffff ffff ffff     ................
    9e5c:	ffff ffff ffff ffff ffff ffff 1b76 3b04     ............v..;
    9e6c:	bd04 9d04 9e04 9d04 9c04 9e04 9e04 7c04     ...............|
    9e7c:	db65 ffff ffff ffff ffff ffff ffff ffff     e...............
    9e8c:	ffff ffff bca6 3a04 9d04 9d04 9e04 9e04     .......:........
    9e9c:	9d04 9e04 9e04 7d04 db1c bfd7 ffff ffff     .......}........
    9eac:	ffff ffff ffff ffff ffff ffff bee7 da2c     ..............,.
    9ebc:	7d04 9e04 9d04 9d04 9d04 9d04 9d04 9d04     .}..............
    9ecc:	5c04 bd9e ffff ffff ffff ffff ffff ffff     .\..............
    9edc:	ffff ffff ffff ffff ffff ffff ffff ffff     ................
    9eec:	ffff ffff ffff ffff ffff ffff ffff ffff     ................
    9efc:	ffff ffff ffff ffff ffff ffff ffff ffff     ................
    9f0c:	ffff ffff ffff ffff ffff ffff ffff ffff     ................
    9f1c:	ffff ffff ffff ffff ffff ffff ffff ffff     ................
    9f2c:	ffff ffff ffff ffff ffff ffff ffff ffff     ................
    9f3c:	ffff ffff ffff ffff ffff ffff ffff ffff     ................
    9f4c:	ffff ffff ffff ffff ffff ffff ffff ffff     ................
    9f5c:	ffff ffff ffff ffff ffff ffff 9d8e 7b04     ...............{
    9f6c:	9d04 9d04 9e04 9d04 9c04 9d04 9e04 5c04     ...............\
    9f7c:	db65 ffff ffff ffff ffff ffff ffff ffff     e...............
    9f8c:	ffff ffff 5ec7 ba1c 7c04 9d04 7d04 9e04     .....^...|...}..
    9f9c:	9d04 9e04 9e04 7d04 db1c dfdf ffff ffff     .......}........
    9fac:	ffff ffff ffff ffff ffff ffff ffff bb55     ..............U.
    9fbc:	5d04 9e04 9d04 9d04 9d04 9d04 9d04 9d04     .]..............
    9fcc:	7b04 1daf ffff ffff ffff ffff ffff ffff     .{..............
    9fdc:	ffff ffff ffff ffff ffff ffff ffff ffff     ................
    9fec:	ffff ffff ffff ffff ffff ffff ffff ffff     ................
    9ffc:	ffff ffff ffff ffff ffff ffff ffff ffff     ................
    a00c:	ffff ffff ffff ffff ffff ffff ffff ffff     ................
    a01c:	ffff ffff ffff ffff ffff ffff ffff ffff     ................
    a02c:	ffff ffff ffff ffff ffff ffff ffff ffff     ................
    a03c:	ffff ffff ffff ffff ffff ffff ffff ffff     ................
    a04c:	ffff ffff ffff ffff ffff ffff ffff ffff     ................
    a05c:	ffff ffff ffff ffff ffff feff 5ebf 7a0c     .............^.z
    a06c:	9c04 9d04 9e04 9e04 bd04 9d04 9d04 5b04     ...............[
    a07c:	9d8e ffff ffff ffff ffff ffff ffff ffff     ................
    a08c:	ffff ffff ffef da2c 7c04 7d04 9d04 9e04     ......,..|.}....
    a09c:	9e04 9e04 9e04 5b04 3b3d fff7 ffff ffff     .......[=;......
    a0ac:	ffff ffff ffff ffff ffff ffff ffff 1b76     ..............v.
    a0bc:	3c04 9d04 9d04 bd04 9d04 9e04 7d04 9c04     .<...........}..
    a0cc:	ba1c 9ed7 ffff fff7 ffff ffff ffff ffff     ................
    a0dc:	ffff ffff ffff ffff ffff ffff ffff ffff     ................
    a0ec:	ffff ffff ffff ffff ffff ffff ffff ffff     ................
    a0fc:	ffff ffff ffff ffff ffff ffff ffff ffff     ................
    a10c:	ffff ffff ffff ffff ffff ffff ffff ffff     ................
    a11c:	ffff ffff ffff ffff ffff ffff ffff ffff     ................
    a12c:	ffff ffff ffff ffff ffff ffff ffff ffff     ................
    a13c:	ffff ffff ffff ffff ffff ffff ffff ffff     ................
    a14c:	ffff ffff ffff ffff ffff ffff ffff ffff     ................
    a15c:	ffff ffff ffff ffff ffff fff7 dfef bb55     ..............U.
    a16c:	5c04 9d04 9e04 9e04 bd04 9c04 5d04 da2c     .\...........],.
    a17c:	9ed7 ffff ffff ffff ffff ffff ffff ffff     ................
    a18c:	ffff ffff ffff bd9e 5b04 7e04 bc04 be04     .........[.~....
    a19c:	9e04 bd04 7d04 790c bca6 ffff ffff ffff     .....}.y........
    a1ac:	ffff ffff ffff ffff ffff ffff ffff 7ecf     ...............~
    a1bc:	b91c 5d04 9e04 9e04 9e04 be04 7d04 3b04     ...].........}.;
    a1cc:	bb55 fef7 deff ffff ffff ffff ffff ffff     U...............
    a1dc:	ffff ffff ffff ffff ffff ffff ffff ffff     ................
    a1ec:	ffff ffff ffff ffff ffff ffff ffff ffff     ................
    a1fc:	ffff ffff ffff ffff ffff ffff ffff ffff     ................
    a20c:	ffff ffff ffff ffff ffff ffff ffff ffff     ................
    a21c:	ffff ffff ffff ffff ffff ffff ffff ffff     ................
    a22c:	ffff ffff ffff ffff ffff ffff ffff ffff     ................
    a23c:	ffff ffff ffff ffff ffff ffff ffff ffff     ................
    a24c:	ffff ffff ffff ffff ffff ffff ffff ffff     ................
    a25c:	ffff ffff ffff ffff ffff ffff feff 9ecf     ................
    a26c:	5a4d 7b04 7d04 7d04 7c04 5b04 db1c 1db7     MZ.{.}.}.|.[....
    a27c:	ffff ffff ffff ffff ffff ffff ffff ffff     ................
    a28c:	ffff ffff ffff dff7 1b76 7a0c 7b04 7e04     ........v..z.{.~
    a29c:	7e04 3c04 9a14 1b76 ffef ffff ffff ffff     .~.<..v.........
    a2ac:	ffff ffff ffff ffff ffff ffff ffff ffff     ................
    a2bc:	7c96 790c 5b04 5d04 9e04 7d04 3a04 5a4d     .|.y.[.]...}.:MZ
    a2cc:	9ed7 feff dfff ffff feff ffff ffff ffff     ................
    a2dc:	ffff ffff ffff ffff ffff ffff ffff ffff     ................
    a2ec:	ffff ffff ffff ffff ffff ffff ffff ffff     ................
    a2fc:	ffff ffff ffff ffff ffff ffff ffff ffff     ................
    a30c:	ffff ffff ffff ffff ffff ffff ffff ffff     ................
    a31c:	ffff ffff ffff ffff ffff ffff ffff ffff     ................
    a32c:	ffff ffff ffff ffff ffff ffff ffff ffff     ................
    a33c:	ffff ffff ffff ffff ffff ffff ffff ffff     ................
    a34c:	ffff ffff ffff ffff ffff ffff ffff ffff     ................
    a35c:	ffff ffff ffff ffff ffff ffff ffff ffff     ................
    a36c:	ffef fb6d da2c db1c da2c fb6d 7ecf ffff     ..m.,...,.m..~..
    a37c:	ffff ffff ffff ffff ffff ffff ffff ffff     ................
    a38c:	ffff ffff fff7 ffff ffff 1daf 3b3d db1c     ............=;..
    a39c:	db1c 1a35 dda6 fff7 ffff ffff ffff ffff     ..5.............
    a3ac:	ffff ffff ffff ffff ffff ffff ffff ffff     ................
    a3bc:	fff7 1db7 bb55 da2c db1c b91c fb6d ffe7     ....U.,.....m...
    a3cc:	ffff ffff ffff ffff ffff ffff ffff ffff     ................
    a3dc:	ffff ffff ffff ffff ffff ffff ffff ffff     ................
    a3ec:	ffff ffff ffff ffff ffff ffff ffff ffff     ................
    a3fc:	ffff ffff ffff ffff ffff ffff ffff ffff     ................
    a40c:	ffff ffff ffff ffff ffff ffff ffff ffff     ................
    a41c:	ffff ffff ffff ffff ffff ffff ffff ffff     ................
    a42c:	ffff ffff ffff ffff ffff ffff ffff ffff     ................
    a43c:	ffff ffff ffff ffff ffff ffff ffff ffff     ................
    a44c:	ffff ffff ffff ffff ffff ffff ffff ffff     ................
    a45c:	ffff ffff ffff ffff ffff ffff ffff fff7     ................
    a46c:	deff fef7 dedf dedf beef ffef ffff ffff     ................
    a47c:	feff ffff ffff ffff ffff ffff ffff ffff     ................
    a48c:	ffff ffff ffff ffff feff feff ffe7 bee7     ................
    a49c:	beef dfe7 fff7 feff ffff ffff ffff ffff     ................
    a4ac:	ffff ffff ffff ffff ffff ffff ffff ffff     ................
    a4bc:	feff ffff ffef dfe7 dfe7 dedf ffef ffff     ................
    a4cc:	ffff ffff ffff ffff ffff ffff ffff ffff     ................
    a4dc:	ffff ffff ffff ffff ffff ffff ffff ffff     ................
    a4ec:	ffff ffff ffff ffff ffff ffff ffff ffff     ................
    a4fc:	ffff ffff ffff ffff ffff ffff ffff ffff     ................
    a50c:	5def ffff ffff ffff ffff ffff ffff ffff     .]..............
    a51c:	ffff ffff ffff ffff ffff ffff ffff bad6     ................
    a52c:	14a5 96b5 bef7 ffff ffff ffff ffff ffff     ................
    a53c:	ffff ffff ffff ffff ffff ffff ffff ffff     ................
    a54c:	ffff ffff ffff ffff 14a5 14a5 fbde 14a5     ................
    a55c:	718c 59ce ffff ffff ffff ffff ffff ffff     .q.Y............
    a56c:	feff deff ffff 9ace 0000 0421 96b5 ffff     ..........!.....
    a57c:	feff ffff ffff ffff ffff ffff ffff ffff     ................
    a58c:	ffff ffff ffff ffff feff feff ffff ffff     ................
    a59c:	ffff ffff deff ffff ffff ffff ffff ffff     ................
    a5ac:	ffff ffff ffff ffff ffff ffff ffff ffff     ................
    a5bc:	feff ffff ffff ffff ffff dfff dfff dfff     ................
    a5cc:	ffff ffff ffff ffff ffff ffff ffff ffff     ................
    a5dc:	59ce f7bd bef7 ffff fbde 0000 ae73 59ce     .Y..........s..Y
    a5ec:	ffff ffff ffff ffff ffff ffff ffff ffff     ................
    a5fc:	ffff ffff ffff ffff ffff ffff 2c63 0000     ............c,..
    a60c:	718c ffff ffff ffff ffff ffff ffff ffff     .q..............
    a61c:	ffff ffff ffff bef7 bad6 ffff ffff 14a5     ................
    a62c:	0000 0421 bef7 ffff 59ce bad6 ffff ffff     ..!......Y......
    a63c:	ffff ffff 5def 14a5 14a5 14a5 14a5 14a5     .....]..........
    a64c:	14a5 14a5 f7bd ffff 0000 0000 bad6 2c63     ..............c,
    a65c:	0000 96b5 ffff ffff ffff ffff ffff ffff     ................
    a66c:	ffff ffff ffff 9ad6 0000 0000 5def ffff     .............]..
    a67c:	ffff ffff ffff ffff ffff ffff ffff ffff     ................
    a68c:	ffff fbde 2c63 2c63 2c63 2c63 2c63 2c63     ....c,c,c,c,c,c,
    a69c:	2c63 2c63 2c63 2c63 2c63 2c63 f7bd ffff     c,c,c,c,c,c,....
    a6ac:	ffff ffff ffff ffff ffff ffff ffff ffff     ................
    a6bc:	ffff ffff ffff ffff ffff dfff dfff dfff     ................
    a6cc:	ffff ffff ffff ffff ffff ffff ffff ffff     ................
    a6dc:	e739 0000 e739 ffff 718c 0000 0000 718c     9...9....q.....q
    a6ec:	ffff ffff ffff ffff ffff ffff ffff ffff     ................
    a6fc:	ffff ffff ffff ffff ffff ffff ae73 0000     ............s...
    a70c:	e739 ffff ffff ffff ffff ffff ffff ffff     9...............
    a71c:	ffff ffff 59ce 0421 0000 fbde ffff 14a5     .....Y!.........
    a72c:	0000 2c63 ffff ffff e739 0000 2c63 bef7     ..c,....9...c,..
    a73c:	ffff ffff bad6 0000 0000 0000 0000 0000     ................
    a74c:	0000 0000 e739 59ce 0421 0000 bad6 8a52     ....9..Y!.....R.
    a75c:	0000 96b5 f7bd ffff ffff ffff fbde bad6     ................
    a76c:	bad6 bad6 bad6 96b5 0000 0000 bad6 bad6     ................
    a77c:	bad6 bad6 bad6 59ce ffff ffff ffff ffff     .......Y........
    a78c:	ffff bad6 0000 0000 0000 0000 0000 0000     ................
	...
    a7a8:	14a5 ffff ffff ffff ffff fbde 2c63 2c63     ............c,c,
    a7b8:	2c63 2c63 2c63 2c63 2c63 2c63 2c63 2c63     c,c,c,c,c,c,c,c,
    a7c8:	2c63 2c63 2c63 f7bd ffff ffff ffff ffff     c,c,c,..........
    a7d8:	ffff fbde 0000 0000 f7bd ffff e739 0000     ............9...
    a7e8:	8a52 ffff ffff ffff ffff ffff ffff ffff     R...............
    a7f8:	ffff ffff 0000 0000 0000 e739 2c63 2c63     ..........9.c,c,
    a808:	e739 0000 0000 2c63 2c63 0421 0000 0000     9.....c,c,!.....
    a818:	0000 fbde ffff ffff fbde 0421 0000 2c63     ..........!...c,
    a828:	ffff 14a5 0000 2c63 ffff f7bd 0000 0000     ......c,........
    a838:	718c ffff ffff ffff 5def 14a5 14a5 e739     .q.......]....9.
    a848:	e739 0000 e739 14a5 2c63 0000 0000 0000     9...9...c,......
	...
    a860:	0000 ffff ffff ffff 14a5 0000 0000 0000     ................
	...
    a880:	0000 2c63 ffff ffff ffff ffff ffff bef7     ..c,............
    a890:	14a5 14a5 14a5 14a5 14a5 14a5 14a5 2c63     ..............c,
    a8a0:	0000 0000 0000 ae73 bad6 ffff ffff ffff     ......s.........
    a8b0:	ffff bad6 0000 0000 0000 0000 0000 0000     ................
	...
    a8cc:	0000 14a5 ffff ffff ffff ffff ffff 718c     ...............q
    a8dc:	0000 e739 ffff f7bd 0000 0000 0000 0000     ..9.............
	...
    a8f4:	0000 bad6 ffff ffff 0000 0000 0000 0000     ................
	...
    a918:	0000 bad6 ffff ffff ffff 96b5 0000 0000     ................
    a928:	f7bd 14a5 0000 2c63 bef7 e739 0000 8a52     ......c,..9...R.
    a938:	ffff ffff ffff ffff ffff fbde 5def 2c63     .............]c,
    a948:	2c63 0000 2c63 fbde f7bd 14a5 e739 0000     c,..c,......9...
    a958:	14a5 e739 0000 718c 14a5 ffff ffff ffff     ..9....q........
    a968:	14a5 0000 0421 2c63 2c63 8a52 0000 0000     ....!.c,c,R.....
    a978:	2c63 2c63 2c63 0421 0000 14a5 ffff ffff     c,c,c,!.........
    a988:	ffff ffff ffff ffff ffff ffff ffff ffff     ................
    a998:	ffff 5def 718c 0000 0000 0421 bad6 ffff     ...].q....!.....
    a9a8:	ffff ffff ffff ffff ffff 5def 14a5 14a5     ...........]....
    a9b8:	14a5 14a5 14a5 e739 0000 e739 14a5 14a5     ......9...9.....
    a9c8:	14a5 14a5 14a5 bad6 ffff ffff ffff ffff     ................
    a9d8:	bef7 0421 0000 14a5 ffff e739 0000 0000     ..!.......9.....
	...
    a9f4:	0000 bad6 ffff ffff 0000 0000 ffff ffff     ................
    aa04:	ffff ffff ffff ffff ffff ffff ffff ffff     ................
    aa14:	ffff 0000 0000 bad6 ffff ffff ffff ffff     ................
    aa24:	e739 0000 2c63 14a5 0000 2c63 718c 0000     9...c,....c,.q..
    aa34:	0421 5def ffff ffff ffff ffff ffff 0000     !..]............
	...
    aa50:	2c63 ffff 2c63 0000 ffff 2c63 0000 bad6     c,..c,....c,....
    aa60:	ffff ffff ffff ffff bad6 0000 2c63 ffff     ............c,..
    aa70:	ffff bad6 0000 0000 ffff ffff ffff 2c63     ..............c,
    aa80:	0000 14a5 ffff ffff ffff ffff ffff ffff     ................
    aa90:	ffff ffff ffff ffff ffff 2c63 0000 0000     ..........c,....
    aaa0:	ae73 bef7 ffff ffff ffff ffff ffff ffff     s...............
    aab0:	ffff ffff ffff ffff ffff ffff ffff 2c63     ..............c,
    aac0:	0000 2c63 ffff ffff ffff ffff ffff ffff     ..c,............
    aad0:	ffff ffff ffff ffff 14a5 0000 0000 14a5     ................
    aae0:	14a5 0000 0000 718c 0000 14a5 ffff ffff     .......q........
    aaf0:	bef7 bad6 bad6 bef7 ffff ffff 0000 0000     ................
    ab00:	0000 0000 0421 2c63 2c63 2c63 2c63 2c63     ....!.c,c,c,c,c,
    ab10:	0000 0000 0421 ae73 2c63 5def ffff ae73     ....!.s.c,.]..s.
    ab20:	718c 14a5 2c63 0421 718c 2c63 0000 e739     .q..c,!..qc,..9.
    ab30:	2c63 0000 8a52 14a5 14a5 718c 14a5 ffff     c,..R......q....
    ab40:	ffff e739 0000 0000 e739 0000 0000 0000     ..9.....9.......
    ab50:	0421 2c63 0421 0000 2c63 0421 0000 8a52     !.c,!...c,!...R.
    ab60:	2c63 f7bd ffff ffff bad6 0000 e739 14a5     c,..........9...
    ab70:	14a5 718c 0000 0000 14a5 14a5 14a5 e739     ...q..........9.
    ab80:	0000 14a5 ffff ffff ffff ffff ffff ffff     ................
    ab90:	ffff ffff ffff ffff ffff 2c63 0000 718c     ..........c,...q
    aba0:	ffff ffff ffff ffff ffff ffff ffff ffff     ................
    abb0:	ffff ffff ffff ffff ffff ffff ffff 2c63     ..............c,
    abc0:	0000 2c63 ffff ffff ffff ffff ffff ffff     ..c,............
    abd0:	ffff ffff ffff 5def 0421 0000 0000 ae73     .......]!.....s.
    abe0:	0000 0000 718c 14a5 0000 14a5 ffff ffff     .....q..........
    abf0:	ffff ffff ffff ffff ffff ffff bad6 bad6     ................
	...
    ac14:	0000 ffff ffff ffff ffff 0000 0000 0000     ................
	...
    ac3c:	2c63 ffff ffff 2c63 0000 0000 2c63 0000     c,....c,....c,..
	...
    ac60:	0000 14a5 ffff ffff bad6 0000 0000 0000     ................
	...
    ac80:	0000 14a5 ffff ffff ffff ffff ae73 2c63     ............s.c,
    ac90:	ae73 14a5 14a5 14a5 14a5 e739 0000 2c63     s.........9...c,
    aca0:	14a5 14a5 14a5 ae73 2c63 2c63 5def ffff     ......s.c,c,.]..
    acb0:	ffff ffff ffff ffff ffff ffff ffff 2c63     ..............c,
    acc0:	0000 2c63 ffff ffff ffff ffff ffff ffff     ..c,............
    acd0:	ffff ffff ffff 2c63 0000 0000 0000 0421     ......c,......!.
    ace0:	0000 0421 bef7 14a5 0000 e739 2c63 2c63     ..!.......9.c,c,
    acf0:	2c63 2c63 f7bd ffff ffff ffff ffff ffff     c,c,............
    ad00:	bad6 59ce 8a52 0000 0421 fbde ffff 0421     ...YR...!.....!.
    ad10:	0000 0421 59ce ffff ffff ffff ffff ae73     ..!..Y........s.
    ad20:	718c 14a5 14a5 718c 0000 0000 0000 0000     .q.....q........
    ad30:	0000 ae73 14a5 14a5 14a5 ae73 14a5 ffff     ..s.......s.....
    ad40:	ffff 2c63 0000 0000 2c63 0000 0000 0000     ..c,....c,......
    ad50:	8a52 59ce bad6 bad6 bad6 bad6 bad6 bad6     R..Y............
    ad60:	bad6 bef7 ffff ffff bad6 0000 e739 14a5     ............9...
    ad70:	14a5 718c 0000 0000 14a5 14a5 14a5 e739     ...q..........9.
    ad80:	0000 14a5 ffff ffff ffff ffff 0000 0000     ................
	...
    adac:	bad6 ffff ffff ffff ffff ffff ffff ffff     ................
    adbc:	ffff 2c63 0000 2c63 ffff ffff ffff ffff     ..c,..c,........
    adcc:	ffff ffff ffff ffff fbde 0000 0000 0421     ..............!.
    addc:	0000 14a5 fbde 5def ffff 14a5 0000 0000     .......]........
	...
    adf4:	14a5 ffff ffff ffff ffff 5def f7bd e739     ...........]..9.
    ae04:	0000 0000 ae73 14a5 718c 0421 0000 0000     ....s....q!.....
    ae14:	0421 bad6 ffff ffff ffff ffff ffff ffff     !...............
    ae24:	ffff 718c 0000 0000 0000 0000 0000 8a52     ...q..........R.
    ae34:	ffff ffff ffff ffff ffff ffff ffff 2c63     ..............c,
    ae44:	0000 0000 ae73 0421 0000 0000 2c63 2c63     ....s.!.....c,c,
	...
    ae60:	14a5 ffff ffff ffff bad6 0000 2c63 ffff     ............c,..
    ae70:	ffff 9ad6 0000 0000 ffff ffff ffff 2c63     ..............c,
    ae80:	0000 14a5 ffff ffff ffff ffff ae73 2c63     ............s.c,
    ae90:	2c63 14a5 14a5 14a5 14a5 e739 0000 2c63     c,........9...c,
    aea0:	14a5 14a5 14a5 2c63 2c63 2c63 5def ffff     ......c,c,c,.]..
    aeb0:	ffff ffff ffff ffff ffff ffff ffff 2c63     ..............c,
    aec0:	0000 2c63 ffff ffff ffff ffff ffff ffff     ..c,............
    aed0:	ffff ffff ffff 96b5 2c63 2c63 0000 14a5     ........c,c,....
    aee0:	ffff ffff ffff 14a5 0000 2c63 14a5 14a5     ..........c,....
    aef0:	14a5 14a5 bad6 ffff ffff ffff ffff 2c63     ..............c,
	...
    af18:	fbde ffff ffff ffff ffff ffff f7bd 0000     ................
    af28:	0000 2c63 0000 2c63 e739 0000 718c ffff     ..c,..c,9....q..
    af38:	ffff ffff ffff ffff ffff 2c63 0000 0000     ..........c,....
    af48:	96b5 59ce 8a52 0000 2c63 2c63 0000 718c     ...YR...c,c,...q
    af58:	14a5 14a5 2c63 0000 14a5 ffff ffff ffff     ....c,..........
    af68:	bad6 0000 0421 2c63 2c63 8a52 0000 0000     ....!.c,c,R.....
    af78:	2c63 2c63 2c63 0421 0000 14a5 ffff ffff     c,c,c,!.........
    af88:	ffff ffff ffff ffff ffff ffff ffff ffff     ................
    af98:	ffff 2c63 0000 14a5 ffff ffff ffff ffff     ..c,............
    afa8:	ffff ffff ffff ffff ffff ffff ffff ffff     ................
    afb8:	ffff ffff ffff 2c63 0000 2c63 ffff ffff     ......c,..c,....
    afc8:	ffff ffff ffff ffff ffff ffff ffff ffff     ................
    afd8:	ffff 2c63 0000 14a5 ffff ffff ffff 14a5     ..c,............
    afe8:	0000 14a5 ffff ffff ffff ffff ffff ffff     ................
    aff8:	ffff ffff ffff 96b5 8a52 2c63 14a5 14a5     ........R.c,....
    b008:	e739 0000 718c bad6 fbde bef7 8a52 718c     9....q......R..q
    b018:	ffff ffff ffff ffff ffff f7bd 0000 0000     ................
    b028:	ae73 14a5 0000 2c63 f7bd 0000 0000 ae73     s.....c,......s.
    b038:	bef7 ffff ffff ffff ffff 2c63 0000 2c63     ..........c,..c,
    b048:	718c 14a5 718c 0000 2c63 2c63 0000 718c     .q...q..c,c,...q
    b058:	14a5 14a5 2c63 0000 14a5 ffff ffff ffff     ....c,..........
    b068:	f7bd 0000 0000 0000 0000 0000 0000 0000     ................
	...
    b080:	0000 2c63 ffff ffff ffff ffff ffff ffff     ..c,............
    b090:	ffff ffff ffff ffff ffff 2c63 0000 14a5     ..........c,....
    b0a0:	ffff ffff ffff ffff ffff ffff ffff ffff     ................
    b0b0:	ffff ffff ffff ffff ffff ffff ffff 2c63     ..............c,
    b0c0:	0000 2c63 ffff ffff ffff ffff ffff ffff     ..c,............
    b0d0:	ffff ffff ffff ffff ffff 2c63 0000 14a5     ..........c,....
    b0e0:	ffff ffff ffff 14a5 0000 718c bad6 bad6     ...........q....
    b0f0:	bad6 bad6 59ce ffff ffff ffff ffff ae73     .....Y........s.
    b100:	718c 14a5 14a5 14a5 e739 0000 2c63 14a5     .q......9...c,..
    b110:	14a5 14a5 14a5 2c63 5def ffff ffff ffff     ......c,.]......
    b120:	96b5 0000 0000 0421 bef7 14a5 0000 2c63     ......!.......c,
    b130:	ffff ae73 0000 0000 0000 718c bad6 ffff     ..s........q....
    b140:	ffff 2c63 0000 0000 0000 0000 0000 0000     ..c,............
    b150:	2c63 2c63 0000 0000 0000 0000 0000 0000     c,c,............
    b160:	14a5 ffff ffff ffff 14a5 0000 2c63 ffff     ............c,..
    b170:	ffff bad6 0000 0000 ffff ffff ffff 2c63     ..............c,
    b180:	0000 2c63 14a5 fbde ffff ffff ffff ffff     ..c,............
    b190:	ffff ffff ffff ffff ffff 2c63 0000 14a5     ..........c,....
    b1a0:	ffff ffff ffff ffff ffff ffff ffff ffff     ................
    b1b0:	ffff ffff ffff ffff ffff ffff ffff 2c63     ..............c,
    b1c0:	0000 2c63 ffff ffff ffff ffff ffff ffff     ..c,............
    b1d0:	ffff ffff ffff ffff ffff 2c63 0000 14a5     ..........c,....
    b1e0:	ffff ffff ffff 14a5 0000 0000 0000 0000     ................
    b1f0:	0000 0000 0000 ffff ffff ffff ffff 0000     ................
	...
    b218:	bad6 ffff bef7 2c63 0000 0000 0421 fbde     ......c,....!...
    b228:	ffff 14a5 0000 2c63 ffff bef7 2c63 0000     ......c,....c,..
    b238:	0000 0000 ae73 ffff ffff 2c63 0000 bad6     ....s.....c,....
    b248:	bad6 bad6 96b5 0000 2c63 2c63 0000 96b5     ........c,c,....
    b258:	bad6 bad6 718c 0000 14a5 ffff ffff ffff     .....q..........
    b268:	96b5 0000 2c63 ffff ffff bad6 0000 0000     ....c,..........
    b278:	ffff ffff ffff 5def bad6 5def 0000 0421     .......]...]..!.
    b288:	fbde ffff ffff ffff ffff ffff ffff ffff     ................
    b298:	ffff 2c63 0000 14a5 ffff ffff ffff ffff     ..c,............
    b2a8:	ffff ffff ffff ffff f7bd 2c63 ae73 14a5     ..........c,s...
    b2b8:	14a5 14a5 14a5 e739 0000 e739 14a5 14a5     ......9...9.....
    b2c8:	14a5 14a5 718c 2c63 ae73 ffff ffff ffff     .....qc,s.......
    b2d8:	ffff 2c63 0000 14a5 ffff ffff ffff 14a5     ..c,............
	...
    b2f4:	0000 ffff ffff ffff ffff 14a5 14a5 14a5     ................
    b304:	14a5 14a5 e739 0000 2c63 14a5 14a5 14a5     ....9...c,......
    b314:	14a5 14a5 bef7 ffff fbde 0421 0000 0421     ..........!...!.
    b324:	fbde ffff ffff 14a5 0000 2c63 ffff ffff     ..........c,....
    b334:	ffff 14a5 0421 0000 bad6 ffff ffff 2c63     ....!.........c,
    b344:	0000 2c63 2c63 2c63 8a52 0000 2c63 2c63     ..c,c,c,R...c,c,
    b354:	0000 8a52 2c63 2c63 e739 0000 14a5 ffff     ..R.c,c,9.......
    b364:	ffff ffff ffff ffff ffff ffff ffff bad6     ................
    b374:	0000 0000 718c 14a5 14a5 14a5 14a5 2c63     .....q........c,
    b384:	0000 0000 fbde ffff ffff ffff ffff ffff     ................
    b394:	5def 14a5 718c 0000 0000 14a5 ffff ffff     .]...q..........
    b3a4:	ffff ffff ffff ffff ffff ffff 14a5 0000     ................
	...
    b3d0:	0000 ffff ffff ffff ffff 2c63 0000 14a5     ..........c,....
    b3e0:	ffff ffff ffff 718c 0000 14a5 ffff ffff     .......q........
    b3f0:	ffff ffff ffff ffff ffff 59ce 2c63 2c63     ...........Yc,c,
    b400:	718c 14a5 14a5 14a5 e739 0000 2c63 14a5     .q......9...c,..
    b410:	14a5 14a5 14a5 2c63 2c63 14a5 ffff fbde     ......c,c,......
    b420:	ae73 5def ffff ffff ffff 14a5 0000 2c63     s..]..........c,
    b430:	ffff ffff ffff ffff bef7 bad6 ffff ffff     ................
    b440:	ffff 0000 0000 0000 0000 0000 0000 0000     ................
    b450:	2c63 2c63 0000 0000 0000 0000 0000 0000     c,c,............
    b460:	14a5 ffff ffff ffff ffff ffff ffff ffff     ................
    b470:	ffff ffff 0421 0000 0000 0000 0000 0000     ....!...........
    b480:	0000 0000 0000 2c63 ffff ffff ffff ffff     ......c,........
    b490:	ffff ffff 5def 0000 0000 0000 0000 f7bd     .....]..........
    b4a0:	ffff ffff ffff ffff ffff ffff ffff ffff     ................
    b4b0:	f7bd 2c63 2c63 2c63 2c63 2c63 2c63 2c63     ..c,c,c,c,c,c,c,
    b4c0:	2c63 2c63 2c63 2c63 2c63 2c63 2c63 2c63     c,c,c,c,c,c,c,c,
    b4d0:	ae73 ffff ffff ffff ffff e739 0000 14a5     s.........9.....
    b4e0:	ffff ffff ffff 2c63 0000 ae73 ffff ffff     ......c,..s.....
    b4f0:	ffff ffff ffff ffff ffff 14a5 0000 0000     ................
	...
    b518:	0000 2c63 ffff ffff ffff ffff ffff ffff     ..c,............
    b528:	ffff 14a5 0000 0421 ffff ffff ffff ffff     ......!.........
    b538:	ffff ffff ffff ffff ffff 0000 0000 ffff     ................
    b548:	ffff ffff 5def 2c63 14a5 2c63 0000 bad6     .....]c,..c,....
    b558:	ffff ffff f7bd 2c63 f7bd ffff ffff ffff     ......c,........
    b568:	ffff ffff ffff ffff ffff ffff 5def f7bd     .............]..
    b578:	14a5 14a5 14a5 14a5 14a5 14a5 59ce ffff     .............Y..
    b588:	ffff ffff ffff ffff ffff ffff ffff 8a52     ..............R.
    b598:	0000 2c63 96b5 ffff ffff ffff ffff ffff     ..c,............
    b5a8:	ffff ffff ffff ffff ffff ffff ffff ffff     ................
    b5b8:	ffff ffff ffff ffff ffff ffff ffff ffff     ................
    b5c8:	ffff ffff ffff ffff ffff ffff ffff ffff     ................
    b5d8:	ffff 0000 0000 14a5 ffff ffff ffff 2c63     ..............c,
    b5e8:	0000 2c63 ffff ffff ffff ffff ffff ffff     ..c,............
    b5f8:	ffff bad6 14a5 14a5 14a5 14a5 14a5 14a5     ................
    b608:	14a5 14a5 14a5 14a5 14a5 14a5 14a5 14a5     ................
    b618:	14a5 f7bd ffff ffff ffff ffff ffff ffff     ................
    b628:	ffff ffff ffff ffff ffff ffff ffff ffff     ................
    b638:	ffff ffff ffff ffff ffff fbde fbde ffff     ................
    b648:	ffff ffff ffff ffff ffff fbde bad6 bef7     ................
    b658:	ffff ffff ffff ffff ffff ffff ffff ffff     ................
    b668:	ffff ffff ffff ffff ffff ffff ffff ffff     ................
    b678:	ffff ffff ffff ffff ffff ffff ffff ffff     ................
    b688:	ffff ffff ffff ffff ffff ffff ffff ffff     ................
    b698:	ffff ffff ffff ffff ffff ffff ffff ffff     ................
    b6a8:	ffff ffff ffff ffff ffff ffff ffff ffff     ................
    b6b8:	ffff ffff ffff ffff ffff ffff ffff ffff     ................
    b6c8:	ffff ffff ffff ffff ffff ffff ffff ffff     ................
    b6d8:	ffff fbde bad6 bef7 ffff ffff ffff 59ce     ...............Y
    b6e8:	14a5 59ce ffff ffff ffff ffff ffff ffff     ...Y............
    b6f8:	ffff ffff ffff ffff ffff ffff ffff ffff     ................
    b708:	ffff ffff ffff ffff ffff ffff ffff ffff     ................
    b718:	ffff ffff ffff ffff ffff ffff ffff ffff     ................
    b728:	ffff ffff ffff ffff ffff ffff ffff ffff     ................
    b738:	ffff ffff ffff ffff ffff ffff ffff ffff     ................
    b748:	ffff ffff ffff ffff ffff ffff ffff ffff     ................
    b758:	ffff ffff ffff ffff ffff ffff ffff ffff     ................
    b768:	ffff ffff ffff ffff ffff ffff ffff ffff     ................
    b778:	ffff ffff ffff ffff ffff ffff ffff ffff     ................
    b788:	ffff ffff ffff ffff ffff ffff ffff ffff     ................
    b798:	ffff ffff ffff ffff ffff ffff ffff ffff     ................
    b7a8:	ffff ffff ffff ffff ffff ffff ffff ffff     ................
    b7b8:	ffff ffff ffff ffff ffff ffff ffff ffff     ................
    b7c8:	ffff ffff ffff ffff ffff ffff ffff ffff     ................
    b7d8:	ffff ffff ffff ffff ffff ffff ffff ffff     ................
    b7e8:	ffff ffff ffff ffff ffff ffff ffff ffff     ................
    b7f8:	ffff ffff ffff ffff ffff ffff ffff ffff     ................
    b808:	ffff ffff ffff ffff ffff ffff ffff ffff     ................
    b818:	ffff ffff ffff ffff ffff ffff ffff ffff     ................
    b828:	ffff ffff ffff ffff ffff ffff ffff ffff     ................
    b838:	ffff ffff ffff ffff ffff ffff ffff ffff     ................
    b848:	ffff ffff ffff ffff ffff ffff ffff ffff     ................
    b858:	ffff ffff ffff ffff ffff ffff ffff ffff     ................
    b868:	ffff ffff ffff ffff ffff ffff ffff ffff     ................
    b878:	ffff ffff ffff ffff ffff ffff ffff ffff     ................
    b888:	ffff ffff ffff ffff ffff ffff ffff ffff     ................
    b898:	ffff ffff ffff ffff ffff ffff ffff ffff     ................
    b8a8:	ffff ffff ffff ffff ffff ffff ffff ffff     ................
    b8b8:	ffff ffff ffff ffff ffff ffff ffff ffff     ................
    b8c8:	ffff ffff ffff ffff ffff ffff ffff ffff     ................
    b8d8:	ffff ffff ffff ffff ffff ffff ffff ffff     ................
    b8e8:	ffff ffff ffff ffff ffff ffff ffff ffff     ................
    b8f8:	ffff ffff ffff ffff ffff ffff ffff ffff     ................
    b908:	ffff ffff ffff ffff ffff ffff ffff ffff     ................
    b918:	ffff ffff ffff ffff ffff ffff ffff ffff     ................
    b928:	ffff ffff ffff ffff ffff ffff ffff ffff     ................
    b938:	ffff ffff ffff ffff ffff ffff ffff ffff     ................
    b948:	ffff ffff ffff ffff ffff ffff ffff ffff     ................
    b958:	ffff ffff ffff ffff ffff ffff ffff ffff     ................
    b968:	ffff ffff ffff ffff ffff ffff ffff ffff     ................
    b978:	ffff ffff ffff ffff ffff ffff ffff ffff     ................
    b988:	ffff ffff ffff ffff ffff ffff ffff ffff     ................
    b998:	ffff ffff ffff ffff ffff ffff ffff ffff     ................
    b9a8:	ffff ffff ffff ffff ffff ffff ffff ffff     ................
    b9b8:	ffff ffff ffff ffff ffff ffff ffff ffff     ................
    b9c8:	ffff ffff ffff ffff ffff ffff ffff ffff     ................
    b9d8:	ffff ffff ffff ffff ffff ffff ffff ffff     ................
    b9e8:	ffff ffff ffff ffff ffff ffff ffff ffff     ................
    b9f8:	ffff ffff ffff ffff ffff ffff ffff ffff     ................
    ba08:	ffff ffff ffff ffff ffff ffff ffff ffff     ................
    ba18:	ffff ffff ffff ffff ffff ffff ffff ffff     ................
    ba28:	ffff ffff ffff ffff ffff ffff ffff ffff     ................
    ba38:	ffff ffff ffff ffff ffff ffff ffff ffff     ................
    ba48:	ffff ffff ffff ffff ffff ffff ffff ffff     ................
    ba58:	ffff ffff ffff ffff ffff ffff ffff ffff     ................
    ba68:	ffff ffff ffff ffff ffff ffff ffff ffff     ................
    ba78:	ffff ffff ffff ffff ffff ffff ffff ffff     ................
    ba88:	ffff ffff ffff ffff ffff ffff ffff ffff     ................
    ba98:	ffff ffff ffff ffff ffff ffff ffff ffff     ................
    baa8:	ffff ffff ffff ffff ffff ffff ffff ffff     ................
    bab8:	ffff ffff ffff ffff ffff ffff ffff ffff     ................
    bac8:	ffff ffff ffff ffff ffff ffff ffff ffff     ................
    bad8:	ffff ffff ffff ffff ffff ffff ffff ffff     ................
    bae8:	ffff ffff ffff ffff ffff ffff ffff ffff     ................
    baf8:	ffff ffff ffff ffff ffff ffff ffff ffff     ................
    bb08:	ffff ffff ffff ffff ffff ffff ffff ffff     ................
    bb18:	ffff ffff                                   ....

0000bb1c <gImage_2>:
    bb1c:	ffff ffff ffff ffff ffff ffff ffff ffff     ................
    bb2c:	ffff ffff ffff ffff ffff ffff ffff ffff     ................
    bb3c:	ffff ffff ffff ffff ffff ffff ffff ffff     ................
    bb4c:	ffff ffff ffff ffff ffff ffff ffff ffff     ................
    bb5c:	ffff ffff ffff ffff ffff ffff ffff ffff     ................
    bb6c:	ffff ffff ffff ffff ffff ffff ffff ffff     ................
    bb7c:	ffff ffff ffff ffff ffff ffff ffff ffff     ................
    bb8c:	ffff ffff ffff ffff ffff ffff ffff ffff     ................
    bb9c:	ffff ffff ffff ffff ffff ffff ffff ffff     ................
    bbac:	ffff ffff ffff ffff ffff ffff ffff ffff     ................
    bbbc:	ffff ffff ffff ffff ffff ffff ffff ffff     ................
    bbcc:	ffff ffff ffff ffff ffff ffff ffff ffff     ................
    bbdc:	ffff ffff ffff ffff ffff ffff ffff ffff     ................
    bbec:	ffff ffff ffff ffff ffff ffff ffff ffff     ................
    bbfc:	ffff ffff ffff ffff ffff ffff ffff ffff     ................
    bc0c:	ffff ffff ffff ffff ffff ffff ffff ffff     ................
    bc1c:	ffff ffff ffff ffff ffff ffff ffff ffff     ................
    bc2c:	ffff ffff ffff ffff ffff ffff ffff ffff     ................
    bc3c:	ffff ffff ffff ffff ffff ffff ffff ffff     ................
    bc4c:	ffff ffff ffff ffff ffff ffff ffff ffff     ................
    bc5c:	ffff ffff ffff ffff ffff ffff ffff ffff     ................
    bc6c:	ffff ffff ffff ffff ffff ffff ffff ffff     ................
    bc7c:	ffff ffff ffff ffff ffff ffff ffff ffff     ................
    bc8c:	ffff ffff ffff ffff ffff ffff ffff ffff     ................
    bc9c:	ffff ffff ffff ffff ffff ffff ffff ffff     ................
    bcac:	ffff ffff ffff ffff ffff ffff ffff ffff     ................
    bcbc:	ffff ffff ffff ffff ffff ffff ffff ffff     ................
    bccc:	ffff ffff ffff ffff ffff ffff ffff ffff     ................
    bcdc:	ffff ffff ffff ffff ffff ffff ffff ffff     ................
    bcec:	ffff ffff ffff ffff ffff ffff ffff ffff     ................
    bcfc:	ffff ffff ffff ffff ffff ffff ffff ffff     ................
    bd0c:	ffff ffff ffff ffff ffff ffff ffff ffff     ................
    bd1c:	ffff ffff ffff ffff ffff ffff ffff ffff     ................
    bd2c:	ffff ffff ffff ffff ffff ffff ffff ffff     ................
    bd3c:	ffff ffff ffff ffff ffff ffff ffff ffff     ................
    bd4c:	ffff ffff ffff ffff ffff ffff ffff ffff     ................
    bd5c:	ffff ffff ffff ffff ffff ffff ffff ffff     ................
    bd6c:	ffff ffff ffff ffff ffff ffff ffff ffff     ................
    bd7c:	ffff ffff ffff ffff ffff ffff ffff ffff     ................
    bd8c:	ffff ffff ffff ffff ffff ffff ffff ffff     ................
    bd9c:	ffff ffff ffff ffff ffff ffff ffff ffff     ................
    bdac:	ffff ffff ffff ffff ffff ffff ffff ffff     ................
    bdbc:	ffff ffff ffff ffff ffff ffff ffff ffff     ................
    bdcc:	ffff ffff ffff ffff ffff ffff ffff ffff     ................
    bddc:	ffff ffff ffff ffff ffff ffff ffff ffff     ................
    bdec:	ffff ffff ffff ffff ffff ffff ffff ffff     ................
    bdfc:	ffff ffff ffff ffff ffff ffff ffff ffff     ................
    be0c:	ffff ffff ffff ffff ffff ffff ffff ffff     ................
    be1c:	ffff ffff ffff ffff ffff ffff ffff ffff     ................
    be2c:	ffff ffff ffff ffff ffff ffff ffff ffff     ................
    be3c:	ffff ffff ffff ffff ffff ffff ffff ffff     ................
    be4c:	ffff ffff ffff ffff ffff ffff ffff ffff     ................
    be5c:	ffff ffff ffff ffff ffff ffff ffff ffff     ................
    be6c:	ffff ffff ffff ffff ffff ffff ffff ffff     ................
    be7c:	ffff ffff ffff ffff ffff ffff ffff ffff     ................
    be8c:	ffff ffff ffff ffff ffff ffff ffff ffff     ................
    be9c:	ffff ffff ffff ffff ffff ffff ffff ffff     ................
    beac:	ffff ffff ffff ffff ffff ffff ffff ffff     ................
    bebc:	ffff ffff ffff ffff ffff ffff ffff ffff     ................
    becc:	ffff ffff ffff ffff ffff ffff ffff ffff     ................
    bedc:	ffff ffff ffff ffff ffff ffff ffff ffff     ................
    beec:	ffff ffff ffff ffff ffff ffff ffff ffff     ................
    befc:	ffff ffff ffff ffff ffff ffff ffff ffff     ................
    bf0c:	ffff ffff ffff ffff ffff ffff ffff ffff     ................
    bf1c:	ffff ffff ffff ffff ffff ffff ffff ffff     ................
    bf2c:	ffff ffff ffff ffff ffff ffff ffff ffff     ................
    bf3c:	ffff ffff ffff ffff ffff ffff ffff ffff     ................
    bf4c:	ffff ffff ffff ffff ffff ffff ffff ffff     ................
    bf5c:	ffff ffff ffff ffff ffff ffff ffff ffff     ................
    bf6c:	ffff ffff ffff ffff ffff ffff ffff ffff     ................
    bf7c:	ffff ffff ffff ffff ffff ffff ffff ffff     ................
    bf8c:	ffff ffff ffff ffff ffff ffff ffff ffff     ................
    bf9c:	ffff ffff ffff ffff ffff ffff ffff ffff     ................
    bfac:	ffff ffff ffff ffff ffff ffff ffff ffff     ................
    bfbc:	ffff ffff ffff ffff ffff ffff ffff ffff     ................
    bfcc:	ffff ffff ffff ffff ffff ffff ffff ffff     ................
    bfdc:	ffff ffff ffff ffff ffff ffff ffff ffff     ................
    bfec:	ffff ffff ffff ffff ffff ffff ffff ffff     ................
    bffc:	ffff ffff ffff ffff ffff ffff ffff ffff     ................
    c00c:	ffff ffff ffff ffff ffff ffff ffff ffff     ................
    c01c:	ffff ffff ffff ffff ffff ffff ffff ffff     ................
    c02c:	ffff ffff ffff ffff ffff ffff ffff ffff     ................
    c03c:	ffff ffff ffff ffff ffff ffff ffff ffff     ................
    c04c:	ffff ffff ffff ffff ffff ffff ffff ffff     ................
    c05c:	ffff ffff ffff ffff ffff ffff ffff ffff     ................
    c06c:	ffff ffff ffff ffff ffff ffff ffff ffff     ................
    c07c:	ffff ffff ffff ffff ffff ffff ffff ffff     ................
    c08c:	ffff ffff ffff ffff ffff ffff ffff ffff     ................
    c09c:	ffff ffff ffff ffff ffff ffff ffff ffff     ................
    c0ac:	ffff ffff ffff ffff ffff ffff ffff ffff     ................
    c0bc:	ffff ffff ffff ffff ffff ffff ffff ffff     ................
    c0cc:	ffff ffff ffff ffff ffff ffff ffff ffff     ................
    c0dc:	ffff ffff ffff ffff ffff ffff ffff ffff     ................
    c0ec:	ffff ffff ffff ffff ffff ffff ffff ffff     ................
    c0fc:	ffff ffff ffff ffff ffff ffff ffff ffff     ................
    c10c:	ffff ffff ffff ffff ffff ffff ffff ffff     ................
    c11c:	ffff ffff ffff ffff ffff ffff ffff ffff     ................
    c12c:	ffff ffff ffff ffff ffff ffff ffff ffff     ................
    c13c:	ffff ffff ffff ffff ffff ffff ffff ffff     ................
    c14c:	ffff ffff ffff ffff ffff ffff ffff ffff     ................
    c15c:	ffff ffff ffff ffff ffff ffff ffff ffff     ................
    c16c:	ffff ffff ffff ffff ffff ffff ffff ffff     ................
    c17c:	ffff ffff ffff ffff ffff ffff ffff ffff     ................
    c18c:	ffff ffff ffff ffff ffff ffff ffff ffff     ................
    c19c:	ffff ffff ffff ffff ffff ffff ffff ffff     ................
    c1ac:	ffff ffff ffff ffff ffff ffff ffff ffff     ................
    c1bc:	ffff ffff ffff ffff ffff ffff ffff ffff     ................
    c1cc:	ffff ffff ffff ffff ffff ffff ffff ffff     ................
    c1dc:	ffff ffff ffff ffff ffff ffff ffff ffff     ................
    c1ec:	ffff ffff ffff ffff ffff ffff ffff ffff     ................
    c1fc:	ffff ffff ffff ffff ffff ffff ffff ffff     ................
    c20c:	ffff ffff ffff ffff ffff ffff ffff ffff     ................
    c21c:	ffff ffff ffff ffff ffff ffff ffff ffff     ................
    c22c:	ffff ffff ffff ffff ffff ffff ffff ffff     ................
    c23c:	ffff ffff ffff ffff ffff ffff ffff ffff     ................
    c24c:	ffff ffff ffff ffff ffff ffff ffff ffff     ................
    c25c:	ffff ffff ffff ffff ffff ffff ffff ffff     ................
    c26c:	ffff ffff ffff ffff ffff ffff ffff ffff     ................
    c27c:	ffff ffff ffff ffff ffff ffff ffff ffff     ................
    c28c:	ffff ffff ffff ffff ffff ffff ffff ffff     ................
    c29c:	ffff ffff ffff ffff ffff ffff ffff ffff     ................
    c2ac:	ffff ffff ffff ffff ffff ffff ffff ffff     ................
    c2bc:	ffff ffff ffff ffff ffff ffff ffff ffff     ................
    c2cc:	ffff ffff ffff ffff ffff ffff ffff ffff     ................
    c2dc:	ffff ffff ffff ffff ffff ffff ffff ffff     ................
    c2ec:	ffff ffff ffff ffff ffff ffff ffff ffff     ................
    c2fc:	ffff ffff ffff ffff ffff ffff ffff ffff     ................
    c30c:	ffff ffff ffff ffff ffff ffff ffff ffff     ................
    c31c:	ffff ffff ffff ffff ffff ffff ffff ffff     ................
    c32c:	ffff ffff ffff ffff ffff ffff ffff ffff     ................
    c33c:	ffff ffff ffff ffff ffff ffff ffff ffff     ................
    c34c:	ffff ffff ffff ffff ffff ffff ffff ffff     ................
    c35c:	ffff ffff ffff ffff ffff ffff ffff ffff     ................
    c36c:	ffff ffff ffff ffff ffff ffff ffff ffff     ................
    c37c:	ffff ffff ffff ffff ffff ffff ffff ffff     ................
    c38c:	ffff ffff ffff ffff ffff ffff ffff ffff     ................
    c39c:	ffff ffff ffff ffff ffff ffff ffff ffff     ................
    c3ac:	ffff ffff ffff ffff ffff ffff ffff ffff     ................
    c3bc:	ffff ffff ffff ffff ffff ffff ffff ffff     ................
    c3cc:	ffff ffff ffff ffff ffff ffff ffff ffff     ................
    c3dc:	ffff ffff ffff ffff ffff ffff ffff ffff     ................
    c3ec:	ffff ffff ffff ffff ffff ffff ffff ffff     ................
    c3fc:	ffff ffff ffff ffff ffff ffff ffff ffff     ................
    c40c:	ffff ffff ffff ffff ffff ffff ffff ffff     ................
    c41c:	ffff ffff ffff ffff ffff ffff ffff ffff     ................
    c42c:	ffff ffff ffff ffff ffff ffff ffff ffff     ................
    c43c:	ffff ffff ffff ffff ffff ffff ffff ffff     ................
    c44c:	ffff ffff ffff ffff ffff ffff ffff ffff     ................
    c45c:	ffff ffff ffff ffff ffff ffff ffff ffff     ................
    c46c:	ffff ffff ffff ffff ffff ffff ffff ffff     ................
    c47c:	ffff ffff ffff ffff ffff ffff ffff ffff     ................
    c48c:	ffff ffff ffff ffff ffff ffff ffff ffff     ................
    c49c:	ffff ffff ffff ffff ffff ffff ffff ffff     ................
    c4ac:	ffff ffff ffff ffff ffff ffff ffff ffff     ................
    c4bc:	ffff ffff ffff ffff ffff ffff ffff ffff     ................
    c4cc:	ffff ffff ffff ffff ffff ffff ffff ffff     ................
    c4dc:	ffff ffff ffff ffff ffff ffff ffff ffff     ................
    c4ec:	ffff ffff ffff ffff ffff ffff ffff ffff     ................
    c4fc:	ffff ffff ffff ffff ffff ffff ffff ffff     ................
    c50c:	ffff ffff ffff ffff ffff ffff ffff ffff     ................
    c51c:	ffff ffff ffff ffff ffff ffff ffff ffff     ................
    c52c:	ffff ffff ffff ffff ffff ffff ffff ffff     ................
    c53c:	ffff ffff ffff ffff ffff ffff ffff ffff     ................
    c54c:	ffff ffff ffff ffff ffff ffff ffff ffff     ................
    c55c:	ffff ffff ffff ffff ffff ffff ffff ffff     ................
    c56c:	ffff ffff ffff ffff ffff ffff ffff ffff     ................
    c57c:	ffff ffff ffff ffff ffff ffff ffff ffff     ................
    c58c:	ffff ffff ffff ffff ffff ffff ffff ffff     ................
    c59c:	ffff ffff ffff ffff ffff ffff ffff ffff     ................
    c5ac:	ffff ffff ffff ffff ffff ffff ffff ffff     ................
    c5bc:	ffff ffff ffff ffff ffff ffff ffff ffff     ................
    c5cc:	ffff ffff ffff ffff ffff ffff ffff ffff     ................
    c5dc:	ffff ffff ffff ffff ffff ffff ffff ffff     ................
    c5ec:	ffff ffff ffff ffff ffff ffff ffff ffff     ................
    c5fc:	ffff ffff ffff ffff ffff ffff ffff ffff     ................
    c60c:	ffff ffff ffff ffff ffff ffff ffff ffff     ................
    c61c:	ffff ffff ffff ffff ffff ffff ffff ffff     ................
    c62c:	ffff ffff ffff ffff ffff ffff ffff ffff     ................
    c63c:	ffff ffff ffff ffff ffff ffff ffff ffff     ................
    c64c:	ffff ffff ffff ffff ffff ffff ffff ffff     ................
    c65c:	ffff ffff ffff ffff ffff ffff ffff ffff     ................
    c66c:	ffff ffff ffff ffff ffff ffff ffff ffff     ................
    c67c:	ffff ffff ffff ffff ffff ffff ffff ffff     ................
    c68c:	ffff ffff ffff ffff ffff ffff ffff ffff     ................
    c69c:	ffff ffff ffff ffff ffff ffff ffff ffff     ................
    c6ac:	ffff ffff ffff ffff ffff ffff ffff ffff     ................
    c6bc:	ffff ffff ffff ffff ffff ffff ffff ffff     ................
    c6cc:	ffff ffff ffff ffff ffff ffff ffff ffff     ................
    c6dc:	ffff ffff ffff ffff ffff ffff ffff ffff     ................
    c6ec:	ffff ffff ffff ffff ffff ffff ffff ffff     ................
    c6fc:	ffff ffff ffff ffff ffff ffff ffff ffff     ................
    c70c:	ffff ffff ffff ffff ffff ffff ffff ffff     ................
    c71c:	ffff ffff ffff ffff ffff ffff ffff ffff     ................
    c72c:	ffff ffff ffff ffff ffff ffff ffff ffff     ................
    c73c:	ffff ffff ffff ffff ffff ffff ffff ffff     ................
    c74c:	ffff ffff ffff ffff ffff ffff ffff ffff     ................
    c75c:	ffff ffff ffff ffff ffff ffff ffff ffff     ................
    c76c:	ffff ffff ffff ffff ffff ffff ffff ffff     ................
    c77c:	ffff ffff ffff ffff ffff ffff ffff ffff     ................
    c78c:	ffff ffff ffff ffff ffff ffff ffff ffff     ................
    c79c:	ffff ffff ffff ffff ffff ffff ffff ffff     ................
    c7ac:	ffff ffff ffff ffff ffff ffff ffff ffff     ................
    c7bc:	ffff ffff ffff ffff ffff ffff ffff ffff     ................
    c7cc:	ffff ffff ffff ffff ffff ffff ffff ffff     ................
    c7dc:	ffff ffff ffff ffff ffff ffff ffff ffff     ................
    c7ec:	ffff ffff ffff ffff ffff ffff ffff ffff     ................
    c7fc:	ffff ffff ffff ffff ffff ffff ffff ffff     ................
    c80c:	ffff ffff ffff ffff ffff ffff ffff ffff     ................
    c81c:	ffff ffff ffff ffff ffff ffff ffff ffff     ................
    c82c:	ffff ffff ffff ffff ffff ffff ffff ffff     ................
    c83c:	ffff ffff ffff ffff ffff ffff ffff ffff     ................
    c84c:	ffff ffff ffff ffff ffff ffff ffff ffff     ................
    c85c:	ffff ffff ffff ffff ffff ffff ffff ffff     ................
    c86c:	ffff ffff ffff ffff ffff ffff ffff ffff     ................
    c87c:	ffff ffff ffff ffff ffff ffff ffff ffff     ................
    c88c:	ffff ffff ffff ffff ffff ffff ffff ffff     ................
    c89c:	ffff ffff ffff ffff ffff ffff ffff ffff     ................
    c8ac:	ffff ffff ffff ffff ffff ffff ffff ffff     ................
    c8bc:	ffff ffff ffff ffff ffff ffff ffff ffff     ................
    c8cc:	ffff ffff ffff ffff ffff ffff ffff ffff     ................
    c8dc:	ffff ffff ffff ffff ffff ffff ffff ffff     ................
    c8ec:	ffff ffff ffff ffff ffff ffff ffff ffff     ................
    c8fc:	ffff ffff ffff ffff ffff ffff ffff ffff     ................
    c90c:	ffff ffff ffff ffff ffff ffff ffff ffff     ................
    c91c:	ffff ffff ffff ffff ffff ffff ffff ffff     ................
    c92c:	ffff ffff ffff ffff ffff ffff ffff ffff     ................
    c93c:	ffff ffff ffff ffff ffff ffff ffff ffff     ................
    c94c:	ffff ffff ffff ffff ffff ffff ffff ffff     ................
    c95c:	ffff ffff ffff ffff ffff ffff ffff ffff     ................
    c96c:	ffff ffff ffff ffff ffff ffff ffff ffff     ................
    c97c:	ffff ffff ffff ffff ffff ffff ffff ffff     ................
    c98c:	ffff ffff ffff ffff ffff ffff ffff ffff     ................
    c99c:	ffff ffff ffff ffff ffff ffff ffff ffff     ................
    c9ac:	ffff ffff ffff ffff ffff ffff ffff ffff     ................
    c9bc:	ffff ffff ffff ffff ffff ffff ffff ffff     ................
    c9cc:	ffff ffff ffff ffff ffff ffff ffff ffff     ................
    c9dc:	ffff ffff ffff ffff ffff ffff ffff ffff     ................
    c9ec:	ffff ffff ffff ffff ffff ffff ffff ffff     ................
    c9fc:	ffff ffff ffff ffff ffff ffff ffff ffff     ................
    ca0c:	ffff ffff ffff ffff ffff ffff ffff ffff     ................
    ca1c:	ffff ffff ffff ffff ffff ffff ffff ffff     ................
    ca2c:	ffff ffff ffff ffff ffff ffff ffff ffff     ................
    ca3c:	ffff ffff ffff ffff ffff ffff ffff ffff     ................
    ca4c:	ffff ffff ffff ffff ffff ffff ffff ffff     ................
    ca5c:	ffff ffff ffff ffff ffff ffff ffff ffff     ................
    ca6c:	ffff ffff ffff ffff ffff ffff ffff ffff     ................
    ca7c:	ffff ffff ffff ffff ffff ffff ffff ffff     ................
    ca8c:	ffff ffff ffff ffff ffff ffff ffff ffff     ................
    ca9c:	ffff ffff ffff ffff ffff ffff ffff ffff     ................
    caac:	ffff ffff ffff ffff ffff ffff ffff ffff     ................
    cabc:	ffff ffff ffff ffff ffff ffff ffff ffff     ................
    cacc:	ffff ffff ffff ffff ffff ffff ffff ffff     ................
    cadc:	ffff ffff ffff ffff ffff ffff ffff ffff     ................
    caec:	ffff ffff ffff ffff ffff ffff ffff ffff     ................
    cafc:	ffff ffff ffff ffff ffff ffff ffff ffff     ................
    cb0c:	ffff ffff ffff ffff ffff ffff ffff ffff     ................
    cb1c:	ffff ffff ffff ffff ffff ffff ffff ffff     ................
    cb2c:	ffff ffff ffff ffff ffff ffff ffff ffff     ................
    cb3c:	ffff ffff ffff ffff ffff ffff ffff ffff     ................
    cb4c:	ffff ffff ffff ffff ffff ffff ffff ffff     ................
    cb5c:	ffff ffff ffff ffff ffff ffff ffff ffff     ................
    cb6c:	ffff ffff ffff ffff ffff ffff ffff ffff     ................
    cb7c:	ffff ffff ffff ffff ffff ffff ffff ffff     ................
    cb8c:	ffff ffff ffff ffff ffff ffff ffff ffff     ................
    cb9c:	ffff ffff ffff ffff ffff ffff ffff ffff     ................
    cbac:	ffff ffff ffff ffff ffff ffff ffff ffff     ................
    cbbc:	ffff ffff ffff ffff ffff ffff ffff ffff     ................
    cbcc:	ffff ffff ffff ffff ffff ffff ffff ffff     ................
    cbdc:	ffff ffff ffff ffff ffff ffff ffff ffff     ................
    cbec:	ffff ffff ffff ffff ffff ffff ffff ffff     ................
    cbfc:	ffff ffff ffff ffff ffff ffff ffff ffff     ................
    cc0c:	ffff ffff ffff ffff ffff ffff ffff ffff     ................
    cc1c:	ffff ffff ffff ffff ffff ffff ffff ffff     ................
    cc2c:	ffff ffff ffff ffff ffff ffff ffff ffff     ................
    cc3c:	ffff ffff ffff ffff ffff ffff ffff ffff     ................
    cc4c:	ffff ffff ffff ffff ffff ffff ffff ffff     ................
    cc5c:	ffff ffff ffff ffff ffff ffff ffff ffff     ................
    cc6c:	ffff ffff ffff ffff ffff ffff ffff ffff     ................
    cc7c:	ffff ffff ffff ffff ffff ffff ffff ffff     ................
    cc8c:	ffff ffff ffff ffff ffff ffff ffff ffff     ................
    cc9c:	ffff ffff ffff ffff ffff ffff ffff ffff     ................
    ccac:	ffff ffff ffff ffff ffff ffff ffff ffff     ................
    ccbc:	ffff ffff ffff ffff ffff ffff ffff ffff     ................
    cccc:	ffff ffff ffff ffff ffff ffff ffff ffff     ................
    ccdc:	ffff ffff ffff ffff ffff ffff ffff ffff     ................
    ccec:	ffff ffff ffff ffff ffff ffff ffff ffff     ................
    ccfc:	ffff ffff ffff ffff ffff ffff ffff ffff     ................
    cd0c:	ffff ffff ffff ffff ffff ffff ffff ffff     ................
    cd1c:	ffff ffff ffff ffff ffff ffff ffff ffff     ................
    cd2c:	ffff ffff ffff ffff ffff ffff ffff ffff     ................
    cd3c:	ffff ffff ffff ffff ffff ffff ffff ffff     ................
    cd4c:	ffff ffff ffff ffff ffff ffff ffff ffff     ................
    cd5c:	ffff ffff ffff ffff ffff ffff ffff ffff     ................
    cd6c:	ffff ffff ffff ffff ffff ffff ffff ffff     ................
    cd7c:	ffff ffff ffff ffff ffff ffff ffff ffff     ................
    cd8c:	ffff ffff ffff ffff ffff ffff ffff ffff     ................
    cd9c:	ffff ffff ffff ffff ffff ffff ffff ffff     ................
    cdac:	ffff ffff ffff ffff ffff ffff ffff ffff     ................
    cdbc:	ffff ffff ffff ffff ffff ffff ffff ffff     ................
    cdcc:	ffff ffff ffff ffff ffff ffff ffff ffff     ................
    cddc:	ffff ffff ffff ffff ffff ffff ffff ffff     ................
    cdec:	ffff ffff ffff ffff ffff ffff ffff ffff     ................
    cdfc:	ffff ffff ffff ffff ffff ffff ffff ffff     ................
    ce0c:	ffff ffff ffff ffff ffff ffff ffff ffff     ................
    ce1c:	ffff ffff ffff ffff ffff ffff ffff ffff     ................
    ce2c:	ffff ffff ffff ffff ffff ffff ffff ffff     ................
    ce3c:	ffff ffff ffff ffff ffff ffff ffff ffff     ................
    ce4c:	ffff ffff ffff ffff ffff ffff ffff ffff     ................
    ce5c:	ffff ffff ffff ffff ffff ffff ffff ffff     ................
    ce6c:	ffff ffff ffff ffff ffff ffff ffff ffff     ................
    ce7c:	ffff ffff ffff ffff ffff ffff ffff ffff     ................
    ce8c:	ffff ffff ffff ffff ffff ffff ffff ffff     ................
    ce9c:	ffff ffff ffff ffff ffff ffff ffff ffff     ................
    ceac:	ffff ffff ffff ffff ffff ffff ffff ffff     ................
    cebc:	ffff ffff ffff ffff ffff ffff ffff ffff     ................
    cecc:	ffff ffff ffff ffff ffff ffff ffff ffff     ................
    cedc:	ffff ffff ffff ffff ffff ffff ffff ffff     ................
    ceec:	ffff ffff ffff ffff ffff ffff ffff ffff     ................
    cefc:	ffff ffff ffff ffff ffff ffff ffff ffff     ................
    cf0c:	ffff ffff ffff ffff ffff ffff ffff ffff     ................
    cf1c:	ffff ffff ffff ffff ffff ffff ffff ffff     ................
    cf2c:	ffff ffff ffff ffff ffff ffff ffff ffff     ................
    cf3c:	ffff ffff ffff ffff ffff ffff ffff ffff     ................
    cf4c:	ffff ffff ffff ffff ffff ffff ffff ffff     ................
    cf5c:	ffff ffff ffff ffff ffff ffff ffff ffff     ................
    cf6c:	ffff ffff ffff ffff ffff ffff ffff ffff     ................
    cf7c:	ffff ffff ffff ffff ffff ffff ffff ffff     ................
    cf8c:	ffff ffff ffff ffff ffff ffff ffff ffff     ................
    cf9c:	ffff ffff ffff ffff ffff ffff ffff ffff     ................
    cfac:	ffff ffff ffff ffff ffff ffff ffff ffff     ................
    cfbc:	ffff ffff ffff ffff ffff ffff ffff ffff     ................
    cfcc:	ffff ffff ffff ffff ffff ffff ffff ffff     ................
    cfdc:	ffff ffff ffff ffff ffff ffff ffff ffff     ................
    cfec:	ffff ffff ffff ffff ffff ffff ffff ffff     ................
    cffc:	ffff ffff ffff ffff ffff ffff ffff ffff     ................
    d00c:	ffff ffff ffff ffff ffff ffff ffff ffff     ................
    d01c:	ffff ffff ffff ffff ffff ffff ffff ffff     ................
    d02c:	ffff ffff ffff ffff ffff ffff ffff ffff     ................
    d03c:	ffff ffff ffff ffff ffff ffff ffff ffff     ................
    d04c:	ffff ffff ffff ffff ffff ffff ffff ffff     ................
    d05c:	ffff ffff ffff ffff ffff ffff ffff ffff     ................
    d06c:	ffff ffff ffff ffff ffff ffff ffff ffff     ................
    d07c:	ffff ffff ffff ffff ffff ffff ffff ffff     ................
    d08c:	ffff ffff ffff ffff ffff ffff ffff ffff     ................
    d09c:	ffff ffff ffff ffff ffff ffff ffff ffff     ................
    d0ac:	ffff ffff ffff ffff ffff ffff ffff ffff     ................
    d0bc:	ffff ffff ffff ffff ffff ffff ffff ffff     ................
    d0cc:	ffff ffff ffff ffff ffff ffff ffff ffff     ................
    d0dc:	ffff ffff ffff ffff ffff ffff ffff ffff     ................
    d0ec:	ffff ffff ffff ffff ffff ffff ffff ffff     ................
    d0fc:	ffff ffff ffff ffff ffff ffff ffff ffff     ................
    d10c:	ffff ffff ffff ffff ffff ffff ffff ffff     ................
    d11c:	ffff ffff ffff ffff ffff ffff ffff ffff     ................
    d12c:	ffff ffff ffff ffff ffff ffff ffff ffff     ................
    d13c:	ffff ffff ffff ffff ffff ffff ffff ffff     ................
    d14c:	ffff ffff ffff ffff ffff ffff ffff ffff     ................
    d15c:	ffff ffff ffff ffff ffff ffff ffff ffff     ................
    d16c:	ffff ffff ffff ffff ffff ffff ffff ffff     ................
    d17c:	ffff ffff ffff ffff ffff ffff ffff ffff     ................
    d18c:	ffff ffff ffff ffff ffff ffff ffff ffff     ................
    d19c:	ffff ffff ffff ffff ffff ffff ffff ffff     ................
    d1ac:	ffff ffff ffff ffff ffff ffff ffff ffff     ................
    d1bc:	ffff ffff ffff ffff ffff ffff ffff ffff     ................
    d1cc:	ffff ffff ffff ffff ffff ffff ffff ffff     ................
    d1dc:	ffff ffff ffff ffff ffff ffff ffff ffff     ................
    d1ec:	ffff ffff ffff ffff ffff ffff ffff ffff     ................
    d1fc:	ffff ffff ffff ffff ffff ffff ffff ffff     ................
    d20c:	ffff ffff ffff ffff ffff ffff ffff ffff     ................
    d21c:	ffff ffff ffff ffff ffff ffff ffff ffff     ................
    d22c:	ffff ffff ffff ffff ffff ffff ffff ffff     ................
    d23c:	ffff ffff ffff ffff ffff ffff ffff ffff     ................
    d24c:	ffff ffff ffff ffff ffff ffff ffff ffff     ................
    d25c:	ffff ffff ffff ffff ffff ffff ffff ffff     ................
    d26c:	ffff ffff ffff ffff ffff ffff ffff ffff     ................
    d27c:	ffff ffff ffff ffff ffff ffff ffff ffff     ................
    d28c:	ffff ffff ffff ffff ffff ffff ffff ffff     ................
    d29c:	ffff ffff ffff ffff ffff ffff ffff ffff     ................
    d2ac:	ffff ffff ffff ffff ffff ffff ffff ffff     ................
    d2bc:	ffff ffff ffff ffff ffff ffff ffff ffff     ................
    d2cc:	ffff ffff ffff ffff ffff ffff ffff ffff     ................
    d2dc:	ffff ffff ffff ffff ffff ffff ffff ffff     ................
    d2ec:	ffff ffff ffff ffff ffff ffff ffff ffff     ................
    d2fc:	ffff ffff ffff ffff ffff ffff ffff ffff     ................
    d30c:	ffff ffff ffff ffff ffff ffff ffff ffff     ................
    d31c:	ffff ffff ffff ffff ffff ffff ffff ffff     ................
    d32c:	ffff ffff ffff ffff ffff ffff ffff ffff     ................
    d33c:	ffff ffff ffff ffff ffff ffff ffff ffff     ................
    d34c:	ffff ffff ffff ffff ffff ffff ffff ffff     ................
    d35c:	ffff ffff ffff ffff ffff ffff ffff ffff     ................
    d36c:	ffff ffff ffff ffff ffff ffff ffff ffff     ................
    d37c:	ffff ffff ffff ffff ffff ffff ffff ffff     ................
    d38c:	ffff ffff ffff ffff ffff ffff ffff ffff     ................
    d39c:	ffff ffff ffff ffff ffff ffff ffff ffff     ................
    d3ac:	ffff ffff ffff ffff ffff ffff ffff ffff     ................
    d3bc:	ffff ffff ffff ffff ffff ffff ffff ffff     ................
    d3cc:	ffff ffff ffff ffff ffff ffff ffff ffff     ................
    d3dc:	ffff ffff ffff ffff ffff ffff ffff ffff     ................
    d3ec:	ffff ffff ffff ffff ffff ffff ffff ffff     ................
    d3fc:	ffff ffff ffff ffff ffff ffff ffff ffff     ................
    d40c:	ffff ffff ffff ffff ffff ffff ffff ffff     ................
    d41c:	ffff ffff ffff ffff ffff ffff ffff ffff     ................
    d42c:	ffff ffff ffff ffff ffff ffff ffff ffff     ................
    d43c:	ffff ffff ffff ffff ffff ffff ffff ffff     ................
    d44c:	ffff ffff ffff ffff ffff ffff ffff ffff     ................
    d45c:	ffff ffff ffff ffff ffff ffff ffff ffff     ................
    d46c:	ffff ffff ffff ffff ffff ffff ffff ffff     ................
    d47c:	ffff ffff ffff ffff ffff ffff ffff ffff     ................
    d48c:	ffff ffff ffff ffff ffff ffff ffff ffff     ................
    d49c:	ffff ffff ffff ffff ffff ffff ffff ffff     ................
    d4ac:	ffff ffff ffff ffff ffff ffff ffff ffff     ................
    d4bc:	ffff ffff ffff ffff ffff ffff ffff ffff     ................
    d4cc:	ffff ffff ffff ffff ffff ffff ffff ffff     ................
    d4dc:	ffff ffff ffff ffff ffff ffff ffff ffff     ................
    d4ec:	ffff ffff ffff ffff ffff ffff ffff ffff     ................
    d4fc:	ffff ffff ffff ffff ffff ffff ffff ffff     ................
    d50c:	ffff ffff ffff ffff ffff ffff ffff ffff     ................
    d51c:	ffff ffff ffff ffff ffff ffff ffff ffff     ................
    d52c:	ffff ffff ffff ffff ffff ffff ffff ffff     ................
    d53c:	ffff ffff ffff ffff ffff ffff ffff ffff     ................
    d54c:	ffff ffff ffff ffff ffff ffff ffff ffff     ................
    d55c:	ffff ffff ffff ffff ffff ffff ffff ffff     ................
    d56c:	ffff ffff ffff ffff ffff ffff ffff ffff     ................
    d57c:	ffff ffff ffff ffff ffff ffff ffff ffff     ................
    d58c:	ffff ffff ffff ffff ffff ffff ffff ffff     ................
    d59c:	ffff ffff ffff ffff ffff ffff ffff ffff     ................
    d5ac:	ffff ffff ffff ffff ffff ffff ffff ffff     ................
    d5bc:	ffff ffff ffff ffff ffff ffff ffff ffff     ................
    d5cc:	ffff ffff ffff ffff ffff ffff ffff ffff     ................
    d5dc:	ffff ffff ffff ffff ffff ffff ffff ffff     ................
    d5ec:	ffff ffff ffff ffff ffff ffff ffff ffff     ................
    d5fc:	ffff ffff ffff ffff ffff ffff ffff ffff     ................
    d60c:	ffff ffff ffff ffff ffff ffff ffff ffff     ................
    d61c:	ffff ffff ffff ffff ffff ffff ffff ffff     ................
    d62c:	ffff ffff ffff ffff ffff ffff ffff ffff     ................
    d63c:	ffff ffff ffff ffff ffff ffff ffff ffff     ................
    d64c:	ffff ffff ffff ffff ffff ffff ffff ffff     ................
    d65c:	ffff ffff ffff ffff ffff ffff ffff ffff     ................
    d66c:	ffff ffff ffff ffff ffff ffff ffff ffff     ................
    d67c:	ffff ffff ffff ffff ffff ffff ffff ffff     ................
    d68c:	ffff ffff ffff ffff ffff ffff ffff ffff     ................
    d69c:	ffff ffff ffff ffff ffff ffff ffff ffff     ................
    d6ac:	ffff ffff ffff ffff ffff ffff ffff ffff     ................
    d6bc:	ffff ffff ffff ffff ffff ffff ffff ffff     ................
    d6cc:	ffff ffff ffff ffff ffff ffff ffff ffff     ................
    d6dc:	ffff ffff ffff ffff ffff ffff ffff ffff     ................
    d6ec:	ffff ffff ffff ffff ffff ffff ffff ffff     ................
    d6fc:	ffff ffff ffff ffff ffff ffff ffff ffff     ................
    d70c:	ffff ffff ffff ffff ffff ffff ffff ffff     ................
    d71c:	ffff ffff ffff ffff ffff ffff ffff ffff     ................
    d72c:	ffff ffff ffff ffff ffff ffff ffff ffff     ................
    d73c:	ffff ffff ffff ffff ffff ffff ffff ffff     ................
    d74c:	ffff ffff ffff ffff ffff ffff ffff ffff     ................
    d75c:	ffff ffff ffff ffff ffff ffff ffff ffff     ................
    d76c:	ffff ffff ffff ffff ffff ffff ffff ffff     ................
    d77c:	ffff ffff ffff ffff ffff ffff ffff ffff     ................
    d78c:	ffff ffff ffff ffff ffff ffff ffff ffff     ................
    d79c:	ffff ffff ffff ffff ffff ffff ffff ffff     ................
    d7ac:	ffff ffff ffff ffff ffff ffff ffff ffff     ................
    d7bc:	ffff ffff ffff ffff ffff ffff ffff ffff     ................
    d7cc:	ffff ffff ffff ffff ffff ffff ffff ffff     ................
    d7dc:	ffff ffff ffff ffff ffff ffff ffff ffff     ................
    d7ec:	ffff ffff ffff ffff ffff ffff ffff ffff     ................
    d7fc:	ffff ffff ffff ffff ffff ffff ffff ffff     ................
    d80c:	ffff ffff ffff ffff ffff ffff ffff ffff     ................
    d81c:	ffff ffff ffff ffff ffff ffff ffff ffff     ................
    d82c:	ffff ffff ffff ffff ffff ffff ffff ffff     ................
    d83c:	ffff ffff ffff ffff ffff ffff ffff ffff     ................
    d84c:	ffff ffff ffff ffff ffff ffff ffff ffff     ................
    d85c:	ffff ffff ffff ffff ffff ffff ffff ffff     ................
    d86c:	ffff ffff ffff ffff ffff ffff ffff ffff     ................
    d87c:	ffff ffff ffff ffff ffff ffff ffff ffff     ................
    d88c:	ffff ffff ffff ffff ffff ffff ffff ffff     ................
    d89c:	ffff ffff ffff ffff ffff ffff ffff ffff     ................
    d8ac:	ffff ffff ffff ffff ffff ffff ffff ffff     ................
    d8bc:	ffff ffff ffff ffff ffff ffff ffff ffff     ................
    d8cc:	ffff ffff ffff ffff ffff ffff ffff ffff     ................
    d8dc:	ffff ffff ffff ffff ffff ffff ffff ffff     ................
    d8ec:	ffff ffff ffff ffff ffff ffff ffff ffff     ................
    d8fc:	ffff ffff ffff ffff ffff ffff ffff ffff     ................
    d90c:	ffff ffff ffff ffff ffff ffff ffff ffff     ................
    d91c:	ffff ffff ffff ffff ffff ffff ffff ffff     ................
    d92c:	ffff ffff ffff ffff ffff ffff ffff ffff     ................
    d93c:	ffff ffff ffff ffff ffff ffff ffff ffff     ................
    d94c:	ffff ffff ffff ffff ffff ffff ffff ffff     ................
    d95c:	ffff ffff ffff ffff ffff ffff ffff ffff     ................
    d96c:	ffff ffff ffff ffff ffff ffff ffff ffff     ................
    d97c:	ffff ffff ffff ffff ffff ffff ffff ffff     ................
    d98c:	ffff ffff ffff ffff ffff ffff ffff ffff     ................
    d99c:	ffff ffff ffff ffff ffff ffff ffff ffff     ................
    d9ac:	ffff ffff ffff ffff ffff ffff ffff ffff     ................
    d9bc:	ffff ffff ffff ffff ffff ffff ffff ffff     ................
    d9cc:	ffff ffff ffff ffff ffff ffff ffff ffff     ................
    d9dc:	ffff ffff ffff ffff ffff ffff ffff ffff     ................
    d9ec:	ffff ffff ffff ffff ffff ffff ffff ffff     ................
    d9fc:	ffff ffff ffff ffff ffff ffff ffff ffff     ................
    da0c:	ffff ffff ffff ffff ffff ffff ffff ffff     ................
    da1c:	ffff ffff ffff ffff ffff ffff ffff ffff     ................
    da2c:	ffff ffff ffff ffff ffff ffff ffff ffff     ................
    da3c:	ffff ffff ffff ffff ffff ffff ffff ffff     ................
    da4c:	ffff ffff ffff ffff ffff ffff ffff ffff     ................
    da5c:	ffff ffff ffff ffff ffff ffff ffff ffff     ................
    da6c:	ffff ffff ffff ffff ffff ffff ffff ffff     ................
    da7c:	ffff ffff ffff ffff ffff ffff ffff ffff     ................
    da8c:	ffff ffff ffff ffff ffff ffff ffff ffff     ................
    da9c:	ffff ffff ffff ffff ffff ffff ffff ffff     ................
    daac:	ffff ffff ffff ffff ffff ffff ffff ffff     ................
    dabc:	ffff ffff ffff ffff ffff ffff ffff ffff     ................
    dacc:	ffff ffff ffff ffff ffff ffff ffff ffff     ................
    dadc:	ffff ffff ffff ffff ffff ffff ffff ffff     ................
    daec:	ffff ffff ffff ffff ffff ffff ffff ffff     ................
    dafc:	ffff ffff ffff ffff ffff ffff ffff ffff     ................
    db0c:	ffff ffff ffff ffff ffff ffff ffff ffff     ................
    db1c:	ffff ffff ffff ffff ffff ffff ffff ffff     ................
    db2c:	ffff ffff ffff ffff ffff ffff ffff ffff     ................
    db3c:	ffff ffff ffff ffff ffff ffff ffff ffff     ................
    db4c:	ffff ffff ffff ffff ffff ffff ffff ffff     ................
    db5c:	ffff ffff ffff ffff ffff ffff ffff ffff     ................
    db6c:	ffff ffff ffff ffff ffff ffff ffff ffff     ................
    db7c:	ffff ffff ffff ffff ffff ffff ffff ffff     ................
    db8c:	ffff ffff ffff ffff ffff ffff ffff ffff     ................
    db9c:	ffff ffff ffff ffff ffff ffff ffff ffff     ................
    dbac:	ffff ffff ffff ffff ffff ffff ffff ffff     ................
    dbbc:	ffff ffff ffff ffff ffff ffff ffff ffff     ................
    dbcc:	ffff ffff ffff ffff ffff ffff ffff ffff     ................
    dbdc:	ffff ffff ffff ffff ffff ffff ffff ffff     ................
    dbec:	ffff ffff ffff ffff ffff ffff ffff ffff     ................
    dbfc:	ffff ffff ffff ffff ffff ffff ffff ffff     ................
    dc0c:	ffff ffff ffff ffff ffff ffff ffff ffff     ................
    dc1c:	ffff ffff ffff ffff ffff ffff ffff ffff     ................
    dc2c:	ffff ffff ffff ffff ffff ffff ffff ffff     ................
    dc3c:	ffff ffff ffff ffff ffff ffff ffff ffff     ................
    dc4c:	ffff ffff ffff ffff ffff ffff ffff ffff     ................
    dc5c:	ffff ffff ffff ffff ffff ffff ffff ffff     ................
    dc6c:	ffff ffff ffff ffff ffff ffff ffff ffff     ................
    dc7c:	ffff ffff ffff ffff ffff ffff ffff ffff     ................
    dc8c:	ffff ffff ffff ffff ffff ffff ffff ffff     ................
    dc9c:	ffff ffff ffff ffff ffff ffff ffff ffff     ................
    dcac:	ffff ffff ffff ffff ffff ffff ffff ffff     ................
    dcbc:	ffff ffff ffff ffff ffff ffff ffff ffff     ................
    dccc:	ffff ffff ffff ffff ffff ffff ffff ffff     ................
    dcdc:	ffff ffff ffff ffff ffff ffff ffff ffff     ................
    dcec:	ffff ffff ffff ffff ffff ffff ffff ffff     ................
    dcfc:	ffff ffff ffff ffff ffff ffff ffff ffff     ................
    dd0c:	ffff ffff ffff ffff ffff ffff ffff ffff     ................
    dd1c:	ffff ffff ffff ffff ffff ffff ffff ffff     ................
    dd2c:	ffff ffff ffff ffff ffff ffff ffff ffff     ................
    dd3c:	ffff ffff ffff ffff ffff ffff ffff ffff     ................
    dd4c:	ffff ffff ffff ffff ffff ffff ffff ffff     ................
    dd5c:	ffff ffff ffff ffff ffff ffff ffff ffff     ................
    dd6c:	ffff ffff ffff ffff ffff ffff ffff ffff     ................
    dd7c:	ffff ffff ffff ffff ffff ffff ffff ffff     ................
    dd8c:	ffff ffff ffff ffff ffff ffff ffff ffff     ................
    dd9c:	ffff ffff ffff ffff ffff ffff ffff ffff     ................
    ddac:	ffff ffff ffff ffff ffff ffff ffff ffff     ................
    ddbc:	ffff ffff ffff ffff ffff ffff ffff ffff     ................
    ddcc:	ffff ffff ffff ffff ffff ffff ffff ffff     ................
    dddc:	ffff ffff ffff ffff ffff ffff ffff ffff     ................
    ddec:	ffff ffff ffff ffff ffff ffff ffff ffff     ................
    ddfc:	ffff ffff ffff ffff ffff ffff ffff ffff     ................
    de0c:	ffff ffff ffff ffff ffff ffff ffff ffff     ................
    de1c:	ffff ffff ffff ffff ffff ffff ffff ffff     ................
    de2c:	ffff ffff ffff ffff ffff ffff ffff ffff     ................
    de3c:	ffff ffff ffff ffff ffff ffff ffff ffff     ................
    de4c:	ffff ffff ffff ffff ffff ffff ffff ffff     ................
    de5c:	ffff ffff ffff ffff ffff ffff ffff ffff     ................
    de6c:	ffff ffff ffff ffff ffff ffff ffff ffff     ................
    de7c:	ffff ffff ffff ffff ffff ffff ffff ffff     ................
    de8c:	ffff ffff ffff ffff ffff ffff ffff ffff     ................
    de9c:	ffff ffff ffff ffff ffff ffff ffff ffff     ................
    deac:	ffff ffff ffff ffff ffff ffff ffff ffff     ................
    debc:	ffff ffff ffff ffff ffff ffff ffff ffff     ................
    decc:	ffff ffff ffff ffff ffff ffff ffff ffff     ................
    dedc:	ffff ffff ffff ffff ffff ffff ffff ffff     ................
    deec:	ffff ffff ffff ffff ffff ffff ffff ffff     ................
    defc:	ffff ffff ffff ffff ffff ffff ffff ffff     ................
    df0c:	ffff ffff ffff ffff ffff ffff ffff ffff     ................
    df1c:	ffff ffff ffff ffff ffff ffff ffff ffff     ................
    df2c:	ffff ffff ffff ffff ffff ffff ffff ffff     ................
    df3c:	ffff ffff ffff ffff ffff ffff ffff ffff     ................
    df4c:	ffff ffff ffff ffff ffff ffff ffff ffff     ................
    df5c:	ffff ffff ffff ffff ffff ffff ffff ffff     ................
    df6c:	ffff ffff ffff ffff ffff ffff ffff ffff     ................
    df7c:	ffff ffff ffff ffff ffff ffff ffff ffff     ................
    df8c:	ffff ffff ffff ffff ffff ffff ffff ffff     ................
    df9c:	ffff ffff ffff ffff ffff ffff ffff ffff     ................
    dfac:	ffff ffff ffff ffff ffff ffff ffff ffff     ................
    dfbc:	ffff ffff ffff ffff ffff ffff ffff ffff     ................
    dfcc:	ffff ffff ffff ffff ffff ffff ffff ffff     ................
    dfdc:	ffff ffff ffff ffff ffff ffff ffff ffff     ................
    dfec:	ffff ffff ffff ffff ffff ffff ffff ffff     ................
    dffc:	ffff ffff ffff ffff ffff ffff ffff ffff     ................
    e00c:	ffff ffff ffff ffff ffff ffff ffff ffff     ................
    e01c:	ffff ffff ffff ffff ffff ffff ffff ffff     ................
    e02c:	ffff ffff ffff ffff ffff ffff ffff ffff     ................
    e03c:	ffff ffff ffff ffff ffff ffff ffff ffff     ................
    e04c:	ffff ffff ffff ffff ffff ffff ffff ffff     ................
    e05c:	ffff ffff ffff ffff ffff ffff ffff ffff     ................
    e06c:	ffff ffff ffff ffff ffff ffff ffff ffff     ................
    e07c:	ffff ffff ffff ffff ffff ffff ffff ffff     ................
    e08c:	ffff ffff ffff ffff ffff ffff ffff ffff     ................
    e09c:	ffff ffff ffff ffff ffff ffff ffff ffff     ................
    e0ac:	ffff ffff ffff ffff ffff ffff ffff ffff     ................
    e0bc:	ffff ffff ffff ffff ffff ffff ffff ffff     ................
    e0cc:	ffff ffff ffff ffff ffff ffff ffff ffff     ................
    e0dc:	ffff ffff ffff ffff ffff ffff ffff ffff     ................
    e0ec:	ffff ffff ffff ffff ffff ffff ffff ffff     ................
    e0fc:	ffff ffff ffff ffff ffff ffff ffff ffff     ................
    e10c:	ffff ffff ffff ffff ffff ffff ffff ffff     ................
    e11c:	ffff ffff ffff ffff ffff ffff ffff ffff     ................
    e12c:	ffff ffff ffff ffff ffff ffff ffff ffff     ................
    e13c:	ffff ffff ffff ffff ffff ffff ffff ffff     ................
    e14c:	ffff ffff ffff ffff ffff ffff ffff ffff     ................
    e15c:	ffff ffff ffff ffff ffff ffff ffff ffff     ................
    e16c:	ffff ffff ffff ffff ffff ffff ffff ffff     ................
    e17c:	ffff ffff ffff ffff ffff ffff ffff ffff     ................
    e18c:	ffff ffff ffff ffff ffff ffff ffff ffff     ................
    e19c:	ffff ffff ffff ffff ffff ffff ffff ffff     ................
    e1ac:	ffff ffff ffff ffff ffff ffff ffff ffff     ................
    e1bc:	ffff ffff ffff ffff ffff ffff ffff ffff     ................
    e1cc:	ffff ffff ffff ffff ffff ffff ffff ffff     ................
    e1dc:	ffff ffff ffff ffff ffff ffff ffff ffff     ................
    e1ec:	ffff ffff ffff ffff ffff ffff ffff ffff     ................
    e1fc:	ffff ffff ffff ffff ffff ffff ffff ffff     ................
    e20c:	ffff ffff ffff ffff ffff ffff ffff ffff     ................
    e21c:	ffff ffff ffff ffff ffff ffff ffff ffff     ................
    e22c:	ffff ffff ffff ffff ffff ffff ffff ffff     ................
    e23c:	ffff ffff ffff ffff ffff ffff ffff ffff     ................
    e24c:	ffff ffff ffff ffff ffff ffff ffff ffff     ................
    e25c:	ffff ffff ffff ffff ffff ffff ffff ffff     ................
    e26c:	ffff ffff ffff ffff ffff ffff ffff ffff     ................
    e27c:	ffff ffff ffff ffff ffff ffff ffff ffff     ................
    e28c:	ffff ffff ffff ffff ffff ffff ffff ffff     ................
    e29c:	ffff ffff ffff ffff ffff ffff ffff ffff     ................
    e2ac:	ffff ffff ffff ffff ffff ffff ffff ffff     ................
    e2bc:	ffff ffff ffff ffff ffff ffff ffff ffff     ................
    e2cc:	ffff ffff ffff ffff ffff ffff ffff ffff     ................
    e2dc:	ffff ffff ffff ffff ffff ffff ffff ffff     ................
    e2ec:	ffff ffff ffff ffff ffff ffff ffff ffff     ................
    e2fc:	ffff ffff ffff ffff ffff ffff ffff ffff     ................
    e30c:	ffff ffff ffff ffff ffff ffff ffff ffff     ................
    e31c:	ffff ffff ffff ffff ffff ffff ffff ffff     ................
    e32c:	ffff ffff ffff ffff ffff ffff ffff ffff     ................
    e33c:	ffff ffff ffff ffff ffff ffff ffff ffff     ................
    e34c:	ffff ffff ffff ffff ffff ffff ffff ffff     ................
    e35c:	ffff ffff ffff ffff ffff ffff ffff ffff     ................
    e36c:	ffff ffff ffff ffff ffff ffff ffff ffff     ................
    e37c:	ffff ffff ffff ffff ffff ffff ffff ffff     ................
    e38c:	ffff ffff ffff ffff ffff ffff ffff ffff     ................
    e39c:	ffff ffff ffff ffff ffff ffff ffff ffff     ................
    e3ac:	ffff ffff ffff ffff ffff ffff ffff ffff     ................
    e3bc:	ffff ffff ffff ffff ffff ffff ffff ffff     ................
    e3cc:	ffff ffff ffff ffff ffff ffff ffff ffff     ................
    e3dc:	ffff ffff ffff ffff ffff ffff ffff ffff     ................
    e3ec:	ffff ffff ffff ffff ffff ffff ffff ffff     ................
    e3fc:	ffff ffff ffff ffff ffff ffff ffff ffff     ................
    e40c:	ffff ffff ffff ffff ffff ffff ffff ffff     ................
    e41c:	ffff ffff ffff ffff ffff ffff ffff ffff     ................
    e42c:	ffff ffff ffff ffff ffff ffff ffff ffff     ................
    e43c:	ffff ffff ffff ffff ffff ffff ffff ffff     ................
    e44c:	ffff ffff ffff ffff ffff ffff ffff ffff     ................
    e45c:	ffff ffff ffff ffff ffff ffff ffff ffff     ................
    e46c:	ffff ffff ffff ffff ffff ffff ffff ffff     ................
    e47c:	ffff ffff ffff ffff ffff ffff ffff ffff     ................
    e48c:	ffff ffff ffff ffff ffff ffff ffff ffff     ................
    e49c:	ffff ffff ffff ffff ffff ffff ffff ffff     ................
    e4ac:	ffff ffff ffff ffff ffff ffff ffff ffff     ................
    e4bc:	ffff ffff ffff ffff ffff ffff ffff ffff     ................
    e4cc:	ffff ffff ffff ffff ffff ffff ffff ffff     ................
    e4dc:	ffff ffff ffff ffff ffff ffff ffff ffff     ................
    e4ec:	ffff ffff ffff ffff ffff ffff ffff ffff     ................
    e4fc:	ffff ffff ffff ffff ffff ffff ffff ffff     ................
    e50c:	ffff ffff ffff ffff ffff ffff ffff ffff     ................
    e51c:	ffff ffff ffff ffff ffff ffff ffff ffff     ................
    e52c:	ffff ffff ffff ffff ffff ffff ffff ffff     ................
    e53c:	ffff ffff ffff ffff ffff ffff ffff ffff     ................
    e54c:	ffff ffff ffff ffff ffff ffff ffff ffff     ................
    e55c:	ffff ffff ffff ffff ffff ffff ffff ffff     ................
    e56c:	ffff ffff ffff ffff ffff ffff ffff ffff     ................
    e57c:	ffff ffff ffff ffff ffff ffff ffff ffff     ................
    e58c:	ffff ffff ffff ffff ffff ffff ffff ffff     ................
    e59c:	ffff ffff ffff ffff ffff ffff ffff ffff     ................
    e5ac:	ffff ffff ffff ffff ffff ffff ffff ffff     ................
    e5bc:	ffff ffff ffff ffff ffff ffff ffff ffff     ................
    e5cc:	ffff ffff ffff ffff ffff ffff ffff ffff     ................
    e5dc:	ffff ffff ffff ffff ffff ffff ffff ffff     ................
    e5ec:	ffff ffff ffff ffff ffff ffff ffff ffff     ................
    e5fc:	ffff ffff ffff ffff ffff ffff ffff ffff     ................
    e60c:	ffff ffff ffff ffff ffff ffff ffff ffff     ................
    e61c:	ffff ffff ffff ffff ffff ffff ffff ffff     ................
    e62c:	ffff ffff ffff ffff ffff ffff ffff ffff     ................
    e63c:	ffff ffff ffff ffff ffff ffff ffff ffff     ................
    e64c:	ffff ffff ffff ffff ffff ffff ffff ffff     ................
    e65c:	ffff ffff ffff ffff ffff ffff ffff ffff     ................
    e66c:	ffff ffff ffff ffff ffff ffff ffff ffff     ................
    e67c:	ffff ffff ffff ffff ffff ffff ffff ffff     ................
    e68c:	ffff ffff ffff ffff ffff ffff ffff ffff     ................
    e69c:	ffff ffff ffff ffff ffff ffff ffff ffff     ................
    e6ac:	ffff ffff ffff ffff ffff ffff ffff ffff     ................
    e6bc:	ffff ffff ffff ffff ffff ffff ffff ffff     ................
    e6cc:	ffff ffff ffff ffff ffff ffff ffff ffff     ................
    e6dc:	ffff ffff ffff ffff ffff ffff ffff ffff     ................
    e6ec:	ffff ffff ffff ffff ffff ffff ffff ffff     ................
    e6fc:	ffff ffff ffff ffff ffff ffff ffff ffff     ................
    e70c:	ffff ffff ffff ffff ffff ffff ffff ffff     ................
    e71c:	ffff ffff ffff ffff ffff ffff ffff ffff     ................
    e72c:	ffff ffff ffff ffff ffff ffff ffff ffff     ................
    e73c:	ffff ffff ffff ffff ffff ffff ffff ffff     ................
    e74c:	ffff ffff ffff ffff ffff ffff ffff ffff     ................
    e75c:	ffff ffff ffff ffff ffff ffff ffff ffff     ................
    e76c:	ffff ffff ffff ffff ffff ffff ffff ffff     ................
    e77c:	ffff ffff ffff ffff ffff ffff ffff ffff     ................
    e78c:	ffff ffff ffff ffff ffff ffff ffff ffff     ................
    e79c:	ffff ffff ffff ffff ffff ffff ffff ffff     ................
    e7ac:	ffff ffff ffff ffff ffff ffff ffff ffff     ................
    e7bc:	ffff ffff ffff ffff ffff ffff ffff ffff     ................
    e7cc:	ffff ffff ffff ffff ffff ffff ffff ffff     ................
    e7dc:	ffff ffff ffff ffff ffff ffff ffff ffff     ................
    e7ec:	ffff ffff ffff ffff ffff ffff ffff ffff     ................
    e7fc:	ffff ffff ffff ffff ffff ffff ffff ffff     ................
    e80c:	ffff ffff ffff ffff ffff ffff ffff ffff     ................
    e81c:	ffff ffff ffff ffff ffff ffff ffff ffff     ................
    e82c:	ffff ffff ffff ffff ffff ffff ffff ffff     ................
    e83c:	ffff ffff ffff ffff ffff ffff ffff ffff     ................
    e84c:	ffff ffff ffff ffff ffff ffff ffff ffff     ................
    e85c:	ffff ffff ffff ffff ffff ffff ffff ffff     ................
    e86c:	ffff ffff ffff ffff ffff ffff ffff ffff     ................
    e87c:	ffff ffff ffff ffff ffff ffff ffff ffff     ................
    e88c:	ffff ffff ffff ffff ffff ffff ffff ffff     ................
    e89c:	ffff ffff ffff ffff ffff ffff ffff ffff     ................
    e8ac:	ffff ffff ffff ffff ffff ffff ffff ffff     ................
    e8bc:	ffff ffff ffff ffff ffff ffff ffff ffff     ................
    e8cc:	ffff ffff ffff ffff ffff ffff ffff ffff     ................
    e8dc:	ffff ffff ffff ffff ffff ffff ffff ffff     ................
    e8ec:	ffff ffff ffff ffff ffff ffff ffff ffff     ................
    e8fc:	ffff ffff ffff ffff ffff ffff ffff ffff     ................
    e90c:	ffff ffff ffff ffff ffff ffff ffff ffff     ................
    e91c:	ffff ffff ffff ffff ffff ffff ffff ffff     ................
    e92c:	ffff ffff ffff ffff ffff ffff ffff ffff     ................
    e93c:	ffff ffff ffff ffff ffff ffff ffff ffff     ................
    e94c:	ffff ffff ffff ffff ffff ffff ffff ffff     ................
    e95c:	ffff ffff ffff ffff ffff ffff ffff ffff     ................
    e96c:	ffff ffff ffff ffff ffff ffff ffff ffff     ................
    e97c:	ffff ffff ffff ffff ffff ffff ffff ffff     ................
    e98c:	ffff ffff ffff ffff ffff ffff ffff ffff     ................
    e99c:	ffff ffff ffff ffff ffff ffff ffff ffff     ................
    e9ac:	ffff ffff ffff ffff ffff ffff ffff ffff     ................
    e9bc:	ffff ffff ffff ffff ffff ffff ffff ffff     ................
    e9cc:	ffff ffff ffff ffff ffff ffff ffff ffff     ................
    e9dc:	ffff ffff ffff ffff ffff ffff ffff ffff     ................
    e9ec:	ffff ffff ffff ffff ffff ffff ffff ffff     ................
    e9fc:	ffff ffff ffff ffff ffff ffff ffff ffff     ................
    ea0c:	ffff ffff ffff ffff ffff ffff ffff ffff     ................
    ea1c:	ffff ffff ffff ffff ffff ffff ffff ffff     ................
    ea2c:	ffff ffff ffff ffff ffff ffff ffff ffff     ................
    ea3c:	ffff ffff ffff ffff ffff ffff ffff ffff     ................
    ea4c:	ffff ffff ffff ffff ffff ffff ffff ffff     ................
    ea5c:	ffff ffff ffff ffff ffff ffff ffff ffff     ................
    ea6c:	ffff ffff ffff ffff ffff ffff ffff ffff     ................
    ea7c:	ffff ffff ffff ffff ffff ffff ffff ffff     ................
    ea8c:	ffff ffff ffff ffff ffff ffff ffff ffff     ................
    ea9c:	ffff ffff ffff ffff ffff ffff ffff ffff     ................
    eaac:	ffff ffff ffff ffff ffff ffff ffff ffff     ................
    eabc:	ffff ffff ffff ffff ffff ffff ffff ffff     ................
    eacc:	ffff ffff ffff ffff ffff ffff ffff ffff     ................
    eadc:	ffff ffff ffff ffff ffff ffff ffff ffff     ................
    eaec:	ffff ffff ffff ffff ffff ffff ffff ffff     ................
    eafc:	ffff ffff ffff ffff ffff ffff ffff ffff     ................
    eb0c:	ffff ffff ffff ffff ffff ffff ffff ffff     ................
    eb1c:	ffff ffff ffff ffff ffff ffff ffff ffff     ................
    eb2c:	ffff ffff ffff ffff ffff ffff ffff ffff     ................
    eb3c:	ffff ffff ffff ffff ffff ffff ffff ffff     ................
    eb4c:	ffff ffff ffff ffff ffff ffff ffff ffff     ................
    eb5c:	ffff ffff ffff ffff ffff ffff ffff ffff     ................
    eb6c:	ffff ffff ffff ffff ffff ffff ffff ffff     ................
    eb7c:	ffff ffff ffff ffff ffff ffff ffff ffff     ................
    eb8c:	ffff ffff ffff ffff ffff ffff ffff ffff     ................
    eb9c:	ffff ffff ffff ffff ffff ffff ffff ffff     ................
    ebac:	ffff ffff ffff ffff ffff ffff ffff ffff     ................
    ebbc:	ffff ffff ffff ffff ffff ffff ffff ffff     ................
    ebcc:	ffff ffff ffff ffff ffff ffff ffff ffff     ................
    ebdc:	ffff ffff ffff ffff ffff ffff ffff ffff     ................
    ebec:	ffff ffff ffff ffff ffff ffff ffff ffff     ................
    ebfc:	ffff ffff ffff ffff ffff ffff ffff ffff     ................
    ec0c:	ffff ffff ffff ffff ffff ffff ffff ffff     ................
    ec1c:	ffff ffff ffff ffff ffff ffff ffff ffff     ................
    ec2c:	ffff ffff ffff ffff ffff ffff ffff ffff     ................
    ec3c:	ffff ffff ffff ffff ffff ffff ffff ffff     ................
    ec4c:	ffff ffff ffff ffff ffff ffff ffff ffff     ................
    ec5c:	ffff ffff ffff ffff ffff ffff ffff ffff     ................
    ec6c:	ffff ffff ffff ffff ffff ffff ffff ffff     ................
    ec7c:	ffff ffff ffff ffff ffff ffff ffff ffff     ................
    ec8c:	ffff ffff ffff ffff ffff ffff ffff ffff     ................
    ec9c:	ffff ffff ffff ffff ffff ffff ffff ffff     ................
    ecac:	ffff ffff ffff ffff ffff ffff ffff ffff     ................
    ecbc:	ffff ffff ffff ffff ffff ffff ffff ffff     ................
    eccc:	ffff ffff ffff ffff ffff ffff ffff ffff     ................
    ecdc:	ffff ffff ffff ffff ffff ffff ffff ffff     ................
    ecec:	ffff ffff ffff ffff ffff ffff ffff ffff     ................
    ecfc:	ffff ffff ffff ffff ffff ffff ffff ffff     ................
    ed0c:	ffff ffff ffff ffff ffff ffff ffff ffff     ................
    ed1c:	ffff ffff ffff ffff ffff ffff ffff ffff     ................
    ed2c:	ffff ffff ffff ffff ffff ffff ffff ffff     ................
    ed3c:	ffff ffff ffff ffff ffff ffff ffff ffff     ................
    ed4c:	ffff ffff ffff ffff ffff ffff ffff ffff     ................
    ed5c:	ffff ffff ffff ffff ffff ffff ffff ffff     ................
    ed6c:	ffff ffff ffff ffff ffff ffff ffff ffff     ................
    ed7c:	ffff ffff ffff ffff ffff ffff ffff ffff     ................
    ed8c:	ffff ffff ffff ffff ffff ffff ffff ffff     ................
    ed9c:	ffff ffff ffff ffff ffff ffff ffff ffff     ................
    edac:	ffff ffff ffff ffff ffff ffff ffff ffff     ................
    edbc:	ffff ffff ffff ffff ffff ffff ffff ffff     ................
    edcc:	ffff ffff ffff ffff ffff ffff ffff ffff     ................
    eddc:	ffff ffff ffff ffff ffff ffff ffff ffff     ................
    edec:	ffff ffff ffff ffff ffff ffff ffff ffff     ................
    edfc:	ffff ffff ffff ffff ffff ffff ffff ffff     ................
    ee0c:	ffff ffff ffff ffff ffff ffff ffff ffff     ................
    ee1c:	ffff ffff ffff ffff ffff ffff ffff ffff     ................
    ee2c:	ffff ffff ffff ffff ffff ffff ffff ffff     ................
    ee3c:	ffff ffff ffff ffff ffff ffff ffff ffff     ................
    ee4c:	ffff ffff ffff ffff ffff ffff ffff ffff     ................
    ee5c:	ffff ffff ffff ffff ffff ffff ffff ffff     ................
    ee6c:	ffff ffff ffff ffff ffff ffff ffff ffff     ................
    ee7c:	ffff ffff ffff ffff ffff ffff ffff ffff     ................
    ee8c:	ffff ffff ffff ffff ffff ffff ffff ffff     ................
    ee9c:	ffff ffff ffff ffff ffff ffff ffff ffff     ................
    eeac:	ffff ffff ffff ffff ffff ffff ffff ffff     ................
    eebc:	ffff ffff ffff ffff ffff ffff ffff ffff     ................
    eecc:	ffff ffff ffff ffff ffff ffff ffff ffff     ................
    eedc:	ffff ffff ffff ffff ffff ffff ffff ffff     ................
    eeec:	ffff ffff ffff ffff ffff ffff ffff ffff     ................
    eefc:	ffff ffff ffff ffff ffff ffff ffff ffff     ................
    ef0c:	ffff ffff ffff ffff ffff ffff ffff ffff     ................
    ef1c:	ffff ffff ffff ffff ffff ffff ffff ffff     ................
    ef2c:	ffff ffff ffff ffff ffff ffff ffff ffff     ................
    ef3c:	ffff ffff ffff ffff ffff ffff ffff ffff     ................
    ef4c:	ffff ffff ffff ffff ffff ffff ffff ffff     ................
    ef5c:	ffff ffff ffff ffff ffff ffff ffff ffff     ................
    ef6c:	ffff ffff ffff ffff ffff ffff ffff ffff     ................
    ef7c:	ffff ffff ffff ffff ffff ffff ffff ffff     ................
    ef8c:	ffff ffff ffff ffff ffff ffff ffff ffff     ................
    ef9c:	ffff ffff ffff ffff ffff ffff ffff ffff     ................
    efac:	ffff ffff ffff ffff ffff ffff ffff ffff     ................
    efbc:	ffff ffff ffff ffff ffff ffff ffff ffff     ................
    efcc:	ffff ffff ffff ffff ffff ffff ffff ffff     ................
    efdc:	ffff ffff ffff ffff ffff ffff ffff ffff     ................
    efec:	ffff ffff ffff ffff ffff ffff ffff ffff     ................
    effc:	ffff ffff ffff ffff ffff ffff ffff ffff     ................
    f00c:	ffff ffff ffff ffff ffff ffff ffff ffff     ................
    f01c:	ffff ffff ffff ffff ffff ffff ffff ffff     ................
    f02c:	ffff ffff ffff ffff ffff ffff ffff ffff     ................
    f03c:	ffff ffff ffff ffff ffff ffff ffff ffff     ................
    f04c:	ffff ffff ffff ffff ffff ffff ffff ffff     ................
    f05c:	ffff ffff ffff ffff ffff ffff ffff ffff     ................
    f06c:	ffff ffff ffff ffff ffff ffff ffff ffff     ................
    f07c:	ffff ffff ffff ffff ffff ffff ffff ffff     ................
    f08c:	ffff ffff ffff ffff ffff ffff ffff ffff     ................
    f09c:	ffff ffff ffff ffff ffff ffff ffff ffff     ................
    f0ac:	ffff ffff ffff ffff ffff ffff ffff ffff     ................
    f0bc:	ffff ffff ffff ffff ffff ffff ffff ffff     ................
    f0cc:	ffff ffff ffff ffff ffff ffff ffff ffff     ................
    f0dc:	ffff ffff ffff ffff ffff ffff ffff ffff     ................
    f0ec:	ffff ffff ffff ffff ffff ffff ffff ffff     ................
    f0fc:	ffff ffff ffff ffff ffff ffff ffff ffff     ................
    f10c:	ffff ffff ffff ffff ffff ffff ffff ffff     ................
    f11c:	ffff ffff ffff ffff ffff ffff ffff ffff     ................
    f12c:	ffff ffff ffff ffff ffff ffff ffff ffff     ................
    f13c:	ffff ffff ffff ffff ffff ffff ffff ffff     ................
    f14c:	ffff ffff ffff ffff ffff ffff ffff ffff     ................
    f15c:	ffff ffff ffff ffff ffff ffff ffff ffff     ................
    f16c:	ffff ffff ffff ffff ffff ffff ffff ffff     ................
    f17c:	ffff ffff ffff ffff ffff ffff ffff ffff     ................
    f18c:	ffff ffff ffff ffff ffff ffff ffff ffff     ................
    f19c:	ffff ffff ffff ffff ffff ffff ffff ffff     ................
    f1ac:	ffff ffff ffff ffff ffff ffff ffff ffff     ................
    f1bc:	ffff ffff ffff ffff ffff ffff ffff ffff     ................
    f1cc:	ffff ffff ffff ffff ffff ffff ffff ffff     ................
    f1dc:	ffff ffff ffff ffff ffff ffff ffff ffff     ................
    f1ec:	ffff ffff ffff ffff ffff ffff ffff ffff     ................
    f1fc:	ffff ffff ffff ffff ffff ffff ffff ffff     ................
    f20c:	ffff ffff ffff ffff ffff ffff ffff ffff     ................
    f21c:	ffff ffff ffff ffff ffff ffff ffff ffff     ................
    f22c:	ffff ffff ffff ffff ffff ffff ffff ffff     ................
    f23c:	ffff ffff ffff ffff ffff ffff ffff ffff     ................
    f24c:	ffff ffff ffff ffff ffff ffff ffff ffff     ................
    f25c:	ffff ffff ffff ffff ffff ffff ffff ffff     ................
    f26c:	ffff ffff ffff ffff ffff ffff ffff ffff     ................
    f27c:	ffff ffff ffff ffff ffff ffff ffff ffff     ................
    f28c:	ffff ffff ffff ffff ffff ffff ffff ffff     ................
    f29c:	ffff ffff ffff ffff ffff ffff ffff ffff     ................
    f2ac:	ffff ffff ffff ffff ffff ffff ffff ffff     ................
    f2bc:	ffff ffff ffff ffff ffff ffff ffff ffff     ................
    f2cc:	ffff ffff ffff ffff ffff ffff ffff ffff     ................
    f2dc:	ffff ffff ffff ffff ffff ffff ffff ffff     ................
    f2ec:	ffff ffff ffff ffff ffff ffff ffff ffff     ................
    f2fc:	ffff ffff ffff ffff ffff ffff ffff ffff     ................
    f30c:	ffff ffff ffff ffff ffff ffff ffff ffff     ................
    f31c:	ffff ffff ffff ffff ffff ffff ffff ffff     ................
    f32c:	ffff ffff ffff ffff ffff ffff ffff ffff     ................
    f33c:	ffff ffff ffff ffff ffff ffff ffff ffff     ................
    f34c:	ffff ffff ffff ffff ffff ffff ffff ffff     ................
    f35c:	ffff ffff ffff ffff ffff ffff ffff ffff     ................
    f36c:	ffff ffff ffff ffff ffff ffff ffff ffff     ................
    f37c:	ffff ffff ffff ffff ffff ffff ffff ffff     ................
    f38c:	ffff ffff ffff ffff ffff ffff ffff ffff     ................
    f39c:	ffff ffff ffff ffff ffff ffff ffff ffff     ................
    f3ac:	ffff ffff ffff ffff ffff ffff ffff ffff     ................
    f3bc:	ffff ffff ffff ffff ffff ffff ffff ffff     ................
    f3cc:	ffff ffff ffff ffff ffff ffff ffff ffff     ................
    f3dc:	ffff ffff ffff ffff ffff ffff ffff ffff     ................
    f3ec:	ffff ffff ffff ffff ffff ffff ffff ffff     ................
    f3fc:	ffff ffff ffff ffff ffff ffff ffff ffff     ................
    f40c:	ffff ffff ffff ffff ffff ffff ffff ffff     ................
    f41c:	ffff ffff ffff ffff ffff ffff ffff ffff     ................
    f42c:	ffff ffff ffff ffff ffff ffff ffff ffff     ................
    f43c:	ffff ffff ffff ffff ffff ffff ffff ffff     ................
    f44c:	ffff ffff ffff ffff ffff ffff ffff ffff     ................
    f45c:	ffff ffff ffff ffff ffff ffff ffff ffff     ................
    f46c:	ffff ffff ffff ffff ffff ffff ffff ffff     ................
    f47c:	ffff ffff ffff ffff ffff ffff ffff ffff     ................
    f48c:	ffff ffff ffff ffff ffff ffff ffff ffff     ................
    f49c:	ffff ffff ffff ffff ffff ffff ffff ffff     ................
    f4ac:	ffff ffff ffff ffff ffff ffff ffff ffff     ................
    f4bc:	ffff ffff ffff ffff ffff ffff ffff ffff     ................
    f4cc:	ffff ffff ffff ffff ffff ffff ffff ffff     ................
    f4dc:	ffff ffff ffff ffff ffff ffff ffff ffff     ................
    f4ec:	ffff ffff ffff ffff ffff ffff ffff ffff     ................
    f4fc:	ffff ffff ffff ffff ffff ffff ffff ffff     ................
    f50c:	ffff ffff ffff ffff ffff ffff ffff ffff     ................
    f51c:	ffff ffff ffff ffff ffff ffff ffff ffff     ................
    f52c:	ffff ffff ffff ffff ffff ffff ffff ffff     ................
    f53c:	ffff ffff ffff ffff ffff ffff ffff ffff     ................
    f54c:	ffff ffff ffff ffff ffff ffff ffff ffff     ................
    f55c:	ffff ffff ffff ffff ffff ffff ffff ffff     ................
    f56c:	ffff ffff ffff ffff ffff ffff ffff ffff     ................
    f57c:	ffff ffff ffff ffff ffff ffff ffff ffff     ................
    f58c:	ffff ffff ffff ffff ffff ffff ffff ffff     ................
    f59c:	ffff ffff ffff ffff ffff ffff ffff ffff     ................
    f5ac:	ffff ffff ffff ffff ffff ffff ffff ffff     ................
    f5bc:	ffff ffff ffff ffff ffff ffff ffff ffff     ................
    f5cc:	ffff ffff ffff ffff ffff ffff ffff ffff     ................
    f5dc:	ffff ffff ffff ffff ffff ffff ffff ffff     ................
    f5ec:	ffff ffff ffff ffff ffff ffff ffff ffff     ................
    f5fc:	ffff ffff ffff ffff ffff ffff ffff ffff     ................
    f60c:	ffff ffff ffff ffff ffff ffff ffff ffff     ................
    f61c:	ffff ffff ffff ffff ffff ffff ffff ffff     ................
    f62c:	ffff ffff ffff ffff ffff ffff ffff ffff     ................
    f63c:	ffff ffff ffff ffff ffff ffff ffff ffff     ................
    f64c:	ffff ffff ffff ffff ffff ffff ffff ffff     ................
    f65c:	ffff ffff ffff ffff ffff ffff ffff ffff     ................
    f66c:	ffff ffff ffff ffff ffff ffff ffff ffff     ................
    f67c:	ffff ffff ffff ffff ffff ffff ffff ffff     ................
    f68c:	ffff ffff ffff ffff ffff ffff ffff ffff     ................
    f69c:	ffff ffff ffff ffff ffff ffff ffff ffff     ................
    f6ac:	ffff ffff ffff ffff ffff ffff ffff ffff     ................
    f6bc:	ffff ffff ffff ffff ffff ffff ffff ffff     ................
    f6cc:	ffff ffff ffff ffff ffff ffff ffff ffff     ................
    f6dc:	ffff ffff ffff ffff ffff ffff ffff ffff     ................
    f6ec:	ffff ffff ffff ffff ffff ffff ffff ffff     ................
    f6fc:	ffff ffff ffff ffff ffff ffff ffff ffff     ................
    f70c:	ffff ffff ffff ffff ffff ffff ffff ffff     ................
    f71c:	ffff ffff ffff ffff ffff ffff ffff ffff     ................
    f72c:	ffff ffff ffff ffff ffff ffff ffff ffff     ................
    f73c:	ffff ffff ffff ffff ffff ffff ffff ffff     ................
    f74c:	ffff ffff ffff ffff ffff ffff ffff ffff     ................
    f75c:	ffff ffff ffff ffff ffff ffff ffff ffff     ................
    f76c:	ffff ffff ffff ffff ffff ffff ffff ffff     ................
    f77c:	ffff ffff ffff ffff ffff ffff ffff ffff     ................
    f78c:	ffff ffff ffff ffff ffff ffff ffff ffff     ................
    f79c:	ffff ffff ffff ffff ffff ffff ffff ffff     ................
    f7ac:	ffff ffff ffff ffff ffff ffff ffff ffff     ................
    f7bc:	ffff ffff ffff ffff ffff ffff ffff ffff     ................
    f7cc:	ffff ffff ffff ffff ffff ffff ffff ffff     ................
    f7dc:	ffff ffff ffff ffff ffff ffff ffff ffff     ................
    f7ec:	ffff ffff ffff ffff ffff ffff ffff ffff     ................
    f7fc:	ffff ffff ffff ffff ffff ffff ffff ffff     ................
    f80c:	ffff ffff ffff ffff ffff ffff ffff ffff     ................
    f81c:	ffff ffff ffff ffff ffff ffff ffff ffff     ................
    f82c:	ffff ffff ffff ffff ffff ffff ffff ffff     ................
    f83c:	ffff ffff ffff ffff ffff ffff ffff ffff     ................
    f84c:	ffff ffff ffff ffff ffff ffff ffff ffff     ................
    f85c:	ffff ffff ffff ffff ffff ffff ffff ffff     ................
    f86c:	ffff ffff ffff ffff ffff ffff ffff ffff     ................
    f87c:	ffff ffff ffff ffff ffff ffff ffff ffff     ................
    f88c:	ffff ffff ffff ffff ffff ffff ffff ffff     ................
    f89c:	ffff ffff ffff ffff ffff ffff ffff ffff     ................
    f8ac:	ffff ffff ffff ffff ffff ffff ffff ffff     ................
    f8bc:	ffff ffff ffff ffff ffff ffff ffff ffff     ................
    f8cc:	ffff ffff ffff ffff ffff ffff ffff ffff     ................
    f8dc:	ffff ffff ffff ffff ffff ffff ffff ffff     ................
    f8ec:	ffff ffff ffff ffff ffff ffff ffff ffff     ................
    f8fc:	ffff ffff ffff ffff ffff ffff ffff ffff     ................
    f90c:	ffff ffff ffff ffff ffff ffff ffff ffff     ................
    f91c:	ffff ffff ffff ffff ffff ffff ffff ffff     ................
    f92c:	ffff ffff ffff ffff ffff ffff ffff ffff     ................
    f93c:	ffff ffff ffff ffff ffff ffff ffff ffff     ................
    f94c:	ffff ffff ffff ffff ffff ffff ffff ffff     ................
    f95c:	ffff ffff ffff ffff ffff ffff ffff ffff     ................
    f96c:	ffff ffff ffff ffff ffff ffff ffff ffff     ................
    f97c:	ffff ffff ffff ffff ffff ffff ffff ffff     ................
    f98c:	ffff ffff ffff ffff ffff ffff ffff ffff     ................
    f99c:	ffff ffff ffff ffff ffff ffff ffff ffff     ................
    f9ac:	ffff ffff ffff ffff ffff ffff ffff ffff     ................
    f9bc:	ffff ffff ffff ffff ffff ffff ffff ffff     ................
    f9cc:	ffff ffff ffff ffff ffff ffff ffff ffff     ................
    f9dc:	ffff ffff ffff ffff ffff ffff ffff ffff     ................
    f9ec:	ffff ffff ffff ffff ffff ffff ffff ffff     ................
    f9fc:	ffff ffff ffff ffff ffff ffff ffff ffff     ................
    fa0c:	ffff ffff ffff ffff ffff ffff ffff ffff     ................
    fa1c:	ffff ffff ffff ffff ffff ffff ffff ffff     ................
    fa2c:	ffff ffff ffff ffff ffff ffff ffff ffff     ................
    fa3c:	ffff ffff ffff ffff ffff ffff ffff ffff     ................
    fa4c:	ffff ffff ffff ffff ffff ffff ffff ffff     ................
    fa5c:	ffff ffff ffff ffff ffff ffff ffff ffff     ................
    fa6c:	ffff ffff ffff ffff ffff ffff ffff ffff     ................
    fa7c:	ffff ffff ffff ffff ffff ffff ffff ffff     ................
    fa8c:	ffff ffff ffff ffff ffff ffff ffff ffff     ................
    fa9c:	ffff ffff ffff ffff ffff ffff ffff ffff     ................
    faac:	ffff ffff ffff ffff ffff ffff ffff ffff     ................
    fabc:	ffff ffff ffff ffff ffff ffff ffff ffff     ................
    facc:	ffff ffff ffff ffff ffff ffff ffff ffff     ................
    fadc:	ffff ffff ffff ffff ffff ffff ffff ffff     ................
    faec:	ffff ffff ffff ffff ffff ffff ffff ffff     ................
    fafc:	ffff ffff ffff ffff ffff ffff ffff ffff     ................
    fb0c:	ffff ffff ffff ffff ffff ffff ffff ffff     ................
    fb1c:	ffff ffff ffff ffff ffff ffff ffff ffff     ................
    fb2c:	ffff ffff ffff ffff ffff ffff ffff ffff     ................
    fb3c:	ffff ffff ffff ffff ffff ffff ffff ffff     ................
    fb4c:	ffff ffff ffff ffff ffff ffff ffff ffff     ................
    fb5c:	ffff ffff ffff ffff ffff ffff ffff ffff     ................
    fb6c:	ffff ffff ffff ffff ffff ffff ffff ffff     ................
    fb7c:	ffff ffff ffff ffff ffff ffff ffff ffff     ................
    fb8c:	ffff ffff ffff ffff ffff ffff ffff ffff     ................
    fb9c:	ffff ffff ffff ffff ffff ffff ffff ffff     ................
    fbac:	ffff ffff ffff ffff ffff ffff ffff ffff     ................
    fbbc:	ffff ffff ffff ffff ffff ffff ffff ffff     ................
    fbcc:	ffff ffff ffff ffff ffff ffff ffff ffff     ................
    fbdc:	ffff ffff ffff ffff ffff ffff ffff ffff     ................
    fbec:	ffff ffff ffff ffff ffff ffff ffff ffff     ................
    fbfc:	ffff ffff ffff ffff ffff ffff ffff ffff     ................
    fc0c:	ffff ffff ffff ffff ffff ffff ffff ffff     ................
    fc1c:	ffff ffff ffff ffff ffff ffff ffff ffff     ................
    fc2c:	ffff ffff ffff ffff ffff ffff ffff ffff     ................
    fc3c:	ffff ffff ffff ffff ffff ffff ffff ffff     ................
    fc4c:	ffff ffff ffff ffff ffff ffff ffff ffff     ................
    fc5c:	ffff ffff ffff ffff ffff ffff ffff ffff     ................
    fc6c:	ffff ffff ffff ffff ffff ffff ffff ffff     ................
    fc7c:	ffff ffff ffff ffff ffff ffff ffff ffff     ................
    fc8c:	ffff ffff ffff ffff ffff ffff ffff ffff     ................
    fc9c:	ffff ffff ffff ffff ffff ffff ffff ffff     ................
    fcac:	ffff ffff ffff ffff ffff ffff ffff ffff     ................
    fcbc:	ffff ffff ffff ffff ffff ffff ffff ffff     ................
    fccc:	ffff ffff ffff ffff ffff ffff ffff ffff     ................
    fcdc:	ffff ffff ffff ffff ffff ffff ffff ffff     ................
    fcec:	ffff ffff ffff ffff ffff ffff ffff ffff     ................
    fcfc:	ffff ffff ffff ffff ffff ffff ffff ffff     ................
    fd0c:	ffff ffff ffff ffff ffff ffff ffff ffff     ................
    fd1c:	b294 55ad 55ad 55ad 55ad 75ad b6b5 b6b5     ...U.U.U.U.u....
    fd2c:	b6b5 b6b5 b6b5 b6b5 b6b5 b6b5 b6b5 b6b5     ................
    fd3c:	b6b5 b6b5 b6b5 b6b5 b6b5 b6b5 b6b5 b6b5     ................
    fd4c:	b6b5 b6b5 b6b5 b6b5 b6b5 b6b5 b6b5 b6b5     ................
    fd5c:	b6b5 55ad 14a5 b6b5 b6b5 b6b5 b6b5 b6b5     ...U............
    fd6c:	b6b5 b6b5 b6b5 b6b5 b6b5 b6b5 b6b5 b6b5     ................
    fd7c:	b6b5 b6b5 b6b5 b6b5 b6b5 b6b5 b6b5 b6b5     ................
    fd8c:	b6b5 b6b5 b6b5 b6b5 b6b5 b6b5 b6b5 b6b5     ................
    fd9c:	b6b5 b6b5 b6b5 b6b5 b294 b6b5 b6b5 b6b5     ................
    fdac:	b6b5 b6b5 b6b5 b6b5 b6b5 b6b5 b6b5 b6b5     ................
    fdbc:	b6b5 b6b5 b6b5 b6b5 b6b5 b6b5 b6b5 b6b5     ................
    fdcc:	b6b5 b6b5 b6b5 b6b5 b6b5 b6b5 b6b5 b6b5     ................
    fddc:	b6b5 b6b5 b6b5 b6b5 b6b5 b6b5 b294 b6b5     ................
    fdec:	b6b5 b6b5 b6b5 b6b5 b6b5 b6b5 b6b5 b6b5     ................
    fdfc:	b6b5 b6b5 b6b5 b6b5 b6b5 b6b5 b6b5 b6b5     ................
    fe0c:	b6b5 b6b5 b6b5 b6b5 b6b5 b6b5 b6b5 b6b5     ................
    fe1c:	b6b5 ffff ffff ffff ffff ffff ffff ffff     ................
    fe2c:	ffff ffff ffff ffff ffff ffff ffff ffff     ................
    fe3c:	ffff ffff ffff ffff ffff ffff ffff ffff     ................
    fe4c:	ffff ffff ffff ffff ffff ffff ffff ffff     ................
    fe5c:	ffff 1ce7 38c6 ffff ffff ffff ffff ffff     .....8..........
    fe6c:	ffff ffff ffff ffff ffff ffff ffff ffff     ................
    fe7c:	ffff ffff ffff ffff ffff ffff ffff ffff     ................
    fe8c:	ffff ffff ffff ffff ffff ffff ffff ffff     ................
    fe9c:	ffff ffff ffff ffff b6b5 ffff ffff ffff     ................
    feac:	ffff ffff ffff ffff ffff ffff ffff ffff     ................
    febc:	ffff ffff ffff ffff ffff ffff ffff ffff     ................
    fecc:	ffff ffff ffff ffff ffff ffff ffff ffff     ................
    fedc:	ffff ffff ffff ffff ffff ffff b6b5 ffff     ................
    feec:	ffff ffff ffff ffff ffff ffff ffff ffff     ................
    fefc:	ffff ffff ffff ffff ffff ffff ffff ffff     ................
    ff0c:	ffff ffff ffff ffff ffff ffff ffff ffff     ................
    ff1c:	d7bd ffff ffff ffff ffff ffff ffff ffff     ................
    ff2c:	ffff ffff ffff ffff ffff ffff ffff ffff     ................
    ff3c:	ffff ffff ffff ffff ffff ffff ffff ffff     ................
    ff4c:	ffff ffff ffff ffff ffff ffff ffff ffff     ................
    ff5c:	ffff 1ce7 38c6 ffff ffff ffff ffff ffff     .....8..........
    ff6c:	ffff ffff ffff ffff ffff ffff ffff ffff     ................
    ff7c:	ffff ffff ffff ffff ffff ffff ffff ffff     ................
    ff8c:	ffff ffff ffff ffff ffff ffff ffff ffff     ................
    ff9c:	ffff ffff ffff ffff b6b5 ffff ffff ffff     ................
    ffac:	ffff ffff ffff ffff ffff ffff ffff ffff     ................
    ffbc:	ffff ffff ffff ffff ffff ffff ffff ffff     ................
    ffcc:	ffff ffff ffff ffff ffff ffff ffff ffff     ................
    ffdc:	ffff ffff ffff ffff ffff ffff b6b5 ffff     ................
    ffec:	ffff ffff ffff ffff ffff ffff ffff 7dff     ...............}
    fffc:	ffff ffff ffff ffff ffff ffff ffff ffff     ................
   1000c:	ffff ffff ffff ffff ffff ffff ffff ffff     ................
   1001c:	d7bd ffff ffff ffff ffff ffff ffff ffff     ................
   1002c:	ffff ffff ffff ffff ffff ffff ffff ffff     ................
   1003c:	ffff ffff ffff ffff ffff ffff ffff ffff     ................
   1004c:	ffff ffff ffff ffff ffff ffff ffff ffff     ................
   1005c:	ffff 1ce7 38c6 ffff ffff ffff ffff ffff     .....8..........
   1006c:	ffff ffff ffff ffff ffff ffff ffff ffff     ................
   1007c:	ffff ffff ffff ffff ffff ffff ffff ffff     ................
   1008c:	ffff ffff ffff ffff ffff ffff ffff ffff     ................
   1009c:	ffff ffff ffff ffff b6b5 ffff ffff ffff     ................
   100ac:	ffff ffff ffff ffff ffff ffff ffff ffff     ................
   100bc:	ffff ffff ffff ffff ffff ffff ffff ffff     ................
   100cc:	ffff ffff ffff ffff ffff ffff ffff ffff     ................
   100dc:	ffff ffff ffff ffff ffff ffff b6b5 ffff     ................
   100ec:	ffff ffff ffff ffff 5cff 1cff 7dff b0fc     .........\...}..
   100fc:	b0fb 9eff 9eff bafe bfff bafe 74fd 34fd     .............t.4
   1010c:	d3fc 18fe 79fe 58fe 6efb ddfe ffff ffff     .....y.X.n......
   1011c:	d7bd ffff ffff ffff ffff ffff 7cff 34fd     .............|.4
   1012c:	7eff ffff ffff ffff ffff ffff ffff ffff     .~..............
   1013c:	ffff ffff ffff ffff ffff ffff ffff ffff     ................
   1014c:	ffff ffff ffff ffff ffff ffff ffff ffff     ................
   1015c:	ffff 1ce7 38c6 ffff ffff ffff ffff deff     .....8..........
   1016c:	b5fd d3fc 3dff ffff ffff ffff ffff ffff     .....=..........
   1017c:	ffff ffff ffff ffff ffff ffff ffff ffff     ................
   1018c:	ffff ffff ffff ffff ffff ffff ffff ffff     ................
   1019c:	ffff ffff ffff ffff b6b5 ffff ffff ffff     ................
   101ac:	ffff ffff 58fe 92fc 59fe ffff ffff ffff     .....X...Y......
   101bc:	ffff ffff ffff ffff ffff ffff ffff ffff     ................
   101cc:	ffff ffff ffff ffff ffff ffff ffff ffff     ................
   101dc:	ffff ffff ffff ffff ffff ffff b6b5 ffff     ................
   101ec:	ffff ffff ffff ffff 2afb 37fd fbfe 70fc     .........*.7...p
   101fc:	97fd 17fe 75fd 69fa ddfe dfff 6bfb f6fc     .....u.i.....k..
   1020c:	dfff d5fd 56fd bdff 29fa 7fff ffff ffff     .....V...)......
   1021c:	d7bd ffff ffff ffff ffff 57fe a4f9 00f8     ...........W....
   1022c:	7cfe ffff ffff ffff ffff ffff ffff ffff     .|..............
   1023c:	ffff ffff ffff ffff ffff ffff ffff ffff     ................
   1024c:	ffff ffff ffff ffff ffff ffff ffff ffff     ................
   1025c:	ffff 1ce7 38c6 ffff ffff ffff ffff 11fd     .....8..........
   1026c:	2dfb a4f9 05f9 5eff ffff ffff ffff ffff     .-.....^........
   1027c:	ffff ffff ffff ffff ffff ffff ffff ffff     ................
   1028c:	ffff ffff ffff ffff ffff ffff ffff ffff     ................
   1029c:	ffff ffff ffff ffff b6b5 ffff ffff ffff     ................
   102ac:	ffff 98fe abfa 6cfb 41f8 d9fd ffff ffff     .......l.A......
   102bc:	ffff ffff ffff ffff ffff ffff ffff ffff     ................
   102cc:	ffff ffff ffff ffff ffff ffff ffff ffff     ................
   102dc:	ffff ffff ffff ffff ffff ffff b6b5 ffff     ................
   102ec:	ffff ffff ffff deff 96fd 3dff 75fd 6dfb     ...........=.u.m
   102fc:	72fc abfa d4fc 7eff ffff ffff ebfa 5afe     .r.....~.......Z
   1030c:	9eff 6ffc b5fc bcff abfa ffff ffff ffff     ...o............
   1031c:	d7bd ffff ffff ffff ffff dafe b5fd a1f8     ................
   1032c:	7cfe ffff ffff ffff ffff ffff ffff ffff     .|..............
   1033c:	ffff ffff ffff ffff ffff ffff ffff ffff     ................
   1034c:	ffff ffff ffff ffff ffff ffff ffff ffff     ................
   1035c:	ffff 1ce7 38c6 ffff ffff ffff ffff 9eff     .....8..........
   1036c:	ffff 92fd 00f8 bcfe ffff ffff ffff ffff     ................
   1037c:	ffff ffff ffff ffff ffff ffff ffff ffff     ................
   1038c:	ffff ffff ffff ffff ffff ffff ffff ffff     ................
   1039c:	ffff ffff ffff ffff b6b5 ffff ffff ffff     ................
   103ac:	ffff beff ffff ddff 60f8 f6fc ffff ffff     .........`......
   103bc:	ffff ffff ffff ffff ffff ffff ffff ffff     ................
   103cc:	ffff ffff ffff ffff ffff ffff ffff ffff     ................
   103dc:	ffff ffff ffff ffff ffff ffff b6b5 ffff     ................
   103ec:	ffff ffff ffff ffff 97fe 6efb a9fa 10fc     ...........n....
   103fc:	2cfb 5afe 74fd acfa dfff 97fe c9f9 2ffc     .,.Z.t........./
   1040c:	f5fc edfb 78fd 97fe acfa dfff ffff ffff     .....x..........
   1041c:	d7bd ffff ffff ffff ffff ffff 5bff a1f8     .............[..
   1042c:	7cfe ffff ffff ffff ffff ffff ffff ffff     .|..............
   1043c:	ffff ffff ffff ffff ffff ffff ffff ffff     ................
   1044c:	ffff ffff ffff ffff ffff ffff ffff ffff     ................
   1045c:	ffff 1ce7 38c6 ffff ffff ffff ffff ffff     .....8..........
   1046c:	ffff 46fa c9f9 dfff ffff ffff ffff ffff     ...F............
   1047c:	ffff ffff ffff ffff ffff ffff ffff ffff     ................
   1048c:	ffff ffff ffff ffff ffff ffff ffff ffff     ................
   1049c:	ffff ffff ffff ffff b6b5 ffff ffff ffff     ................
   104ac:	ffff ffff 6bfb 24f9 47f9 7eff ffff ffff     .....k.$.G.~....
   104bc:	ffff ffff ffff ffff ffff ffff ffff ffff     ................
   104cc:	ffff ffff ffff ffff ffff ffff ffff ffff     ................
   104dc:	ffff ffff ffff ffff ffff ffff b6b5 ffff     ................
   104ec:	ffff ffff ffff dfff b4fd 92fc a4f9 4afa     ...............J
   104fc:	17fe 6cfb 19fe 34fd dfff edfb 2bfa 33fd     ...l...4.....+.3
   1050c:	f5fc f2fc 97fd f7fd 70fc 2dfb dfff ffff     .........p.-....
   1051c:	d7bd ffff ffff ffff ffff ffff 9bff a1f8     ................
   1052c:	bcfe ffff ffff ffff ffff ffff ffff ffff     ................
   1053c:	ffff ffff ffff ffff ffff ffff ffff ffff     ................
   1054c:	ffff ffff ffff ffff ffff ffff ffff ffff     ................
   1055c:	ffff 1ce7 38c6 ffff ffff ffff ffff ffff     .....8..........
   1056c:	2dfc c4f8 1eff ffff ffff ffff ffff ffff     .-..............
   1057c:	ffff ffff ffff ffff ffff ffff ffff ffff     ................
   1058c:	ffff ffff ffff ffff ffff ffff ffff ffff     ................
   1059c:	ffff ffff ffff ffff b6b5 ffff ffff ffff     ................
   105ac:	ffff ffff 5cff 98fe 23f9 0ffb ffff ffff     .....\...#......
   105bc:	ffff ffff ffff ffff ffff ffff ffff ffff     ................
   105cc:	ffff ffff ffff ffff ffff ffff ffff ffff     ................
   105dc:	ffff ffff ffff ffff ffff ffff b6b5 ffff     ................
   105ec:	ffff ffff ffff beff 9afe f7fd dbfe 12fd     ................
   105fc:	11fc bafe bafe ffff ffff 98fe 4ffb 12fd     .............O..
   1060c:	f1fb 5dff 5dff 79fe 74fd edfa ffff ffff     ...].].y.t......
   1061c:	d7bd ffff ffff ffff ffff 5cff 73fd 00f8     ...........\.s..
   1062c:	94fc 5dff ffff ffff ffff ffff ffff ffff     ...]............
   1063c:	ffff ffff ffff ffff ffff ffff ffff ffff     ................
   1064c:	ffff ffff ffff ffff ffff ffff ffff ffff     ................
   1065c:	ffff 1ce7 38c6 ffff ffff ffff ffff d0fc     .....8..........
   1066c:	00f8 53fc 38fe 5dff ffff ffff ffff ffff     ...S.8.]........
   1067c:	ffff ffff ffff ffff ffff ffff ffff ffff     ................
   1068c:	ffff ffff ffff ffff ffff ffff ffff ffff     ................
   1069c:	ffff ffff ffff ffff b6b5 ffff ffff ffff     ................
   106ac:	ffff 98fe 96fd f7fd 60f8 50fb ffff ffff     .........`.P....
   106bc:	ffff ffff ffff ffff ffff ffff ffff ffff     ................
   106cc:	ffff ffff ffff ffff ffff ffff ffff ffff     ................
   106dc:	ffff ffff ffff ffff ffff ffff b6b5 ffff     ................
   106ec:	ffff ffff ffff ffff bdff abfa ffff 11fd     ................
   106fc:	33fc ffff 2afb 7bfe ffff bdff ebfa adfb     .3...*.{........
   1070c:	4ffb bafe bafe 59fe b0fc 90fb ffff ffff     .O.....Y........
   1071c:	d7bd ffff ffff ffff ffff 36fe 69fa 8afa     ...........6.i..
   1072c:	69fa 3afe ffff ffff ffff ffff ffff ffff     .i.:............
   1073c:	ffff ffff ffff ffff ffff ffff ffff ffff     ................
   1074c:	ffff ffff ffff ffff ffff ffff ffff ffff     ................
   1075c:	ffff 1ce7 38c6 ffff ffff ffff ffff 6ffc     .....8.........o
   1076c:	8afa 8afa 69fa 3afe ffff ffff ffff ffff     .....i.:........
   1077c:	ffff ffff ffff ffff ffff ffff ffff ffff     ................
   1078c:	ffff ffff ffff ffff ffff ffff ffff ffff     ................
   1079c:	ffff ffff ffff ffff b6b5 ffff ffff ffff     ................
   107ac:	ffff 98fe 0bfb 69fa 51fc bfff ffff ffff     .......i.Q......
   107bc:	ffff ffff ffff ffff ffff ffff ffff ffff     ................
   107cc:	ffff ffff ffff ffff ffff ffff ffff ffff     ................
   107dc:	ffff ffff ffff ffff ffff ffff b6b5 ffff     ................
   107ec:	ffff ffff ffff ffff 7cff 29fa 9afe 2ffc     .........|.).../
   107fc:	f1fb 9afe e8f9 bcfe ffff 5bff 2dfb 79fe     ...........[.-.y
   1080c:	9bfe ffff ffff 17fe cafa b5fc ffff ffff     ................
   1081c:	d7bd ffff ffff ffff ffff ffff ffff ffff     ................
   1082c:	ffff ffff ffff ffff ffff ffff ffff ffff     ................
   1083c:	ffff ffff ffff ffff ffff ffff ffff ffff     ................
   1084c:	ffff ffff ffff ffff ffff ffff ffff ffff     ................
   1085c:	ffff 1ce7 38c6 ffff ffff ffff ffff ffff     .....8..........
   1086c:	ffff ffff ffff ffff ffff ffff ffff ffff     ................
   1087c:	ffff ffff ffff ffff ffff ffff ffff ffff     ................
   1088c:	ffff ffff ffff ffff ffff ffff ffff ffff     ................
   1089c:	ffff ffff ffff ffff b6b5 ffff ffff ffff     ................
   108ac:	ffff ffff ffff ffff ffff ffff ffff ffff     ................
   108bc:	ffff ffff ffff ffff ffff ffff ffff ffff     ................
   108cc:	ffff ffff ffff ffff ffff ffff ffff ffff     ................
   108dc:	ffff ffff ffff ffff ffff ffff b6b5 ffff     ................
   108ec:	ffff ffff ffff ffff deff dbfe 5dff 7dff     .............].}
   108fc:	7dff 5dff 34fd 5eff ffff ffff 9eff ffff     .}.].4.^........
   1090c:	ffff ffff ffff 1aff 51fc bfff ffff ffff     .........Q......
   1091c:	d7bd ffff ffff ffff ffff ffff ffff ffff     ................
   1092c:	ffff ffff ffff ffff ffff ffff ffff ffff     ................
   1093c:	ffff ffff ffff ffff ffff ffff ffff ffff     ................
   1094c:	ffff ffff ffff ffff ffff ffff ffff ffff     ................
   1095c:	ffff 1ce7 38c6 ffff ffff ffff ffff ffff     .....8..........
   1096c:	ffff ffff ffff ffff ffff ffff ffff ffff     ................
   1097c:	ffff ffff ffff ffff ffff ffff ffff ffff     ................
   1098c:	ffff ffff ffff ffff ffff ffff ffff ffff     ................
   1099c:	ffff ffff ffff ffff b6b5 ffff ffff ffff     ................
   109ac:	ffff ffff ffff ffff ffff ffff ffff ffff     ................
   109bc:	ffff ffff ffff ffff ffff ffff ffff ffff     ................
   109cc:	ffff ffff ffff ffff ffff ffff ffff ffff     ................
   109dc:	ffff ffff ffff ffff ffff ffff b6b5 ffff     ................
   109ec:	ffff ffff ffff ffff ffff ffff ffff ffff     ................
   109fc:	ffff ffff ffff ffff ffff ffff ffff ffff     ................
   10a0c:	ffff ffff ffff ffff ffff ffff ffff ffff     ................
   10a1c:	d7bd ffff ffff ffff ffff ffff ffff ffff     ................
   10a2c:	ffff ffff ffff ffff ffff ffff ffff ffff     ................
   10a3c:	ffff ffff ffff ffff ffff ffff ffff ffff     ................
   10a4c:	ffff ffff ffff ffff ffff ffff ffff ffff     ................
   10a5c:	ffff 1ce7 38c6 ffff ffff ffff ffff ffff     .....8..........
   10a6c:	ffff ffff ffff ffff ffff ffff ffff ffff     ................
   10a7c:	ffff ffff ffff ffff ffff ffff ffff ffff     ................
   10a8c:	ffff ffff ffff ffff ffff ffff ffff ffff     ................
   10a9c:	ffff ffff ffff ffff b6b5 ffff ffff ffff     ................
   10aac:	ffff ffff ffff ffff ffff ffff ffff ffff     ................
   10abc:	ffff ffff ffff ffff ffff ffff ffff ffff     ................
   10acc:	ffff ffff ffff ffff ffff ffff ffff ffff     ................
   10adc:	ffff ffff ffff ffff ffff ffff b6b5 ffff     ................
   10aec:	ffff ffff ffff ffff ffff ffff ffff ffff     ................
   10afc:	ffff ffff ffff ffff ffff ffff ffff ffff     ................
   10b0c:	ffff ffff ffff ffff ffff ffff ffff ffff     ................
   10b1c:	f7bd ffff ffff ffff ffff ffff ffff ffff     ................
   10b2c:	ffff ffff ffff ffff ffff ffff ffff ffff     ................
   10b3c:	ffff ffff ffff ffff ffff ffff ffff ffff     ................
   10b4c:	ffff ffff ffff ffff ffff ffff ffff ffff     ................
   10b5c:	ffff 5def 59ce ffff ffff ffff ffff ffff     ...].Y..........
   10b6c:	ffff ffff ffff ffff ffff ffff ffff ffff     ................
   10b7c:	ffff ffff ffff ffff ffff ffff ffff ffff     ................
   10b8c:	ffff ffff ffff ffff ffff ffff ffff ffff     ................
   10b9c:	ffff ffff ffff ffff f7bd ffff ffff ffff     ................
   10bac:	ffff ffff ffff ffff ffff ffff ffff ffff     ................
   10bbc:	ffff ffff ffff ffff ffff ffff ffff ffff     ................
   10bcc:	ffff ffff ffff ffff ffff ffff ffff ffff     ................
   10bdc:	ffff ffff ffff ffff ffff ffff f7bd ffff     ................
   10bec:	ffff ffff ffff ffff ffff ffff ffff ffff     ................
   10bfc:	ffff ffff ffff ffff ffff ffff ffff ffff     ................
   10c0c:	ffff ffff ffff ffff ffff ffff ffff ffff     ................
   10c1c:	518c f7bd f7bd f7bd f7bd f7bd f7bd f7bd     .Q..............
   10c2c:	f7bd f7bd f7bd f7bd f7bd f7bd f7bd f7bd     ................
   10c3c:	f7bd f7bd f7bd f7bd f7bd f7bd f7bd f7bd     ................
   10c4c:	f7bd f7bd f7bd f7bd f7bd f7bd f7bd f7bd     ................
   10c5c:	f7bd 55ad b294 f7bd f7bd f7bd f7bd f7bd     ...U............
   10c6c:	f7bd f7bd f7bd f7bd f7bd f7bd f7bd f7bd     ................
   10c7c:	f7bd f7bd f7bd f7bd f7bd f7bd f7bd f7bd     ................
   10c8c:	f7bd f7bd f7bd f7bd f7bd f7bd f7bd f7bd     ................
   10c9c:	f7bd f7bd f7bd f7bd 518c f7bd f7bd f7bd     .........Q......
   10cac:	f7bd f7bd f7bd f7bd f7bd f7bd f7bd f7bd     ................
   10cbc:	f7bd f7bd f7bd f7bd f7bd f7bd f7bd f7bd     ................
   10ccc:	f7bd f7bd f7bd f7bd f7bd f7bd f7bd f7bd     ................
   10cdc:	f7bd f7bd f7bd f7bd f7bd f7bd 518c f7bd     .............Q..
   10cec:	f7bd f7bd f7bd f7bd f7bd f7bd f7bd f7bd     ................
   10cfc:	f7bd f7bd f7bd f7bd f7bd f7bd f7bd f7bd     ................
   10d0c:	f7bd f7bd f7bd f7bd f7bd f7bd f7bd f7bd     ................
   10d1c:	75ad 7def 7def 7def 7def 7def 7def 7def     .u.}.}.}.}.}.}.}
   10d2c:	7def 7def 7def 7def 7def 7def 7def 7def     .}.}.}.}.}.}.}.}
   10d3c:	7def 7def 7def 7def 7def 7def 7def 7def     .}.}.}.}.}.}.}.}
   10d4c:	7def 7def 7def 7def 7def 7def 7def 7def     .}.}.}.}.}.}.}.}
   10d5c:	7def bad6 d7bd 7def 7def 7def 7def 7def     .}.....}.}.}.}.}
   10d6c:	7def 7def 7def 7def 7def 7def 7def 7def     .}.}.}.}.}.}.}.}
   10d7c:	7def 7def 7def 7def 7def 7def 7def 7def     .}.}.}.}.}.}.}.}
   10d8c:	7def 7def 7def 7def 7def 7def 7def 7def     .}.}.}.}.}.}.}.}
   10d9c:	7def 7def 7def 7def 55ad 7def 7def 7def     .}.}.}.}.U.}.}.}
   10dac:	7def 7def 7def 7def 7def 7def 7def 7def     .}.}.}.}.}.}.}.}
   10dbc:	7def 7def 7def 7def 7def 7def 7def 7def     .}.}.}.}.}.}.}.}
   10dcc:	7def 7def 7def 7def 7def 7def 7def 7def     .}.}.}.}.}.}.}.}
   10ddc:	7def 7def 7def 7def 7def 7def 55ad 7def     .}.}.}.}.}.}.U.}
   10dec:	7def 7def 7def 7def 7def 7def 7def 7def     .}.}.}.}.}.}.}.}
   10dfc:	7def 7def 7def 7def 7def 7def 7def 7def     .}.}.}.}.}.}.}.}
   10e0c:	7def 7def 7def 7def 7def 7def 7def 7def     .}.}.}.}.}.}.}.}
   10e1c:	f7bd ffff ffff ffff ffff ffff ffff ffff     ................
   10e2c:	ffff ffff ffff ffff ffff ffff ffff ffff     ................
   10e3c:	ffff ffff ffff ffff ffff ffff ffff ffff     ................
   10e4c:	ffff ffff ffff ffff ffff ffff ffff ffff     ................
   10e5c:	ffff 3ce7 38c6 ffff ffff ffff ffff ffff     ...<.8..........
   10e6c:	ffff ffff ffff ffff ffff ffff ffff ffff     ................
   10e7c:	ffff ffff ffff ffff ffff ffff ffff ffff     ................
   10e8c:	ffff ffff ffff ffff ffff ffff ffff ffff     ................
   10e9c:	ffff ffff ffff ffff d7bd ffff ffff ffff     ................
   10eac:	ffff ffff ffff ffff ffff ffff ffff ffff     ................
   10ebc:	ffff ffff ffff ffff ffff ffff ffff ffff     ................
   10ecc:	ffff ffff ffff ffff ffff ffff ffff ffff     ................
   10edc:	ffff ffff ffff ffff ffff ffff d7bd ffff     ................
   10eec:	ffff ffff ffff ffff ffff ffff ffff ffff     ................
   10efc:	ffff ffff ffff ffff ffff ffff ffff ffff     ................
   10f0c:	ffff ffff ffff ffff ffff ffff ffff ffff     ................
   10f1c:	d7bd ffff ffff ffff ffff ffff ffff ffff     ................
   10f2c:	ffff ffff ffff ffff ffff ffff ffff ffff     ................
   10f3c:	ffff ffff ffff ffff ffff ffff ffff ffff     ................
   10f4c:	ffff ffff ffff ffff ffff ffff ffff ffff     ................
   10f5c:	ffff 1ce7 38c6 ffff ffff ffff ffff ffff     .....8..........
   10f6c:	ffff ffff ffff ffff ffff ffff ffff ffff     ................
   10f7c:	ffff ffff ffff ffff ffff ffff ffff ffff     ................
   10f8c:	ffff ffff ffff ffff ffff ffff ffff ffff     ................
   10f9c:	ffff ffff ffff ffff b6b5 ffff ffff ffff     ................
   10fac:	ffff ffff ffff ffff ffff ffff ffff ffff     ................
   10fbc:	ffff ffff ffff ffff ffff ffff ffff ffff     ................
   10fcc:	ffff ffff ffff ffff ffff ffff ffff ffff     ................
   10fdc:	ffff ffff ffff ffff ffff ffff b6b5 ffff     ................
   10fec:	ffff ffff ffff ffff ffff b5fd fdfe fbfe     ................
   10ffc:	59fe ffff ffff dfff ffff ffff ffff 18fe     .Y..............
   1100c:	bfff deff 96fd bfff ffff ffff ffff ffff     ................
   1101c:	d7bd ffff ffff ffff ffff ffff ffff ffff     ................
   1102c:	ffff ffff ffff ffff ffff ffff ffff ffff     ................
   1103c:	ffff ffff ffff ffff ffff ffff ffff ffff     ................
   1104c:	ffff ffff ffff ffff ffff ffff ffff ffff     ................
   1105c:	ffff 1ce7 38c6 ffff ffff ffff ffff ffff     .....8..........
   1106c:	ffff ffff ffff ffff ffff ffff ffff ffff     ................
   1107c:	ffff ffff ffff ffff ffff ffff ffff ffff     ................
   1108c:	ffff ffff ffff ffff ffff ffff ffff ffff     ................
   1109c:	ffff ffff ffff ffff b6b5 ffff ffff ffff     ................
   110ac:	ffff ffff ffff ffff ffff ffff ffff ffff     ................
   110bc:	ffff ffff ffff ffff ffff ffff ffff ffff     ................
   110cc:	ffff ffff ffff ffff ffff ffff ffff ffff     ................
   110dc:	ffff ffff ffff ffff ffff ffff b6b5 ffff     ................
   110ec:	ffff ffff ffff ffff ffff 09fb b9fd 52fd     ...............R
   110fc:	4ffb dafe 2cfb 77fd ffff ffff 97fe 6bfa     .O...,.w.......k
   1110c:	bfff ffff acfb 53fc beff 9bfe ffff ffff     .......S........
   1111c:	d7bd ffff ffff ffff ffff ffff 7cff e7f9     .............|..
   1112c:	edfa ffff ffff ffff ffff ffff ffff ffff     ................
   1113c:	ffff ffff ffff ffff ffff ffff ffff ffff     ................
   1114c:	ffff ffff ffff ffff ffff ffff ffff ffff     ................
   1115c:	ffff 1ce7 38c6 ffff ffff ffff ffff 93fd     .....8..........
   1116c:	e7f9 e8f9 6bfa 9fff ffff ffff ffff ffff     .....k..........
   1117c:	ffff ffff ffff ffff ffff ffff ffff ffff     ................
   1118c:	ffff ffff ffff ffff ffff ffff ffff ffff     ................
   1119c:	ffff ffff ffff ffff b6b5 ffff ffff ffff     ................
   111ac:	ffff ffff 36fe 68fa e8f9 d9fd ffff ffff     .....6.h........
   111bc:	ffff ffff ffff ffff ffff ffff ffff ffff     ................
   111cc:	ffff ffff ffff ffff ffff ffff ffff ffff     ................
   111dc:	ffff ffff ffff ffff ffff ffff b6b5 ffff     ................
   111ec:	ffff ffff ffff beff 38fe a9fa 8ffb 0bfb     .........8......
   111fc:	ccfa 97fd dbfe 75fd 7fff ffff cefb 9bfe     .......u........
   1120c:	d3fc 51fc f7fd 33fd ebfa d4fc dfff ffff     ...Q...3........
   1121c:	d7bd ffff ffff ffff ffff ffff edfb 24f9     ...............$
   1122c:	47f9 ffff ffff ffff ffff ffff ffff ffff     .G..............
   1123c:	ffff ffff ffff ffff ffff ffff ffff ffff     ................
   1124c:	ffff ffff ffff ffff ffff ffff ffff ffff     ................
   1125c:	ffff 1ce7 38c6 ffff ffff ffff ffff 2dfc     .....8.........-
   1126c:	eaf9 5dff 5dff ffff ffff ffff ffff ffff     ...].]..........
   1127c:	ffff ffff ffff ffff ffff ffff ffff ffff     ................
   1128c:	ffff ffff ffff ffff ffff ffff ffff ffff     ................
   1129c:	ffff ffff ffff ffff b6b5 ffff ffff ffff     ................
   112ac:	ffff 5bff c2f8 36fd 3cff 3dff ffff ffff     ...[...6.<.=....
   112bc:	ffff ffff ffff ffff ffff ffff ffff ffff     ................
   112cc:	ffff ffff ffff ffff ffff ffff ffff ffff     ................
   112dc:	ffff ffff ffff ffff ffff ffff b6b5 ffff     ................
   112ec:	ffff ffff ffff ffff deff 6bfb 78fd 52fd     ...........k.x.R
   112fc:	acfa bafe 9afe 48fa 7cfe d0fc 4ffb cefb     .......H.|...O..
   1130c:	53fc f2fc 1eff f4fd 0efb ffff ffff ffff     .S..............
   1131c:	d7bd ffff ffff ffff ffff f9fe 2afa b0fc     .............*..
   1132c:	47f9 ffff ffff ffff ffff ffff ffff ffff     .G..............
   1133c:	ffff ffff ffff ffff ffff ffff ffff ffff     ................
   1134c:	ffff ffff ffff ffff ffff ffff ffff ffff     ................
   1135c:	ffff 1ce7 38c6 ffff ffff ffff ffff 4efc     .....8.........N
   1136c:	c4f8 cffb 19fe ffff ffff ffff ffff ffff     ................
   1137c:	ffff ffff ffff ffff ffff ffff ffff ffff     ................
   1138c:	ffff ffff ffff ffff ffff ffff ffff ffff     ................
   1139c:	ffff ffff ffff ffff b6b5 ffff ffff ffff     ................
   113ac:	ffff 92fd c4f8 51fc 32fc 7eff ffff ffff     .......Q.2.~....
   113bc:	ffff ffff ffff ffff ffff ffff ffff ffff     ................
   113cc:	ffff ffff ffff ffff ffff ffff ffff ffff     ................
   113dc:	ffff ffff ffff ffff ffff ffff b6b5 ffff     ................
   113ec:	ffff ffff ffff ffff beff 67fa 50fb dbfe     ...........g.P..
   113fc:	96fd 96fd 75fd f5fc beff 1cff 33fd 8ffb     .....u.......3..
   1140c:	ffff b4fd 77fd 2efc 37fd ffff ffff ffff     .....w...7......
   1141c:	d7bd ffff ffff ffff ffff 2afb 37fd 92fd     ...........*.7..
   1142c:	47f9 ffff ffff ffff ffff ffff ffff ffff     .G..............
   1143c:	ffff ffff ffff ffff ffff ffff ffff ffff     ................
   1144c:	ffff ffff ffff ffff ffff ffff ffff ffff     ................
   1145c:	ffff 1ce7 38c6 ffff ffff ffff ffff dafe     .....8..........
   1146c:	d3fc 6cfb 21f8 3afe ffff ffff ffff ffff     ...l.!.:........
   1147c:	ffff ffff ffff ffff ffff ffff ffff ffff     ................
   1148c:	ffff ffff ffff ffff ffff ffff ffff ffff     ................
   1149c:	ffff ffff ffff ffff b6b5 ffff ffff ffff     ................
   114ac:	ffff 11fd 62f8 51fc e6f9 4cfa ffff ffff     .....b.Q...L....
   114bc:	ffff ffff ffff ffff ffff ffff ffff ffff     ................
   114cc:	ffff ffff ffff ffff ffff ffff ffff ffff     ................
   114dc:	ffff ffff ffff ffff ffff ffff b6b5 ffff     ................
   114ec:	ffff ffff ffff 1bff 2cfb 65f9 7cfe 15fe     .........,.e.|..
   114fc:	4ffb fbfe 74fd edfa ffff 57fe 69fa d8fd     .O...t.....W.i..
   1150c:	fcfe 7cff a9fa 2afa 7eff ffff ffff ffff     ...|...*.~......
   1151c:	d7bd ffff ffff ffff ddff 24f9 e8f9 44f9     ...........$...D
   1152c:	41f8 f6fc ffff ffff ffff ffff ffff ffff     .A..............
   1153c:	ffff ffff ffff ffff ffff ffff ffff ffff     ................
   1154c:	ffff ffff ffff ffff ffff ffff ffff ffff     ................
   1155c:	ffff 1ce7 38c6 ffff ffff ffff ffff ffff     .....8..........
   1156c:	ffff feff 00f8 f6fc ffff ffff ffff ffff     ................
   1157c:	ffff ffff ffff ffff ffff ffff ffff ffff     ................
   1158c:	ffff ffff ffff ffff ffff ffff ffff ffff     ................
   1159c:	ffff ffff ffff ffff b6b5 ffff ffff ffff     ................
   115ac:	ffff 92fd c4f8 ffff affc 05f9 ffff ffff     ................
   115bc:	ffff ffff ffff ffff ffff ffff ffff ffff     ................
   115cc:	ffff ffff ffff ffff ffff ffff ffff ffff     ................
   115dc:	ffff ffff ffff ffff ffff ffff b6b5 ffff     ................
   115ec:	ffff ffff ffff deff 7eff 6bfb 3bfe f4fd     .........~.k.;..
   115fc:	acfa bafe 12fd 0efb ffff 36fe 72fc f7fd     ...........6.r..
   1160c:	19fe ffff a4f9 8dfa ffff ffff ffff ffff     ................
   1161c:	d7bd ffff ffff ffff ffff fbfe 9afe ecfb     ................
   1162c:	c4f8 3dff ffff ffff ffff ffff ffff ffff     ...=............
   1163c:	ffff ffff ffff ffff ffff ffff ffff ffff     ................
   1164c:	ffff ffff ffff ffff ffff ffff ffff ffff     ................
   1165c:	ffff 1ce7 38c6 ffff ffff ffff ffff 6ffc     .....8.........o
   1166c:	abfa e7f9 c9f9 5eff ffff ffff ffff ffff     .......^........
   1167c:	ffff ffff ffff ffff ffff ffff ffff ffff     ................
   1168c:	ffff ffff ffff ffff ffff ffff ffff ffff     ................
   1169c:	ffff ffff ffff ffff b6b5 ffff ffff ffff     ................
   116ac:	ffff 7cff 44f9 29fa 44f9 f6fc ffff ffff     ...|.D.).D......
   116bc:	ffff ffff ffff ffff ffff ffff ffff ffff     ................
   116cc:	ffff ffff ffff ffff ffff ffff ffff ffff     ................
   116dc:	ffff ffff ffff ffff ffff ffff b6b5 ffff     ................
   116ec:	ffff ffff ffff ffff ffff 2afb fafd f4fd     ...........*....
   116fc:	ccfa fbfe 73fd edfa ffff f6fd cffb 96fd     .....s..........
   1170c:	59fe 2ffc 8efb a9fa f1fb 7eff ffff ffff     .Y./.......~....
   1171c:	d7bd ffff ffff ffff ffff ffff ffff 5cff     ...............\
   1172c:	59fe ffff ffff ffff ffff ffff ffff ffff     .Y..............
   1173c:	ffff ffff ffff ffff ffff ffff ffff ffff     ................
   1174c:	ffff ffff ffff ffff ffff ffff ffff ffff     ................
   1175c:	ffff 1ce7 38c6 ffff ffff ffff ffff 5cff     .....8.........\
   1176c:	96fd f7fd dfff ffff ffff ffff ffff ffff     ................
   1177c:	ffff ffff ffff ffff ffff ffff ffff ffff     ................
   1178c:	ffff ffff ffff ffff ffff ffff ffff ffff     ................
   1179c:	ffff ffff ffff ffff b6b5 ffff ffff ffff     ................
   117ac:	ffff ffff bdff 75fd 9bfe ffff ffff ffff     .......u........
   117bc:	ffff ffff ffff ffff ffff ffff ffff ffff     ................
   117cc:	ffff ffff ffff ffff ffff ffff ffff ffff     ................
   117dc:	ffff ffff ffff ffff ffff ffff b6b5 ffff     ................
   117ec:	ffff ffff ffff ffff 15fe e7f9 1eff 15fe     ................
   117fc:	4ffb bafe 74fd 90fb ffff 79fe 79fe 99fe     .O...t.....y.y..
   1180c:	92fc 97fd ffff beff 2afb f1fb bfff ffff     .........*......
   1181c:	d7bd ffff ffff ffff ffff ffff ffff ffff     ................
   1182c:	ffff ffff ffff ffff ffff ffff ffff ffff     ................
   1183c:	ffff ffff ffff ffff ffff ffff ffff ffff     ................
   1184c:	ffff ffff ffff ffff ffff ffff ffff ffff     ................
   1185c:	ffff 1ce7 38c6 ffff ffff ffff ffff ffff     .....8..........
   1186c:	ffff ffff ffff ffff ffff ffff ffff ffff     ................
   1187c:	ffff ffff ffff ffff ffff ffff ffff ffff     ................
   1188c:	ffff ffff ffff ffff ffff ffff ffff ffff     ................
   1189c:	ffff ffff ffff ffff b6b5 ffff ffff ffff     ................
   118ac:	ffff ffff ffff ffff ffff ffff ffff ffff     ................
   118bc:	ffff ffff ffff ffff ffff ffff ffff ffff     ................
   118cc:	ffff ffff ffff ffff ffff ffff ffff ffff     ................
   118dc:	ffff ffff ffff ffff ffff ffff b6b5 ffff     ................
   118ec:	ffff ffff ffff ffff ffff 5dff ffff beff     ...........]....
   118fc:	ffff ffff ffff dfff ffff ffff ffff 1cff     ................
   1190c:	ffff ffff ffff ffff ffff ffff ffff ffff     ................
   1191c:	d7bd ffff ffff ffff ffff ffff ffff ffff     ................
   1192c:	ffff ffff ffff ffff ffff ffff ffff ffff     ................
   1193c:	ffff ffff ffff ffff ffff ffff ffff ffff     ................
   1194c:	ffff ffff ffff ffff ffff ffff ffff ffff     ................
   1195c:	ffff 1ce7 38c6 ffff ffff ffff ffff ffff     .....8..........
   1196c:	ffff ffff ffff ffff ffff ffff ffff ffff     ................
   1197c:	ffff ffff ffff ffff ffff ffff ffff ffff     ................
   1198c:	ffff ffff ffff ffff ffff ffff ffff ffff     ................
   1199c:	ffff ffff ffff ffff b6b5 ffff ffff ffff     ................
   119ac:	ffff ffff ffff ffff ffff ffff ffff ffff     ................
   119bc:	ffff ffff ffff ffff ffff ffff ffff ffff     ................
   119cc:	ffff ffff ffff ffff ffff ffff ffff ffff     ................
   119dc:	ffff ffff ffff ffff ffff ffff b6b5 ffff     ................
   119ec:	ffff ffff ffff ffff ffff ffff ffff ffff     ................
   119fc:	ffff ffff ffff ffff ffff ffff ffff ffff     ................
   11a0c:	ffff ffff ffff ffff ffff ffff ffff ffff     ................
   11a1c:	f7bd ffff ffff ffff ffff ffff ffff ffff     ................
   11a2c:	ffff ffff ffff ffff ffff ffff ffff ffff     ................
   11a3c:	ffff ffff ffff ffff ffff ffff ffff ffff     ................
   11a4c:	ffff ffff ffff ffff ffff ffff ffff ffff     ................
   11a5c:	ffff 3ce7 38c6 ffff ffff ffff ffff ffff     ...<.8..........
   11a6c:	ffff ffff ffff ffff ffff ffff ffff ffff     ................
   11a7c:	ffff ffff ffff ffff ffff ffff ffff ffff     ................
   11a8c:	ffff ffff ffff ffff ffff ffff ffff ffff     ................
   11a9c:	ffff ffff ffff ffff b6b5 ffff ffff ffff     ................
   11aac:	ffff ffff ffff ffff ffff ffff ffff ffff     ................
   11abc:	ffff ffff ffff ffff ffff ffff ffff ffff     ................
   11acc:	ffff ffff ffff ffff ffff ffff ffff ffff     ................
   11adc:	ffff ffff ffff ffff ffff ffff b6b5 ffff     ................
   11aec:	ffff ffff ffff ffff ffff ffff ffff ffff     ................
   11afc:	ffff ffff ffff ffff ffff ffff ffff ffff     ................
   11b0c:	ffff ffff ffff ffff ffff ffff ffff ffff     ................
   11b1c:	96b5 9ef7 9ef7 9ef7 9ef7 9ef7 9ef7 9ef7     ................
   11b2c:	9ef7 9ef7 9ef7 9ef7 9ef7 9ef7 9ef7 9ef7     ................
   11b3c:	9ef7 9ef7 9ef7 9ef7 9ef7 9ef7 9ef7 9ef7     ................
   11b4c:	9ef7 9ef7 9ef7 9ef7 9ef7 9ef7 9ef7 9ef7     ................
   11b5c:	9ef7 bad6 d7bd 9ef7 9ef7 9ef7 9ef7 9ef7     ................
   11b6c:	9ef7 9ef7 9ef7 9ef7 9ef7 9ef7 9ef7 9ef7     ................
   11b7c:	9ef7 9ef7 9ef7 9ef7 9ef7 9ef7 9ef7 9ef7     ................
   11b8c:	9ef7 9ef7 9ef7 9ef7 9ef7 9ef7 9ef7 9ef7     ................
   11b9c:	9ef7 9ef7 9ef7 7def 55ad 9ef7 9ef7 9ef7     .......}.U......
   11bac:	9ef7 9ef7 9ef7 9ef7 9ef7 9ef7 9ef7 9ef7     ................
   11bbc:	9ef7 9ef7 9ef7 9ef7 9ef7 9ef7 9ef7 9ef7     ................
   11bcc:	9ef7 9ef7 9ef7 9ef7 9ef7 9ef7 9ef7 9ef7     ................
   11bdc:	9ef7 9ef7 9ef7 9ef7 9ef7 9ef7 55ad 9ef7     .............U..
   11bec:	9ef7 9ef7 9ef7 9ef7 9ef7 9ef7 9ef7 9ef7     ................
   11bfc:	9ef7 9ef7 9ef7 9ef7 9ef7 9ef7 9ef7 9ef7     ................
   11c0c:	9ef7 9ef7 9ef7 9ef7 9ef7 9ef7 9ef7 9ef7     ................
   11c1c:	518c f7bd f7bd f7bd f7bd f7bd f7bd f7bd     .Q..............
   11c2c:	f7bd f7bd f7bd f7bd f7bd f7bd f7bd f7bd     ................
   11c3c:	f7bd f7bd f7bd f7bd f7bd f7bd f7bd f7bd     ................
   11c4c:	f7bd f7bd f7bd f7bd f7bd f7bd f7bd f7bd     ................
   11c5c:	f7bd 55ad b294 f7bd f7bd f7bd f7bd f7bd     ...U............
   11c6c:	f7bd f7bd f7bd f7bd f7bd f7bd f7bd f7bd     ................
   11c7c:	f7bd f7bd f7bd f7bd f7bd f7bd f7bd f7bd     ................
   11c8c:	f7bd f7bd f7bd f7bd f7bd f7bd f7bd f7bd     ................
   11c9c:	f7bd f7bd f7bd d7bd 518c f7bd f7bd f7bd     .........Q......
   11cac:	f7bd f7bd f7bd f7bd f7bd f7bd f7bd f7bd     ................
   11cbc:	f7bd f7bd f7bd f7bd f7bd f7bd f7bd f7bd     ................
   11ccc:	f7bd f7bd f7bd f7bd f7bd f7bd f7bd f7bd     ................
   11cdc:	f7bd f7bd f7bd f7bd f7bd f7bd 518c f7bd     .............Q..
   11cec:	f7bd f7bd f7bd f7bd f7bd f7bd f7bd f7bd     ................
   11cfc:	f7bd f7bd f7bd f7bd f7bd f7bd f7bd f7bd     ................
   11d0c:	f7bd f7bd f7bd f7bd f7bd f7bd f7bd f7bd     ................
   11d1c:	f7bd ffff ffff ffff ffff ffff ffff ffff     ................
   11d2c:	ffff ffff ffff ffff ffff ffff ffff ffff     ................
   11d3c:	ffff ffff ffff ffff ffff ffff ffff ffff     ................
   11d4c:	ffff ffff ffff ffff ffff ffff ffff ffff     ................
   11d5c:	ffff 5def 38c6 ffff ffff ffff ffff ffff     ...].8..........
   11d6c:	ffff ffff ffff ffff ffff ffff ffff ffff     ................
   11d7c:	ffff ffff ffff ffff ffff ffff ffff ffff     ................
   11d8c:	ffff ffff ffff ffff ffff ffff ffff ffff     ................
   11d9c:	ffff ffff ffff ffff d7bd ffff ffff ffff     ................
   11dac:	ffff ffff ffff ffff ffff ffff ffff ffff     ................
   11dbc:	ffff ffff ffff ffff ffff ffff ffff ffff     ................
   11dcc:	ffff ffff ffff ffff ffff ffff ffff ffff     ................
   11ddc:	ffff ffff ffff ffff ffff ffff d7bd ffff     ................
   11dec:	ffff ffff ffff ffff ffff ffff ffff ffff     ................
   11dfc:	ffff ffff ffff ffff ffff ffff ffff ffff     ................
   11e0c:	ffff ffff ffff ffff ffff ffff ffff ffff     ................
   11e1c:	d7bd ffff ffff ffff ffff ffff ffff ffff     ................
   11e2c:	ffff ffff ffff ffff ffff ffff ffff ffff     ................
   11e3c:	ffff ffff ffff ffff ffff ffff ffff ffff     ................
   11e4c:	ffff ffff ffff ffff ffff ffff ffff ffff     ................
   11e5c:	ffff 1ce7 38c6 ffff ffff ffff ffff ffff     .....8..........
   11e6c:	ffff ffff ffff ffff ffff ffff ffff ffff     ................
   11e7c:	ffff ffff ffff ffff ffff ffff ffff ffff     ................
   11e8c:	ffff ffff ffff ffff ffff ffff ffff ffff     ................
   11e9c:	ffff ffff ffff ffff b6b5 ffff ffff ffff     ................
   11eac:	ffff ffff ffff ffff ffff ffff ffff ffff     ................
   11ebc:	ffff ffff ffff ffff ffff ffff ffff ffff     ................
   11ecc:	ffff ffff ffff ffff ffff ffff ffff ffff     ................
   11edc:	ffff ffff ffff ffff ffff ffff b6b5 ffff     ................
   11eec:	ffff ffff ffff ffff ffff ffff ffff ffff     ................
   11efc:	ffff ffff ffff ffff ffff ffff ffff ffff     ................
   11f0c:	ffff ffff ffff ffff ffff ffff ffff ffff     ................
   11f1c:	d7bd ffff ffff ffff ffff ffff ffff ffff     ................
   11f2c:	ffff ffff ffff ffff ffff ffff ffff ffff     ................
   11f3c:	ffff ffff ffff ffff ffff ffff ffff ffff     ................
   11f4c:	ffff ffff ffff ffff ffff ffff ffff ffff     ................
   11f5c:	ffff 1ce7 38c6 ffff ffff ffff ffff ffff     .....8..........
   11f6c:	ffff ffff ffff ffff ffff ffff ffff ffff     ................
   11f7c:	ffff ffff ffff ffff ffff ffff ffff ffff     ................
   11f8c:	ffff ffff ffff ffff ffff ffff ffff ffff     ................
   11f9c:	ffff ffff ffff ffff b6b5 ffff ffff ffff     ................
   11fac:	ffff ffff ffff ffff ffff ffff ffff ffff     ................
   11fbc:	ffff ffff ffff ffff ffff ffff ffff ffff     ................
   11fcc:	ffff ffff ffff ffff ffff ffff ffff ffff     ................
   11fdc:	ffff ffff ffff ffff ffff ffff b6b5 ffff     ................
   11fec:	ffff ffff ffff ffff ffff ffff ffff 6cfb     ...............l
   11ffc:	ddfe ffff ffff ffff ffff ffff ffff 38fe     ...............8
   1200c:	bfff feff 2cfb ddfe ffff ffff ffff ffff     .....,..........
   1201c:	d7bd ffff ffff ffff ffff f2fc 6dfb 6efb     .............m.n
   1202c:	cffb 5afe ffff ffff ffff ffff ffff ffff     ...Z............
   1203c:	ffff ffff ffff ffff ffff ffff ffff ffff     ................
   1204c:	ffff ffff ffff ffff ffff ffff ffff ffff     ................
   1205c:	ffff 1ce7 38c6 ffff ffff ffff ffff deff     .....8..........
   1206c:	f2fc 6dfb 56fd ffff ffff ffff ffff ffff     ...m.V..........
   1207c:	ffff ffff ffff ffff ffff ffff ffff ffff     ................
   1208c:	ffff ffff ffff ffff ffff ffff ffff ffff     ................
   1209c:	ffff ffff ffff ffff b6b5 ffff ffff ffff     ................
   120ac:	ffff ffff f6fd 6dfb f5fc ffff ffff ffff     .......m........
   120bc:	ffff ffff ffff ffff ffff ffff ffff ffff     ................
   120cc:	ffff ffff ffff ffff ffff ffff ffff ffff     ................
   120dc:	ffff ffff ffff ffff ffff ffff b6b5 ffff     ................
   120ec:	ffff ffff ffff ffff ffff ffff ffff 69fa     ...............i
   120fc:	97fd bafe f2fc 9bfe ffff ffff ddff 07fa     ................
   1210c:	3eff ffff 29fa fdfe ffff ffff ffff ffff     .>...)..........
   1211c:	d7bd ffff ffff ffff ffff d5fd d3fc 2efc     ................
   1212c:	00f8 b9fd ffff ffff ffff ffff ffff ffff     ................
   1213c:	ffff ffff ffff ffff ffff ffff ffff ffff     ................
   1214c:	ffff ffff ffff ffff ffff ffff ffff ffff     ................
   1215c:	ffff 1ce7 38c6 ffff ffff ffff ffff ecfb     .....8..........
   1216c:	47f9 d3fc 60f8 b9fd ffff ffff ffff ffff     .G...`..........
   1217c:	ffff ffff ffff ffff ffff ffff ffff ffff     ................
   1218c:	ffff ffff ffff ffff ffff ffff ffff ffff     ................
   1219c:	ffff ffff ffff ffff b6b5 ffff ffff ffff     ................
   121ac:	ffff 15fe c2f8 51fc c2f8 74fc ffff ffff     .......Q...t....
   121bc:	ffff ffff ffff ffff ffff ffff ffff ffff     ................
   121cc:	ffff ffff ffff ffff ffff ffff ffff ffff     ................
   121dc:	ffff ffff ffff ffff ffff ffff b6b5 ffff     ................
   121ec:	ffff ffff ffff ffff ffff ffff ffff cafa     ................
   121fc:	3afe 5dff dbfe 3dff ffff ffff ddff 48fa     .:.]...=.......H
   1220c:	7bfe 1bff e8f9 3afe 74fd d9fd ffff ffff     .{.....:.t......
   1221c:	d7bd ffff ffff ffff ffff ffff ffff 4efc     ...............N
   1222c:	47f9 dfff ffff ffff ffff ffff ffff ffff     .G..............
   1223c:	ffff ffff ffff ffff ffff ffff ffff ffff     ................
   1224c:	ffff ffff ffff ffff ffff ffff ffff ffff     ................
   1225c:	ffff 1ce7 38c6 ffff ffff ffff ffff ecfb     .....8..........
   1226c:	eaf9 57fe 24f9 3bfe ffff ffff ffff ffff     ...W.$.;........
   1227c:	ffff ffff ffff ffff ffff ffff ffff ffff     ................
   1228c:	ffff ffff ffff ffff ffff ffff ffff ffff     ................
   1229c:	ffff ffff ffff ffff b6b5 ffff ffff ffff     ................
   122ac:	ffff ecfb a8f9 ffff aafb eaf9 ffff ffff     ................
   122bc:	ffff ffff ffff ffff ffff ffff ffff ffff     ................
   122cc:	ffff ffff ffff ffff ffff ffff ffff ffff     ................
   122dc:	ffff ffff ffff ffff ffff ffff b6b5 ffff     ................
   122ec:	ffff ffff ffff 7dff 17fe 59fe 58fe 48fa     .......}...Y.X.H
   122fc:	97fd 79fe 79fe cffb 9bfe ffff ddff 48fa     ...y.y.........H
   1230c:	5afe fbfe 9afe 1cff 38fe 9bfe ffff ffff     .Z.......8......
   1231c:	d7bd ffff ffff ffff ffff ffff ddff a1f8     ................
   1232c:	74fc ffff ffff ffff ffff ffff ffff ffff     .t..............
   1233c:	ffff ffff ffff ffff ffff ffff ffff ffff     ................
   1234c:	ffff ffff ffff ffff ffff ffff ffff ffff     ................
   1235c:	ffff 1ce7 38c6 ffff ffff ffff ffff 5bff     .....8.........[
   1236c:	a1f8 00f8 2bfa dfff ffff ffff ffff ffff     .....+..........
   1237c:	ffff ffff ffff ffff ffff ffff ffff ffff     ................
   1238c:	ffff ffff ffff ffff ffff ffff ffff ffff     ................
   1239c:	ffff ffff ffff ffff b6b5 ffff ffff ffff     ................
   123ac:	ffff 15fe c2f8 8afa 24f9 2bfa ffff ffff     .........$.+....
   123bc:	ffff ffff ffff ffff ffff ffff ffff ffff     ................
   123cc:	ffff ffff ffff ffff ffff ffff ffff ffff     ................
   123dc:	ffff ffff ffff ffff ffff ffff b6b5 ffff     ................
   123ec:	ffff ffff ffff dfff 9eff dfff beff 68fa     ...............h
   123fc:	36fd beff ffff ffff ffff ffff bcff e8f9     .6..............
   1240c:	3afe bafe d5fd d4fc ffff ffff ffff ffff     .:..............
   1241c:	d7bd ffff ffff ffff ffff ffff 11fd 62f8     ...............b
   1242c:	5eff ffff ffff ffff ffff ffff ffff ffff     .^..............
   1243c:	ffff ffff ffff ffff ffff ffff ffff ffff     ................
   1244c:	ffff ffff ffff ffff ffff ffff ffff ffff     ................
   1245c:	ffff 1ce7 38c6 ffff ffff ffff ffff a7fa     .....8..........
   1246c:	0ffb 5cff c2f8 33fc ffff ffff ffff ffff     ...\...3........
   1247c:	ffff ffff ffff ffff ffff ffff ffff ffff     ................
   1248c:	ffff ffff ffff ffff ffff ffff ffff ffff     ................
   1249c:	ffff ffff ffff ffff b6b5 ffff ffff ffff     ................
   124ac:	ffff ffff 5cff 38fe a7fa edfa ffff ffff     .....\.8........
   124bc:	ffff ffff ffff ffff ffff ffff ffff ffff     ................
   124cc:	ffff ffff ffff ffff ffff ffff ffff ffff     ................
   124dc:	ffff ffff ffff ffff ffff ffff b6b5 ffff     ................
   124ec:	ffff ffff ffff ffff ffff ffff ffff cafa     ................
   124fc:	92fc 6dfb 10fc 7eff ffff ffff f9fe 2afa     ...m...~.......*
   1250c:	7dff 7dff 52fd 8dfa ffff ffff ffff ffff     .}.}.R..........
   1251c:	d7bd ffff ffff ffff ffff deff a1f8 0ffb     ................
   1252c:	ffff ffff ffff ffff ffff ffff ffff ffff     ................
   1253c:	ffff ffff ffff ffff ffff ffff ffff ffff     ................
   1254c:	ffff ffff ffff ffff ffff ffff ffff ffff     ................
   1255c:	ffff 1ce7 38c6 ffff ffff ffff ffff 46fa     .....8.........F
   1256c:	eaf9 d3fc a1f8 f6fc ffff ffff ffff ffff     ................
   1257c:	ffff ffff ffff ffff ffff ffff ffff ffff     ................
   1258c:	ffff ffff ffff ffff ffff ffff ffff ffff     ................
   1259c:	ffff ffff ffff ffff b6b5 ffff ffff ffff     ................
   125ac:	ffff dafe 93fc 91fc c2f8 3afe ffff ffff     ...........:....
   125bc:	ffff ffff ffff ffff ffff ffff ffff ffff     ................
   125cc:	ffff ffff ffff ffff ffff ffff ffff ffff     ................
   125dc:	ffff ffff ffff ffff ffff ffff b6b5 ffff     ................
   125ec:	ffff ffff ffff ffff ffff ffff ffff ebfa     ................
   125fc:	3eff 7dff adfb d9fd ffff ffff d0fc 33fc     .>.}...........3
   1260c:	ffff ffff 15fe 0efb ffff ffff ffff ffff     ................
   1261c:	d7bd ffff ffff ffff ffff 7cff cefb fcfe     ...........|....
   1262c:	ffff ffff ffff ffff ffff ffff ffff ffff     ................
   1263c:	ffff ffff ffff ffff ffff ffff ffff ffff     ................
   1264c:	ffff ffff ffff ffff ffff ffff ffff ffff     ................
   1265c:	ffff 1ce7 38c6 ffff ffff ffff ffff 5cff     .....8.........\
   1266c:	10fc 6dfb 56fd ffff ffff ffff ffff ffff     ...m.V..........
   1267c:	ffff ffff ffff ffff ffff ffff ffff ffff     ................
   1268c:	ffff ffff ffff ffff ffff ffff ffff ffff     ................
   1269c:	ffff ffff ffff ffff b6b5 ffff ffff ffff     ................
   126ac:	ffff 5cff cefb 8efb 9bfe ffff ffff ffff     ...\............
   126bc:	ffff ffff ffff ffff ffff ffff ffff ffff     ................
   126cc:	ffff ffff ffff ffff ffff ffff ffff ffff     ................
   126dc:	ffff ffff ffff ffff ffff ffff b6b5 ffff     ................
   126ec:	ffff ffff ffff ffff ffff ffff ffff 48fa     ...............H
   126fc:	bcfe ffff ffff ffff ffff 1aff 6efb 7fff     .............n..
   1270c:	ffff ffff b4fd 8dfa ffff ffff ffff ffff     ................
   1271c:	d7bd ffff ffff ffff ffff ffff ffff ffff     ................
   1272c:	ffff ffff ffff ffff ffff ffff ffff ffff     ................
   1273c:	ffff ffff ffff ffff ffff ffff ffff ffff     ................
   1274c:	ffff ffff ffff ffff ffff ffff ffff ffff     ................
   1275c:	ffff 1ce7 38c6 ffff ffff ffff ffff ffff     .....8..........
   1276c:	ffff ffff ffff ffff ffff ffff ffff ffff     ................
   1277c:	ffff ffff ffff ffff ffff ffff ffff ffff     ................
   1278c:	ffff ffff ffff ffff ffff ffff ffff ffff     ................
   1279c:	ffff ffff ffff ffff b6b5 ffff ffff ffff     ................
   127ac:	ffff ffff ffff ffff ffff ffff ffff ffff     ................
   127bc:	ffff ffff ffff ffff ffff ffff ffff ffff     ................
   127cc:	ffff ffff ffff ffff ffff ffff ffff ffff     ................
   127dc:	ffff ffff ffff ffff ffff ffff b6b5 ffff     ................
   127ec:	ffff ffff ffff ffff ffff ffff ffff 92fc     ................
   127fc:	5eff ffff ffff ffff ffff 99fe 3dff ffff     .^...........=..
   1280c:	ffff ffff 98fe f5fc ffff ffff ffff ffff     ................
   1281c:	d7bd ffff ffff ffff ffff ffff ffff ffff     ................
   1282c:	ffff ffff ffff ffff ffff ffff ffff ffff     ................
   1283c:	ffff ffff ffff ffff ffff ffff ffff ffff     ................
   1284c:	ffff ffff ffff ffff ffff ffff ffff ffff     ................
   1285c:	ffff 1ce7 38c6 ffff ffff ffff ffff ffff     .....8..........
   1286c:	ffff ffff ffff ffff ffff ffff ffff ffff     ................
   1287c:	ffff ffff ffff ffff ffff ffff ffff ffff     ................
   1288c:	ffff ffff ffff ffff ffff ffff ffff ffff     ................
   1289c:	ffff ffff ffff ffff b6b5 ffff ffff ffff     ................
   128ac:	ffff ffff ffff ffff ffff ffff ffff ffff     ................
   128bc:	ffff ffff ffff ffff ffff ffff ffff ffff     ................
   128cc:	ffff ffff ffff ffff ffff ffff ffff ffff     ................
   128dc:	ffff ffff ffff ffff ffff ffff b6b5 ffff     ................
   128ec:	ffff ffff ffff ffff ffff ffff ffff ffff     ................
   128fc:	ffff ffff ffff ffff ffff ffff ffff ffff     ................
   1290c:	ffff ffff ffff ffff ffff ffff ffff ffff     ................
   1291c:	d7bd ffff ffff ffff ffff ffff ffff ffff     ................
   1292c:	ffff ffff ffff ffff ffff ffff ffff ffff     ................
   1293c:	ffff ffff ffff ffff ffff ffff ffff ffff     ................
   1294c:	ffff ffff ffff ffff ffff ffff ffff ffff     ................
   1295c:	ffff 1ce7 38c6 ffff ffff ffff ffff ffff     .....8..........
   1296c:	ffff ffff ffff ffff ffff ffff ffff ffff     ................
   1297c:	ffff ffff ffff ffff ffff ffff ffff ffff     ................
   1298c:	ffff ffff ffff ffff ffff ffff ffff ffff     ................
   1299c:	ffff ffff ffff ffff b6b5 ffff ffff ffff     ................
   129ac:	ffff ffff ffff ffff ffff ffff ffff ffff     ................
   129bc:	ffff ffff ffff ffff ffff ffff ffff ffff     ................
   129cc:	ffff ffff ffff ffff ffff ffff ffff ffff     ................
   129dc:	ffff ffff ffff ffff ffff ffff b6b5 ffff     ................
   129ec:	ffff ffff ffff ffff ffff ffff ffff ffff     ................
   129fc:	ffff ffff ffff ffff ffff ffff ffff ffff     ................
   12a0c:	ffff ffff ffff ffff ffff ffff ffff ffff     ................
   12a1c:	18c6 ffff ffff ffff ffff ffff ffff ffff     ................
   12a2c:	ffff ffff ffff ffff ffff ffff ffff ffff     ................
   12a3c:	ffff ffff ffff ffff ffff ffff ffff ffff     ................
   12a4c:	ffff ffff ffff ffff ffff ffff ffff ffff     ................
   12a5c:	ffff 5def 59ce ffff ffff ffff ffff ffff     ...].Y..........
   12a6c:	ffff ffff ffff ffff ffff ffff ffff ffff     ................
   12a7c:	ffff ffff ffff ffff ffff ffff ffff ffff     ................
   12a8c:	ffff ffff ffff ffff ffff ffff ffff ffff     ................
   12a9c:	ffff ffff ffff ffff f7bd ffff ffff ffff     ................
   12aac:	ffff ffff ffff ffff ffff ffff ffff ffff     ................
   12abc:	ffff ffff ffff ffff ffff ffff ffff ffff     ................
   12acc:	ffff ffff ffff ffff ffff ffff ffff ffff     ................
   12adc:	ffff ffff ffff ffff ffff ffff f7bd ffff     ................
   12aec:	ffff ffff ffff ffff ffff ffff ffff ffff     ................
   12afc:	ffff ffff ffff ffff ffff ffff ffff ffff     ................
   12b0c:	ffff ffff ffff ffff ffff ffff ffff ffff     ................
   12b1c:	b294 38c6 38c6 38c6 38c6 38c6 38c6 38c6     ...8.8.8.8.8.8.8
   12b2c:	38c6 38c6 38c6 38c6 38c6 38c6 38c6 38c6     .8.8.8.8.8.8.8.8
   12b3c:	38c6 38c6 38c6 38c6 38c6 38c6 38c6 38c6     .8.8.8.8.8.8.8.8
   12b4c:	38c6 38c6 38c6 38c6 38c6 38c6 38c6 38c6     .8.8.8.8.8.8.8.8
   12b5c:	38c6 96b5 b294 38c6 38c6 38c6 38c6 38c6     .8.....8.8.8.8.8
   12b6c:	38c6 38c6 38c6 38c6 38c6 38c6 38c6 38c6     .8.8.8.8.8.8.8.8
   12b7c:	38c6 38c6 38c6 38c6 38c6 38c6 38c6 38c6     .8.8.8.8.8.8.8.8
   12b8c:	38c6 38c6 38c6 38c6 38c6 38c6 38c6 38c6     .8.8.8.8.8.8.8.8
   12b9c:	38c6 38c6 38c6 38c6 518c 38c6 38c6 38c6     .8.8.8.8.Q.8.8.8
   12bac:	38c6 38c6 38c6 38c6 38c6 38c6 38c6 38c6     .8.8.8.8.8.8.8.8
   12bbc:	38c6 38c6 38c6 38c6 38c6 38c6 38c6 38c6     .8.8.8.8.8.8.8.8
   12bcc:	38c6 38c6 38c6 38c6 38c6 38c6 38c6 38c6     .8.8.8.8.8.8.8.8
   12bdc:	38c6 38c6 38c6 38c6 38c6 38c6 518c 38c6     .8.8.8.8.8.8.Q.8
   12bec:	38c6 38c6 38c6 38c6 38c6 38c6 38c6 38c6     .8.8.8.8.8.8.8.8
   12bfc:	38c6 38c6 38c6 38c6 38c6 38c6 38c6 38c6     .8.8.8.8.8.8.8.8
   12c0c:	38c6 38c6 38c6 38c6 38c6 38c6 38c6 38c6     .8.8.8.8.8.8.8.8
   12c1c:	55ad 1ce7 1ce7 1ce7 1ce7 1ce7 1ce7 1ce7     .U..............
   12c2c:	1ce7 1ce7 1ce7 1ce7 1ce7 1ce7 1ce7 1ce7     ................
   12c3c:	1ce7 1ce7 1ce7 1ce7 1ce7 1ce7 1ce7 1ce7     ................
   12c4c:	1ce7 1ce7 1ce7 1ce7 1ce7 1ce7 1ce7 1ce7     ................
   12c5c:	1ce7 38c6 75ad 1ce7 1ce7 1ce7 1ce7 1ce7     ...8.u..........
   12c6c:	1ce7 1ce7 1ce7 1ce7 1ce7 1ce7 1ce7 1ce7     ................
   12c7c:	1ce7 1ce7 1ce7 1ce7 1ce7 1ce7 1ce7 1ce7     ................
   12c8c:	1ce7 1ce7 1ce7 1ce7 1ce7 1ce7 1ce7 1ce7     ................
   12c9c:	1ce7 1ce7 1ce7 1ce7 14a5 1ce7 1ce7 1ce7     ................
   12cac:	1ce7 1ce7 1ce7 1ce7 1ce7 1ce7 1ce7 1ce7     ................
   12cbc:	1ce7 1ce7 1ce7 1ce7 1ce7 1ce7 1ce7 1ce7     ................
   12ccc:	1ce7 1ce7 1ce7 1ce7 1ce7 1ce7 1ce7 1ce7     ................
   12cdc:	1ce7 1ce7 1ce7 1ce7 1ce7 1ce7 14a5 1ce7     ................
   12cec:	1ce7 1ce7 1ce7 1ce7 1ce7 1ce7 1ce7 1ce7     ................
   12cfc:	1ce7 1ce7 1ce7 1ce7 1ce7 1ce7 1ce7 1ce7     ................
   12d0c:	1ce7 1ce7 1ce7 1ce7 1ce7 1ce7 1ce7 1ce7     ................
   12d1c:	f7bd ffff ffff ffff ffff ffff ffff ffff     ................
   12d2c:	ffff ffff ffff ffff ffff ffff ffff ffff     ................
   12d3c:	ffff ffff ffff ffff ffff ffff ffff ffff     ................
   12d4c:	ffff ffff ffff ffff ffff ffff ffff ffff     ................
   12d5c:	ffff 3ce7 59ce ffff ffff ffff ffff ffff     ...<.Y..........
   12d6c:	ffff ffff ffff ffff ffff ffff ffff ffff     ................
   12d7c:	ffff ffff ffff ffff ffff ffff ffff ffff     ................
   12d8c:	ffff ffff ffff ffff ffff ffff ffff ffff     ................
   12d9c:	ffff ffff ffff ffff d7bd ffff ffff ffff     ................
   12dac:	ffff ffff ffff ffff ffff ffff ffff ffff     ................
   12dbc:	ffff ffff ffff ffff ffff ffff ffff ffff     ................
   12dcc:	ffff ffff ffff ffff ffff ffff ffff ffff     ................
   12ddc:	ffff ffff ffff ffff ffff ffff d7bd ffff     ................
   12dec:	ffff ffff ffff ffff ffff ffff ffff ffff     ................
   12dfc:	ffff ffff ffff ffff ffff ffff ffff ffff     ................
   12e0c:	ffff ffff ffff ffff ffff ffff ffff ffff     ................
   12e1c:	d7bd ffff ffff ffff ffff ffff 38fe 7eff     .............8.~
   12e2c:	ffff ffff f2fc bcfe ffff dfff ffff ffff     ................
   12e3c:	ffff ffff b5fd 15fd ffff ffff ffff ffff     ................
   12e4c:	ffff ffff ffff ffff ffff ffff ffff ffff     ................
   12e5c:	ffff 1ce7 38c6 ffff ffff ffff ffff ffff     .....8..........
   12e6c:	ffff ffff ffff ffff ffff ffff ffff ffff     ................
   12e7c:	ffff ffff ffff ffff ffff ffff ffff ffff     ................
   12e8c:	ffff ffff ffff ffff ffff ffff ffff ffff     ................
   12e9c:	ffff ffff ffff ffff b6b5 ffff ffff ffff     ................
   12eac:	ffff ffff dafe bafe 1cff 1cff 1cff 1cff     ................
   12ebc:	dafe 19fe ffff deff 59fe ffff beff beff     .........Y......
   12ecc:	beff 7dff dbfe ffff ffff ffff ffff ffff     ...}............
   12edc:	ffff ffff ffff ffff ffff ffff b6b5 ffff     ................
   12eec:	ffff ffff ffff ffff ffff ffff ffff ffff     ................
   12efc:	b4fd 98fd ffff ffff ffff ffff 5cff dfff     .............\..
   12f0c:	ffff ffff 58fe 7eff ffff ffff ffff ffff     .....X.~........
   12f1c:	d7bd ffff ffff ffff ffff ffff d1fc b0fb     ................
   12f2c:	99fe 38fe e6f9 93fc 91fc 36fd ffff 7dff     ...8.......6...}
   12f3c:	96fd fbfe 36fe 2afa dbfe fbfe 92fc 7bfe     .....6.*.......{
   12f4c:	ffff ffff ffff ffff ffff ffff ffff ffff     ................
   12f5c:	ffff 1ce7 38c6 ffff ffff ffff ffff ffff     .....8..........
   12f6c:	ffff 7dff ffff ffff ffff ffff ffff ffff     ...}............
   12f7c:	ffff ffff ffff ffff ffff ffff ffff ffff     ................
   12f8c:	ffff ffff ffff ffff ffff ffff ffff ffff     ................
   12f9c:	ffff ffff ffff ffff b6b5 ffff ffff ffff     ................
   12fac:	ffff ffff 2dfc f1fb 1cff 1cff 1cff 3cff     .....-.........<
   12fbc:	93fd 6bfa ffff ffff 2afb 77fd 93fd 8ffb     ...k.....*.w....
   12fcc:	59fe 12fd 4afa ffff ffff ffff ffff ffff     .Y...J..........
   12fdc:	ffff ffff ffff ffff ffff ffff b6b5 ffff     ................
   12fec:	ffff ffff ffff 9eff 17fe d3fc d3fc 96fd     ................
   12ffc:	68fa f5fc 6dfb ddfe ffff ffff 15fe 6bfa     .h...m.........k
   1300c:	bfff ffff 07fa fafd ffff ffff ffff ffff     ................
   1301c:	d7bd ffff ffff ffff ffff dafe 9eff fbfe     ................
   1302c:	dafe 17fe 07fa 32fc 92fc 3dff ffff acfb     .......2...=....
   1303c:	f2fb 73fd f2fb 5cff 34fd 18fe 0bfb 5afe     ...s...\.4.....Z
   1304c:	ffff ffff ffff ffff ffff ffff ffff ffff     ................
   1305c:	ffff 1ce7 38c6 ffff ffff ffff ffff 1aff     .....8..........
   1306c:	48fa a6f9 acfa 9eff ffff ffff ffff ffff     .H..............
   1307c:	ffff ffff ffff ffff ffff ffff ffff ffff     ................
   1308c:	ffff ffff ffff ffff ffff ffff ffff ffff     ................
   1309c:	ffff ffff ffff ffff b6b5 ffff ffff ffff     ................
   130ac:	ffff ffff 4efc b5fc fbfe 1cff 3cff 59fe     .....N.......<.Y
   130bc:	97fe 2dfb ffff ffff 7dff 5dff 11fd edfa     ...-.....}.]....
   130cc:	9afe 52fd ccfa ffff ffff ffff ffff ffff     ...R............
   130dc:	ffff ffff ffff ffff ffff ffff b6b5 ffff     ................
   130ec:	ffff ffff ffff ffff f9fe 4afa ffff b0fc     ...........J....
   130fc:	32fc d5fd 0efb f7fd 9eff ffff ffff 91fc     .2..............
   1310c:	bfff ffff e6f9 3bfe ffff ffff ffff ffff     .......;........
   1311c:	d7bd ffff ffff ffff ffff 15fe abfa 11fc     ................
   1312c:	d8fd 9afe adfb 56fd 99fe 72fc bfff 79fe     .......V...r...y
   1313c:	f7fd cafa 3bfe ffff 99fe 8afa f2fb ffff     .....;..........
   1314c:	ffff ffff ffff ffff ffff ffff ffff ffff     ................
   1315c:	ffff 1ce7 38c6 ffff ffff ffff ffff 09fb     .....8..........
   1316c:	4cfa 5cff a1f8 b5fc ffff ffff ffff ffff     .L.\............
   1317c:	ffff ffff ffff ffff ffff ffff ffff ffff     ................
   1318c:	ffff ffff ffff ffff ffff ffff ffff ffff     ................
   1319c:	ffff ffff ffff ffff b6b5 ffff ffff ffff     ................
   131ac:	ffff ffff 4efc f5fc 6cfb 37fd 57fe eaf9     .....N...l.7.W..
   131bc:	17fe 2dfb ffff dafe 70fc 37fd 52fd 4ffb     ...-.....p.7.R.O
   131cc:	fbfe 73fd acfa ffff ffff ffff ffff ffff     ...s............
   131dc:	ffff ffff ffff ffff ffff ffff b6b5 ffff     ................
   131ec:	ffff ffff ffff ffff 73fd 8ffb 75fd cafa     .........s...u..
   131fc:	f1fb 2dfc 15fd 69fa bcfe 1cff f6fd 19fe     ...-...i........
   1320c:	ffff feff 44f9 98fd ffff ffff ffff ffff     .....D..........
   1321c:	d7bd ffff ffff ffff ffff ffff b4fd 32fc     ...............2
   1322c:	f6fd 56fd bafe 79fe 51fc 9bfe ffff 98fe     ...V...y.Q......
   1323c:	f0fb 5afe 7dff 5dff 5cff d1fc 0efb bfff     ...Z.}.].\......
   1324c:	ffff ffff ffff ffff ffff ffff ffff ffff     ................
   1325c:	ffff 1ce7 38c6 ffff ffff ffff ffff 23f9     .....8.........#
   1326c:	74fc ffff 26fa 0ffb ffff ffff ffff ffff     .t...&..........
   1327c:	ffff ffff ffff ffff ffff ffff ffff ffff     ................
   1328c:	ffff ffff ffff ffff ffff ffff ffff ffff     ................
   1329c:	ffff ffff ffff ffff b6b5 ffff ffff ffff     ................
   132ac:	ffff ffff 4efc 15fd adfb 3bfe 9bff 6bfa     .....N.....;...k
   132bc:	58fe 2dfb ffff dfff 2dfc 74fc 93fd 0efb     .X.-.....-.t....
   132cc:	79fe 98fe 8afa 9bfe ffff ffff ffff ffff     .y..............
   132dc:	ffff ffff ffff ffff ffff ffff b6b5 ffff     ................
   132ec:	ffff ffff ffff ffff 26fa 32fc ebfa 91fc     .........&.2....
   132fc:	8ffb adfb 93fc cafa fdfe 5dff 6ffc 0efb     ...........].o..
   1330c:	ffff bcff c2f8 74fc ffff ffff ffff ffff     .......t........
   1331c:	d7bd ffff ffff ffff ffff ffff 52fd 78fd     .............R.x
   1332c:	affc 0efb 17fe 17fe e6f9 fafd ffff 9eff     ................
   1333c:	1cff bafe b4fd ebfa bafe 18fe dfff ffff     ................
   1334c:	ffff ffff ffff ffff ffff ffff ffff ffff     ................
   1335c:	ffff 1ce7 38c6 ffff ffff ffff ffff 23f9     .....8.........#
   1336c:	74fc ffff 67fa 0ffb ffff ffff ffff ffff     .t...g..........
   1337c:	ffff ffff ffff ffff ffff ffff ffff ffff     ................
   1338c:	ffff ffff ffff ffff ffff ffff ffff ffff     ................
   1339c:	ffff ffff ffff ffff b6b5 ffff ffff ffff     ................
   133ac:	ffff ffff 4efc f5fc 6bfb b5fc d5fd 6bfa     .....N...k.....k
   133bc:	57fe 2dfb ffff ffff affc b5fc 92fd 11fc     .W.-............
   133cc:	b4fd 29fa 97fd ffff ffff ffff ffff ffff     ...)............
   133dc:	ffff ffff ffff ffff ffff ffff b6b5 ffff     ................
   133ec:	ffff ffff ffff 1bff e6f9 15fd cefb 91fc     ................
   133fc:	8ffb cefb d4fc cafa fdfe ffff 92fd f2fb     ................
   1340c:	5cff 74fd 69fa 8ffb ffff ffff ffff ffff     .\.t.i..........
   1341c:	d7bd ffff ffff ffff ffff 98fe a6f9 1eff     ................
   1342c:	d0fc 90fb 59fe 79fe 68fa 3bfe ffff ffff     .....Y.y.h.;....
   1343c:	ffff ffff 97fe acfa ffff ffff ffff ffff     ................
   1344c:	ffff ffff ffff ffff ffff ffff ffff ffff     ................
   1345c:	ffff 1ce7 38c6 ffff ffff ffff ffff 46fa     .....8.........F
   1346c:	cefa ffff 23f9 b5fc ffff ffff ffff ffff     .....#..........
   1347c:	ffff ffff ffff ffff ffff ffff ffff ffff     ................
   1348c:	ffff ffff ffff ffff ffff ffff ffff ffff     ................
   1349c:	ffff ffff ffff ffff b6b5 ffff ffff ffff     ................
   134ac:	ffff ffff 4efc b5fc dbfe dfff ffff 7eff     .....N.........~
   134bc:	98fe 2dfb ffff ffff ecfb 53fc 93fd a8f9     ...-.......S....
   134cc:	19fe 17fe e7f9 7bfe ffff ffff ffff ffff     .......{........
   134dc:	ffff ffff ffff ffff ffff ffff b6b5 ffff     ................
   134ec:	ffff ffff ffff ffff d1fc 8ffb ebfa cefb     ................
   134fc:	f1fb edfb 93fc cafa fdfe ffff 93fd a8f9     ................
   1350c:	d3fc cafa d9fd edfb 78fd ffff ffff ffff     .........x......
   1351c:	d7bd ffff ffff ffff ffff 7cff a6f9 9fff     ...........|....
   1352c:	6ffc 33fc 7dff fbfe 68fa 3bfe ffff ffff     .o.3.}...h.;....
   1353c:	ffff ffff 56fe abfa ffff ffff 5cff dfff     .....V.......\..
   1354c:	ffff ffff ffff ffff ffff ffff ffff ffff     ................
   1355c:	ffff 1ce7 38c6 ffff ffff ffff ffff 36fe     .....8.........6
   1356c:	24f9 a6f9 eaf9 7fff ffff ffff ffff ffff     .$..............
   1357c:	ffff ffff ffff ffff ffff ffff ffff ffff     ................
   1358c:	ffff ffff ffff ffff ffff ffff ffff ffff     ................
   1359c:	ffff ffff ffff ffff b6b5 ffff ffff ffff     ................
   135ac:	ffff ffff 2efc b0fb 1cff fbfe dbfe 1cff     ................
   135bc:	73fd acfa ffff 6ffc f0fb f2fc cffb d4fc     .s.....o........
   135cc:	5dff 9eff 74fd 56fd dfff ffff ffff ffff     .]...t.V........
   135dc:	ffff ffff ffff ffff ffff ffff b6b5 ffff     ................
   135ec:	ffff ffff ffff ffff d0fc 33fc f7fd abfa     ...........3....
   135fc:	fdfe 4efc 15fd cafa ddfe ffff 92fd 47f9     ...N...........G
   1360c:	70fc 72fc ffff f9fe 65f9 d9fd ffff ffff     .p.r.....e......
   1361c:	d7bd ffff ffff ffff ffff 7cff 8efb dfff     ...........|....
   1362c:	d0fc 78fd ffff 15fe 4afa 3eff ffff 79fe     ...x.....J.>...y
   1363c:	18fe 38fe 74fd 90fb 38fe 38fe 2ffc 9bfe     ...8.t...8.8./..
   1364c:	ffff ffff ffff ffff ffff ffff ffff ffff     ................
   1365c:	ffff 1ce7 38c6 ffff ffff ffff ffff ffff     .....8..........
   1366c:	7cff 9afe ffff ffff ffff ffff ffff ffff     .|..............
   1367c:	ffff ffff ffff ffff ffff ffff ffff ffff     ................
   1368c:	ffff ffff ffff ffff ffff ffff ffff ffff     ................
   1369c:	ffff ffff ffff ffff b6b5 ffff ffff ffff     ................
   136ac:	ffff ffff 6ffc 94fc 1cff 1cff 1cff 1cff     .....o..........
   136bc:	36fe 72fc ffff fbfe dfff ffff b5fd d3fc     .6.r............
   136cc:	cffb 8efb 8efb 56fd dfff ffff ffff ffff     .......V........
   136dc:	ffff ffff ffff ffff ffff ffff b6b5 ffff     ................
   136ec:	ffff ffff ffff ffff 7dff beff 98fe 36fd     .........}.....6
   136fc:	ffff 74fd 51fc 6efb 9fff ffff 7cff d3fc     ...t.Q.n.....|..
   1370c:	97fd ffff ffff ffff 73fd 93fc dfff ffff     .........s......
   1371c:	d7bd ffff ffff ffff ffff ffff ffff ffff     ................
   1372c:	dfff ffff ffff ffff ffff ffff ffff dfff     ................
   1373c:	ffff ffff ffff ffff ffff ffff ffff ffff     ................
   1374c:	ffff ffff ffff ffff ffff ffff ffff ffff     ................
   1375c:	ffff 1ce7 38c6 ffff ffff ffff ffff ffff     .....8..........
   1376c:	ffff ffff ffff ffff ffff ffff ffff ffff     ................
   1377c:	ffff ffff ffff ffff ffff ffff ffff ffff     ................
   1378c:	ffff ffff ffff ffff ffff ffff ffff ffff     ................
   1379c:	ffff ffff ffff ffff b6b5 ffff ffff ffff     ................
   137ac:	ffff ffff dfff ffff ffff ffff ffff ffff     ................
   137bc:	ffff ffff ffff ffff ffff ffff ffff ffff     ................
   137cc:	ffff ffff ffff ffff ffff ffff ffff ffff     ................
   137dc:	ffff ffff ffff ffff ffff ffff b6b5 ffff     ................
   137ec:	ffff ffff ffff ffff ffff ffff dfff ffff     ................
   137fc:	ffff ffff ffff ffff ffff ffff ffff dfff     ................
   1380c:	ffff ffff ffff ffff ffff ffff ffff ffff     ................
   1381c:	d7bd ffff ffff ffff ffff ffff ffff ffff     ................
   1382c:	ffff ffff ffff ffff ffff ffff ffff ffff     ................
   1383c:	ffff ffff ffff ffff ffff ffff ffff ffff     ................
   1384c:	ffff ffff ffff ffff ffff ffff ffff ffff     ................
   1385c:	ffff 1ce7 38c6 ffff ffff ffff ffff ffff     .....8..........
   1386c:	ffff ffff ffff ffff ffff ffff ffff ffff     ................
   1387c:	ffff ffff ffff ffff ffff ffff ffff ffff     ................
   1388c:	ffff ffff ffff ffff ffff ffff ffff ffff     ................
   1389c:	ffff ffff ffff ffff b6b5 ffff ffff ffff     ................
   138ac:	ffff ffff ffff ffff ffff ffff ffff ffff     ................
   138bc:	ffff ffff ffff ffff ffff ffff ffff ffff     ................
   138cc:	ffff ffff ffff ffff ffff ffff ffff ffff     ................
   138dc:	ffff ffff ffff ffff ffff ffff b6b5 ffff     ................
   138ec:	ffff ffff ffff ffff ffff ffff ffff ffff     ................
   138fc:	ffff ffff ffff ffff ffff ffff ffff ffff     ................
   1390c:	ffff ffff ffff ffff ffff ffff ffff ffff     ................
   1391c:	d7bd ffff ffff ffff ffff ffff ffff ffff     ................
   1392c:	ffff ffff ffff ffff ffff ffff ffff ffff     ................
   1393c:	ffff ffff ffff ffff ffff ffff ffff ffff     ................
   1394c:	ffff ffff ffff ffff ffff ffff ffff ffff     ................
   1395c:	ffff 1ce7 38c6 ffff ffff ffff ffff ffff     .....8..........
   1396c:	ffff ffff ffff ffff ffff ffff ffff ffff     ................
   1397c:	ffff ffff ffff ffff ffff ffff ffff ffff     ................
   1398c:	ffff ffff ffff ffff ffff ffff ffff ffff     ................
   1399c:	ffff ffff ffff ffff b6b5 ffff ffff ffff     ................
   139ac:	ffff ffff ffff ffff ffff ffff ffff ffff     ................
   139bc:	ffff ffff ffff ffff ffff ffff ffff ffff     ................
   139cc:	ffff ffff ffff ffff ffff ffff ffff ffff     ................
   139dc:	ffff ffff ffff ffff ffff ffff b6b5 ffff     ................
   139ec:	ffff ffff ffff ffff ffff ffff ffff ffff     ................
   139fc:	ffff ffff ffff ffff ffff ffff ffff ffff     ................
   13a0c:	ffff ffff ffff ffff ffff ffff ffff ffff     ................
   13a1c:	f7bd ffff ffff ffff ffff ffff ffff ffff     ................
   13a2c:	ffff ffff ffff ffff ffff ffff ffff ffff     ................
   13a3c:	ffff ffff ffff ffff ffff ffff ffff ffff     ................
   13a4c:	ffff ffff ffff ffff ffff ffff ffff ffff     ................
   13a5c:	ffff 3ce7 59ce ffff ffff ffff ffff ffff     ...<.Y..........
   13a6c:	ffff ffff ffff ffff ffff ffff ffff ffff     ................
   13a7c:	ffff ffff ffff ffff ffff ffff ffff ffff     ................
   13a8c:	ffff ffff ffff ffff ffff ffff ffff ffff     ................
   13a9c:	ffff ffff ffff ffff f7bd ffff ffff ffff     ................
   13aac:	ffff ffff ffff ffff ffff ffff ffff ffff     ................
   13abc:	ffff ffff ffff ffff ffff ffff ffff ffff     ................
   13acc:	ffff ffff ffff ffff ffff ffff ffff ffff     ................
   13adc:	ffff ffff ffff ffff ffff ffff f7bd ffff     ................
   13aec:	ffff ffff ffff ffff ffff ffff ffff ffff     ................
   13afc:	ffff ffff ffff ffff ffff ffff ffff ffff     ................
   13b0c:	ffff ffff ffff ffff ffff ffff ffff ffff     ................
   13b1c:	c5c3 d1d2 cfc9 f8cb aca3 ebc7 e4ca ebc8     ................
   13b2c:	dcc3 ebc2 0000 0000 c5c3 d1d2 aabf f4c6     ................
   13b3c:	aca3 b6bb add3 d8bb d2bc 0000 fdd5 dad4     ................
   13b4c:	f4c6 afb6 0000 0000 f4c6 afb6 c9b3 a6b9     ................
   13b5c:	0000 0000                                   ....

00013b60 <ascii_1608>:
	...
   13b70:	0000 0800 0808 0808 0808 0000 1818 0000     ................
   13b80:	4800 246c 0012 0000 0000 0000 0000 0000     .Hl$............
   13b90:	0000 2400 2424 127f 1212 127f 1212 0000     ...$$$..........
   13ba0:	0000 1c08 2a2a 0c0a 2818 2a28 1c2a 0808     ....**...((**...
   13bb0:	0000 2200 1525 1515 582a 5454 2254 0000     ..."%...*XTTT"..
   13bc0:	0000 0c00 1212 0a12 2576 1129 6e91 0000     ........v%)..n..
   13bd0:	0600 0406 0003 0000 0000 0000 0000 0000     ................
   13be0:	4000 1020 0810 0808 0808 1008 2010 0040     .@ .......... @.
   13bf0:	0200 0804 1008 1010 1010 0810 0408 0002     ................
   13c00:	0000 0000 0808 1c6b 6b1c 0808 0000 0000     ......k..k......
   13c10:	0000 0000 0808 0808 087f 0808 0008 0000     ................
	...
   13c2c:	0606 0304 0000 0000 0000 0000 00fe 0000     ................
	...
   13c4c:	0606 0000 0000 4080 2040 1020 0810 0408     .......@@  .....
   13c5c:	0204 0002 0000 1800 4224 4242 4242 4242     ........$BBBBBBB
   13c6c:	1824 0000 0000 0800 080e 0808 0808 0808     $...............
   13c7c:	3e08 0000 0000 3c00 4242 2042 1020 0408     .>.....<BBB  ...
   13c8c:	7e42 0000 0000 3c00 4242 1820 4020 4240     B~.....<BB . @@B
   13c9c:	1c22 0000 0000 2000 2830 2424 2222 207e     "...... 0($$""~ 
   13cac:	7820 0000 0000 7e00 0202 1a02 4026 4240      x.....~....&@@B
   13cbc:	1c22 0000 0000 3800 0224 1a02 4226 4242     "......8$...&BBB
   13ccc:	1824 0000 0000 7e00 2222 1010 0808 0808     $......~""......
   13cdc:	0808 0000 0000 3c00 4242 2442 2418 4242     .......<BBB$.$BB
   13cec:	3c42 0000 0000 1800 4224 4242 5864 4040     B<......$BBBdX@@
   13cfc:	1c24 0000 0000 0000 0000 1818 0000 0000     $...............
   13d0c:	1818 0000 0000 0000 0000 0800 0000 0000     ................
   13d1c:	0800 0408 0000 4000 1020 0408 0402 1008     .......@ .......
   13d2c:	4020 0000 0000 0000 0000 007f 0000 007f      @..............
   13d3c:	0000 0000 0000 0200 0804 2010 2040 0810     ........... @ ..
   13d4c:	0204 0000 0000 3c00 4242 4046 1020 0010     .......<BBF@ ...
   13d5c:	1818 0000 0000 1c00 5a22 5555 5555 422d     ........"ZUUUU-B
   13d6c:	1c22 0000 0000 0800 1808 1414 3c24 4222     "...........$<"B
   13d7c:	e742 0000 0000 1f00 2222 1e22 4222 4242     B......."""."BBB
   13d8c:	1f22 0000 0000 7c00 4242 0101 0101 4201     "......|BB.....B
   13d9c:	1c22 0000 0000 1f00 4222 4242 4242 4242     "......."BBBBBBB
   13dac:	1f22 0000 0000 3f00 1242 1e12 1212 4202     "......?B......B
   13dbc:	3f42 0000 0000 3f00 1242 1e12 1212 0202     B?.....?B.......
   13dcc:	0702 0000 0000 3c00 2222 0101 7101 2221     .......<""...q!"
   13ddc:	1c22 0000 0000 e700 4242 4242 427e 4242     ".......BBBB~BBB
   13dec:	e742 0000 0000 3e00 0808 0808 0808 0808     B......>........
   13dfc:	3e08 0000 0000 7c00 1010 1010 1010 1010     .>.....|........
   13e0c:	1010 0f11 0000 7700 1222 0e0a 120a 2212     .......w"......"
   13e1c:	7722 0000 0000 0700 0202 0202 0202 0202     "w..............
   13e2c:	7f42 0000 0000 7700 3636 3636 2a2a 2a2a     B......w6666****
   13e3c:	6b2a 0000 0000 e300 4646 4a4a 5252 6252     *k......FFJJRRRb
   13e4c:	4762 0000 0000 1c00 4122 4141 4141 4141     bG......"AAAAAAA
   13e5c:	1c22 0000 0000 3f00 4242 4242 023e 0202     "......?BBBB>...
   13e6c:	0702 0000 0000 1c00 4122 4141 4141 534d     ........"AAAAAMS
   13e7c:	1c32 0060 0000 3f00 4242 3e42 1212 2222     2.`....?BBB>..""
   13e8c:	c742 0000 0000 7c00 4242 0402 2018 4240     B......|BB... @B
   13e9c:	3e42 0000 0000 7f00 0849 0808 0808 0808     B>......I.......
   13eac:	1c08 0000 0000 e700 4242 4242 4242 4242     ........BBBBBBBB
   13ebc:	3c42 0000 0000 e700 4242 2422 1424 1814     B<......BB"$$...
   13ecc:	0808 0000 0000 6b00 4949 4949 5555 2236     .......kIIIIUU6"
   13edc:	2222 0000 0000 e700 2442 1824 1818 2424     ""......B$$...$$
   13eec:	e742 0000 0000 7700 2222 1414 0808 0808     B......w""......
   13efc:	1c08 0000 0000 7e00 2021 1010 0408 4204     .......~! .....B
   13f0c:	3f42 0000 7800 0808 0808 0808 0808 0808     B?...x..........
   13f1c:	0808 0078 0000 0202 0404 0808 1008 2010     ..x............ 
   13f2c:	2020 4040 1e00 1010 1010 1010 1010 1010       @@............
   13f3c:	1010 001e 3800 0044 0000 0000 0000 0000     .....8D.........
	...
   13f5c:	0000 ff00 0600 0008 0000 0000 0000 0000     ................
	...
   13f74:	0000 3c00 7842 4244 fc42 0000 0000 0300     ...<BxDBB.......
   13f84:	0202 1a02 4226 4242 1a26 0000 0000 0000     ....&BBB&.......
   13f94:	0000 3800 0244 0202 3844 0000 0000 6000     ...8D...D8.....`
   13fa4:	4040 7840 4244 4242 d864 0000 0000 0000     @@@xDBBBd.......
   13fb4:	0000 3c00 7e42 0202 3c42 0000 0000 f000     ...<B~..B<......
   13fc4:	0888 7e08 0808 0808 3e08 0000 0000 0000     ...~.....>......
   13fd4:	0000 7c00 2222 021c 423c 3c42 0000 0300     ...|""..<BB<....
   13fe4:	0202 3a02 4246 4242 e742 0000 0000 0c00     ...:FBBBB.......
   13ff4:	000c 0e00 0808 0808 3e08 0000 0000 3000     .........>.....0
   14004:	0030 3800 2020 2020 2020 1e22 0000 0300     0..8      ".....
   14014:	0202 7202 0a12 1216 7722 0000 0000 0e00     ...r...."w......
   14024:	0808 0808 0808 0808 3e08 0000 0000 0000     .........>......
   14034:	0000 7f00 9292 9292 b792 0000 0000 0000     ................
   14044:	0000 3b00 4246 4242 e742 0000 0000 0000     ...;FBBBB.......
   14054:	0000 3c00 4242 4242 3c42 0000 0000 0000     ...<BBBBB<......
   14064:	0000 1b00 4226 4242 1e22 0702 0000 0000     ....&BBB".......
   14074:	0000 7800 4244 4242 7844 e040 0000 0000     ...xDBBBDx@.....
   14084:	0000 7700 044c 0404 1f04 0000 0000 0000     ...wL...........
   14094:	0000 7c00 0242 403c 3e42 0000 0000 0000     ...|B.<@B>......
   140a4:	0800 3e08 0808 0808 3008 0000 0000 0000     ...>.....0......
   140b4:	0000 6300 4242 4242 dc62 0000 0000 0000     ...cBBBBb.......
   140c4:	0000 e700 2442 1424 0808 0000 0000 0000     ....B$$.........
   140d4:	0000 eb00 4949 5555 2222 0000 0000 0000     ....IIUU""......
   140e4:	0000 7600 1824 1818 6e24 0000 0000 0000     ...v$...$n......
   140f4:	0000 e700 2442 1424 0818 0708 0000 0000     ....B$$.........
   14104:	0000 7e00 1022 0808 7e44 0000 c000 2020     ...~"...D~....  
   14114:	2020 1020 2020 2020 2020 00c0 1010 1010        .      ......
   14124:	1010 1010 1010 1010 1010 1010 0600 0808     ................
   14134:	0808 1008 0808 0808 0808 0006 320c 00c2     .............2..
	...

00014150 <ascii_3216>:
	...
   14198:	0000 01c0 01c0 01c0 01c0 01c0 01c0 01c0     ................
   141a8:	0080 0080 0080 0080 0080 0080 0080 0000     ................
   141b8:	0000 0000 0000 0180 03c0 03c0 0180 0000     ................
	...
   141d4:	0000 1ce0 1ce0 1ef0 0e70 0738 0318 0108     ........p.8.....
   141e4:	0084 0000 0000 0000 0000 0000 0000 0000     ................
	...
   1421c:	1020 1020 1020 1020 1020 7ffe 7ffe 0810      . . . . .......
   1422c:	0810 0810 0810 0810 0810 0810 7ffe 7ffe     ................
   1423c:	0408 0408 0408 0408 0408 0000 0000 0000     ................
	...
   14258:	0100 0100 07c0 1960 3110 3118 3918 3918     ......`..1.1.9.9
   14268:	0138 0170 01e0 03c0 0780 0f00 1d00 3900     8.p............9
   14278:	3100 311c 311c 310c 110c 0d18 07e0 0100     .1.1.1.1........
   14288:	0100 0100 0000 0000 0000 0000 0000 0000     ................
   14298:	0000 0000 101c 1836 0863 0c63 0463 0463     ......6.c.c.c.c.
   142a8:	0263 0263 0163 1d36 379c 2280 6380 6340     c.c.c.6..7.".c@c
   142b8:	6340 6320 6320 6330 2210 3618 1c08 0000     @c c c0c.".6....
	...
   142dc:	00f0 0198 018c 018c 018c 018c 008c 00cc     ................
   142ec:	0078 3e18 081c 0836 0832 0463 0463 04c3     x..>..6.2.c.c...
   142fc:	03c3 4383 4306 268e 1c78 0000 0000 0000     ...C.C.&x.......
	...
   14314:	0000 001c 003c 003c 0030 0030 0010 000c     ....<.<.0.0.....
   14324:	0006 0000 0000 0000 0000 0000 0000 0000     ................
	...
   14354:	0000 4000 2000 1000 0800 0c00 0400 0600     ...@. ..........
   14364:	0300 0300 0300 0180 0180 0180 0180 0180     ................
   14374:	0180 0180 0180 0300 0300 0300 0600 0600     ................
   14384:	0c00 0800 1000 2000 4000 0000 0000 0000     ....... .@......
   14394:	0000 0002 0004 0008 0010 0030 0020 0060     ..........0. .`.
   143a4:	00c0 00c0 00c0 0180 0180 0180 0180 0180     ................
   143b4:	0180 0180 0180 00c0 00c0 00c0 0060 0060     ............`.`.
   143c4:	0030 0010 0008 0004 0002 0000 0000 0000     0...............
	...
   143e0:	0100 0380 0380 0100 711c 793c 3d78 07c0     .........q<yx=..
   143f0:	0100 07c0 3d78 793c 711c 0100 0380 0380     ....x=<y.q......
   14400:	0180 0000 0000 0000 0000 0000 0000 0000     ................
	...
   14420:	0000 0100 0100 0100 0100 0100 0100 0100     ................
   14430:	7ffc 0100 0100 0100 0100 0100 0100 0100     ................
	...
   14480:	001c 003c 003c 0030 0030 0010 000c 0006     ..<.<.0.0.......
	...
   144b0:	7ffe 0000 0000 0000 0000 0000 0000 0000     ................
	...
   144fc:	0000 0018 003c 003c 0018 0000 0000 0000     ....<.<.........
	...
   14514:	0000 4000 6000 2000 3000 1000 1800 0800     ...@.`. .0......
   14524:	0c00 0400 0600 0200 0300 0100 0180 0080     ................
   14534:	00c0 0040 0060 0020 0030 0010 0018 0008     ..@.`. .0.......
   14544:	000c 0004 0006 0002 0000 0000 0000 0000     ................
	...
   1455c:	07c0 0c60 1830 3018 3018 2018 600c 600c     ..`.0..0.0. .`.`
   1456c:	600c 600c 600c 600c 600c 600c 600c 2018     .`.`.`.`.`.`.`. 
   1457c:	3018 3018 1830 0c60 07c0 0000 0000 0000     .0.00.`.........
	...
   1459c:	0100 0180 01f8 0180 0180 0180 0180 0180     ................
   145ac:	0180 0180 0180 0180 0180 0180 0180 0180     ................
   145bc:	0180 0180 0180 03c0 1ff8 0000 0000 0000     ................
	...
   145dc:	07e0 1c10 1808 3004 3004 300c 300c 3000     .......0.0.0.0.0
   145ec:	1800 0800 0400 0200 0100 0080 0040 2020     ............@.  
   145fc:	2010 2008 3004 1ffc 1ffc 0000 0000 0000     . . .0..........
	...
   1461c:	03e0 0e18 0c0c 180c 180c 180c 1800 0c00     ................
   1462c:	0600 03c0 0e00 1800 1000 3000 3000 300c     ...........0.0.0
   1463c:	300c 100c 180c 0c18 03e0 0000 0000 0000     .0..............
	...
   1465c:	0c00 0e00 0e00 0f00 0e80 0e80 0e40 0e60     ............@.`.
   1466c:	0e20 0e10 0e10 0e08 0e04 0e04 7ffe 0e00      ...............
   1467c:	0e00 0e00 0e00 0e00 0e00 7fc0 0000 0000     ................
	...
   1469c:	3ff0 3ff0 0010 0010 0010 0008 0008 07c8     .?.?............
   146ac:	0c28 1818 1008 3000 3000 3000 3000 300c     (......0.0.0.0.0
   146bc:	300c 1804 1804 0c08 03f0 0000 0000 0000     .0..............
	...
   146dc:	0f80 10c0 3020 3010 0018 0018 0008 000c     .... 0.0........
   146ec:	0f8c 186c 303c 601c 600c 600c 600c 600c     ..l.<0.`.`.`.`.`
   146fc:	6018 2018 3030 1860 07c0 0000 0000 0000     .`. 00`.........
	...
   1471c:	3ff8 3ff8 101c 080c 0804 0404 0400 0200     .?.?............
   1472c:	0200 0100 0100 0100 0080 0080 0080 00c0     ................
   1473c:	00c0 00c0 00c0 00c0 00c0 0000 0000 0000     ................
	...
   1475c:	07e0 0c30 1818 300c 300c 300c 301c 1838     ..0....0.0.0.08.
   1476c:	0870 07e0 07b0 0e18 1c0c 3806 3006 3006     p..........8.0.0
   1477c:	3006 3006 180c 0c18 03e0 0000 0000 0000     .0.0............
	...
   1479c:	03e0 0418 080c 180c 1006 3006 3006 3006     ...........0.0.0
   147ac:	3006 3806 3c0c 3618 31f0 3000 1800 1800     .0.8.<.6.1.0....
   147bc:	1800 0c0c 060c 030c 01f0 0000 0000 0000     ................
	...
   147e8:	0000 0180 03c0 03c0 0180 0000 0000 0000     ................
   147f8:	0000 0000 0000 0180 03c0 03c0 0180 0000     ................
	...
   14828:	0000 00c0 00c0 0000 0000 0000 0000 0000     ................
	...
   14840:	0000 00c0 00c0 0080 0080 0040 0040 0000     ..........@.@...
	...
   14858:	0000 2000 1000 0800 0400 0600 0300 0180     ... ............
   14868:	00c0 0060 0030 0018 000c 0018 0030 0060     ..`.0.......0.`.
   14878:	00c0 0180 0300 0600 0400 0800 1000 2000     ............... 
	...
   148a8:	0000 7ffe 0000 0000 0000 0000 0000 7ffe     ................
	...
   148d8:	0000 0004 0008 0010 0020 0060 00c0 0180     ........ .`.....
   148e8:	0300 0600 0c00 1800 3000 1800 0c00 0600     .........0......
   148f8:	0300 0180 00c0 0060 0020 0010 0008 0004     ......`. .......
	...
   14918:	0000 07c0 1830 3008 6008 600c 601c 601c     ....0..0.`.`.`.`
   14928:	601c 3000 1c00 0600 0100 0080 0080 0080     .`.0............
   14938:	0080 0000 0000 0180 03c0 03c0 0180 0000     ................
	...
   1495c:	07c0 1860 3010 2018 2f0c 4d8c 4c86 4cc6     ..`..0. ./.M.L.L
   1496c:	4cc6 4c66 4466 4466 2666 2666 1566 1ccc     .LfLfDfDf&f&f...
   1497c:	400c 2008 3018 1830 07c0 0000 0000 0000     .@. .00.........
	...
   14998:	0000 0100 01c0 01c0 01c0 0140 0360 0320     ..........@.`. .
   149a8:	0320 0320 0630 0610 0610 0610 0ff8 0c08      . .0...........
   149b8:	0c08 0c08 0c0c 1804 1804 1806 7c1f 0000     .............|..
	...
   149dc:	07fe 1c18 3818 3018 3018 3018 3018 1818     .....8.0.0.0.0..
   149ec:	0c18 07f8 1818 3018 2018 6018 6018 6018     .......0. .`.`.`
   149fc:	6018 6018 3018 1818 0ffe 0000 0000 0000     .`.`.0..........
	...
   14a1c:	27c0 3860 3010 2018 400c 400c 0004 0006     .'`8.0. .@.@....
   14a2c:	0006 0006 0006 0006 0006 0006 0006 400c     ...............@
   14a3c:	400c 200c 3018 1830 07c0 0000 0000 0000     .@. .00.........
	...
   14a5c:	03fe 0e18 1818 3018 3018 3018 6018 6018     .......0.0.0.`.`
   14a6c:	6018 6018 6018 6018 6018 6018 6018 3018     .`.`.`.`.`.`.`.0
   14a7c:	3018 1018 1818 0e18 03fe 0000 0000 0000     .0..............
	...
   14a9c:	3ffe 3018 2018 6018 4018 0018 0818 0818     .?.0. .`.@......
   14aac:	0c18 0ff8 0c18 0818 0818 0018 0018 0018     ................
   14abc:	4018 4018 2018 3018 3ffe 0000 0000 0000     .@.@. .0.?......
	...
   14adc:	7ffe 7018 4018 c018 8018 0018 1018 1018     ...p.@..........
   14aec:	1818 1ff8 1818 1018 1018 0018 0018 0018     ................
   14afc:	0018 0018 0018 0018 007e 0000 0000 0000     ........~.......
	...
   14b1c:	13c0 1c70 1010 1018 200c 200c 0004 0006     ..p...... . ....
   14b2c:	0006 0006 0006 0006 fc06 3006 3006 300c     ...........0.0.0
   14b3c:	300c 3018 3018 0830 07c0 0000 0000 0000     .0.0.00.........
	...
   14b5c:	7e3f 180c 180c 180c 180c 180c 180c 180c     ?~..............
   14b6c:	180c 180c 1ffc 180c 180c 180c 180c 180c     ................
   14b7c:	180c 180c 180c 180c 7e3f 0000 0000 0000     ........?~......
	...
   14b9c:	1ff8 0180 0180 0180 0180 0180 0180 0180     ................
   14bac:	0180 0180 0180 0180 0180 0180 0180 0180     ................
   14bbc:	0180 0180 0180 0180 1ff8 0000 0000 0000     ................
	...
   14bdc:	7fe0 0600 0600 0600 0600 0600 0600 0600     ................
   14bec:	0600 0600 0600 0600 0600 0600 0600 0600     ................
   14bfc:	0600 0600 0600 0600 0600 0600 060e 030e     ................
   14c0c:	018e 00fc 0000 0000 0000 0000 0000 0000     ................
   14c1c:	7c7e 1818 0818 0418 0618 0218 0118 0198     ~|..............
   14c2c:	0198 01d8 03b8 0338 0718 0618 0e18 0c18     ......8.........
   14c3c:	1c18 1818 3018 3018 fc7e 0000 0000 0000     .....0.0~.......
	...
   14c5c:	007e 0018 0018 0018 0018 0018 0018 0018     ~...............
   14c6c:	0018 0018 0018 0018 0018 0018 0018 0018     ................
   14c7c:	4018 4018 2018 3018 3ffe 0000 0000 0000     .@.@. .0.?......
	...
   14c9c:	f81f 381c 381c 381c 3c1c 3434 3434 3434     ...8.8.8.<444444
   14cac:	3634 3274 3264 3264 3264 3164 31c4 31c4     46t2d2d2d2d1.1.1
   14cbc:	31c4 30c4 30c4 3084 fc9f 0000 0000 0000     .1.0.0.0........
	...
   14cdc:	7c1f 101c 103c 1034 1034 1074 1064 10e4     .|..<.4.4.t.d...
   14cec:	10c4 11c4 1184 1384 1304 1704 1604 1e04     ................
   14cfc:	1c04 1c04 1c04 1804 181f 0000 0000 0000     ................
	...
   14d1c:	03c0 0c30 1818 1008 300c 300c 6006 6006     ..0......0.0.`.`
   14d2c:	6006 6006 6006 6006 6006 6006 6006 200c     .`.`.`.`.`.`.`. 
   14d3c:	300c 1008 1818 0c30 03c0 0000 0000 0000     .0....0.........
	...
   14d5c:	0ffe 1818 3018 6018 6018 6018 6018 6018     .....0.`.`.`.`.`
   14d6c:	3018 1818 0ff8 0018 0018 0018 0018 0018     .0..............
   14d7c:	0018 0018 0018 0018 007e 0000 0000 0000     ........~.......
	...
   14d9c:	03c0 0c30 1818 100c 300c 200c 6006 6006     ..0......0. .`.`
   14dac:	6006 6006 6006 6006 6006 6006 6006 61e4     .`.`.`.`.`.`.`.a
   14dbc:	332c 321c 1618 0e30 07c0 4c00 7c00 3800     ,3.2..0....L.|.8
	...
   14ddc:	07fe 1c18 3818 3018 3018 3018 3018 1818     .....8.0.0.0.0..
   14dec:	0c18 07f8 0398 0318 0718 0618 0618 0e18     ................
   14dfc:	0c18 0c18 1c18 1818 787e 0000 0000 0000     ........~x......
	...
   14e1c:	27e0 3830 3018 200c 200c 000c 000c 0018     .'08.0. . ......
   14e2c:	0078 03e0 0f80 1e00 3800 7000 6000 6004     x........8.p.`.`
   14e3c:	6004 6008 3018 1838 0fc8 0000 0000 0000     .`.`.08.........
	...
   14e5c:	3ffc 218c 6184 4182 4182 0180 0180 0180     .?.!.a.A.A......
   14e6c:	0180 0180 0180 0180 0180 0180 0180 0180     ................
   14e7c:	0180 0180 0180 0180 07e0 0000 0000 0000     ................
	...
   14e9c:	7c3f 100c 100c 100c 100c 100c 100c 100c     ?|..............
   14eac:	100c 100c 100c 100c 100c 100c 100c 100c     ................
   14ebc:	100c 100c 0808 0438 03e0 0000 0000 0000     ......8.........
	...
   14edc:	f83e 2018 2018 2018 1030 1030 1030 1030     >.. . . 0.0.0.0.
   14eec:	0860 0860 0860 0ce0 04c0 04c0 04c0 0380     `.`.`...........
   14efc:	0380 0380 0380 0100 0100 0000 0000 0000     ................
	...
   14f1c:	f3df 6186 2186 2186 218c 210c 238c 138c     ...a.!.!.!.!.#..
   14f2c:	138c 138c 134c 1258 1658 0e58 0e38 0e38     ....L.X.X.X.8.8.
   14f3c:	0e38 0c30 0410 0410 0410 0000 0000 0000     8.0.............
	...
   14f5c:	3e7e 0818 0838 0430 0430 0270 0260 01e0     ~>..8.0.0.p.`...
   14f6c:	01c0 01c0 0180 0380 0340 0740 0620 0620     ........@.@. . .
   14f7c:	0c10 0c10 1808 1808 7c3e 0000 0000 0000     ........>|......
	...
   14f9c:	7c7e 101c 1018 0818 0830 0c30 0470 0460     ~|......0.0.p.`.
   14fac:	0260 02c0 02c0 01c0 0180 0180 0180 0180     `...............
   14fbc:	0180 0180 0180 0180 07e0 0000 0000 0000     ................
	...
   14fdc:	3ff8 1818 1808 0c04 0e04 0600 0700 0300     .?..............
   14fec:	0380 0180 01c0 00c0 00e0 0060 0070 0030     ..........`.p.0.
   14ffc:	2038 2018 101c 180c 1ffe 0000 0000 0000     8 . ............
	...
   15014:	0000 3fc0 0040 0040 0040 0040 0040 0040     ...?@.@.@.@.@.@.
   15024:	0040 0040 0040 0040 0040 0040 0040 0040     @.@.@.@.@.@.@.@.
   15034:	0040 0040 0040 0040 0040 0040 0040 0040     @.@.@.@.@.@.@.@.
   15044:	0040 0040 0040 3fc0 0000 0000 0000 0000     @.@.@..?........
   15054:	0000 0000 0000 0008 0018 0018 0010 0030     ..............0.
   15064:	0020 0060 0060 0040 00c0 0080 0180 0180      .`.`.@.........
   15074:	0100 0300 0200 0600 0600 0400 0c00 0800     ................
   15084:	1800 1800 1000 3000 2000 0000 0000 0000     .......0. ......
   15094:	0000 03fc 0200 0200 0200 0200 0200 0200     ................
   150a4:	0200 0200 0200 0200 0200 0200 0200 0200     ................
   150b4:	0200 0200 0200 0200 0200 0200 0200 0200     ................
   150c4:	0200 0200 0200 03fc 0000 0000 0000 0000     ................
   150d4:	0000 0780 06c0 0820 1010 0000 0000 0000     ...... .........
	...
   1514c:	0000 ffff 0000 0000 0000 0078 00c0 0100     ..........x.....
	...
   151a8:	0000 03f0 0618 0c0c 0c0c 0c00 0f80 0c70     ..............p.
   151b8:	0c1c 0c0c 0c06 0c06 4c06 4f0c 38f8 0000     .........L.O.8..
	...
   151d8:	0000 0010 001e 0018 0018 0018 0018 0018     ................
   151e8:	0018 0f18 18d8 3038 6038 6018 6018 6018     ......808`.`.`.`
   151f8:	6018 6018 6018 2018 3038 1878 07c8 0000     .`.`.`. 80x.....
	...
   15228:	0000 07c0 0c70 1818 1818 180c 000c 000c     ....p...........
   15238:	000c 000c 200c 2018 1018 0830 07c0 0000     ..... . ..0.....
	...
   15258:	0000 1000 1e00 1800 1800 1800 1800 1800     ................
   15268:	1800 1be0 1c30 1818 1818 180c 180c 180c     ....0...........
   15278:	180c 180c 180c 1808 1c18 7a30 09e0 0000     ..........0z....
	...
   152a8:	0000 07c0 0c30 1818 1008 300c 300c 3ffc     ....0......0.0.?
   152b8:	000c 000c 000c 2018 1018 1870 07c0 0000     ....... ..p.....
	...
   152dc:	3e00 c380 c080 c0c0 00c0 00c0 00c0 1ffc     .>..............
   152ec:	00c0 00c0 00c0 00c0 00c0 00c0 00c0 00c0     ................
   152fc:	00c0 00c0 00c0 00c0 0ff8 0000 0000 0000     ................
	...
   15328:	0000 77c0 6c30 1810 1818 1818 1818 1810     ...w0l..........
   15338:	0c30 07f0 0018 0018 0ff0 3ff0 7008 600c     0..........?.p.`
   15348:	600c 600c 3838 0fe0 0000 0000 0000 0000     .`.`88..........
   15358:	0000 0010 001e 0018 0018 0018 0018 0018     ................
   15368:	0018 0f98 18d8 3038 3018 3018 3018 3018     ......80.0.0.0.0
   15378:	3018 3018 3018 3018 3018 3018 fc7e 0000     .0.0.0.0.0.0~...
	...
   1539c:	0380 0380 0380 0000 0000 0000 0100 01f8     ................
   153ac:	0180 0180 0180 0180 0180 0180 0180 0180     ................
   153bc:	0180 0180 0180 0180 1ff8 0000 0000 0000     ................
	...
   153dc:	3800 3800 3800 0000 0000 0000 1000 1f80     .8.8.8..........
   153ec:	1800 1800 1800 1800 1800 1800 1800 1800     ................
   153fc:	1800 1800 1800 1800 1800 1800 1800 0c18     ................
   1540c:	0618 03f0 0000 0000 0000 0000 0000 0010     ................
   1541c:	001e 0018 0018 0018 0018 0018 0018 3e18     ...............>
   1542c:	0c18 0618 0318 0118 0198 01d8 0338 0718     ............8...
   1543c:	0618 0c18 1c18 1818 7c7e 0000 0000 0000     ........~|......
	...
   15458:	0000 0100 01f8 0180 0180 0180 0180 0180     ................
   15468:	0180 0180 0180 0180 0180 0180 0180 0180     ................
   15478:	0180 0180 0180 0180 0180 0180 1ff8 0000     ................
	...
   154a8:	0008 1cee 339c 318c 318c 318c 318c 318c     .....3.1.1.1.1.1
   154b8:	318c 318c 318c 318c 318c 318c 7bde 0000     .1.1.1.1.1.1.{..
	...
   154e8:	0010 0f1e 18d8 3038 3018 3018 3018 3018     ......80.0.0.0.0
   154f8:	3018 3018 3018 3018 3018 3018 fc7e 0000     .0.0.0.0.0.0~...
	...
   15528:	0000 07c0 1c70 3010 3018 600c 600c 600c     ....p..0.0.`.`.`
   15538:	600c 600c 600c 3018 3018 1830 07c0 0000     .`.`.`.0.00.....
	...
   15568:	0010 0f9e 1858 3038 2018 6018 6018 6018     ....X.80. .`.`.`
   15578:	6018 6018 6018 3018 3038 1878 0798 0018     .`.`.`.080x.....
   15588:	0018 0018 0018 007e 0000 0000 0000 0000     ......~.........
	...
   155a8:	0000 23c0 3c30 3818 3018 300c 300c 300c     ...#0<.8.0.0.0.0
   155b8:	300c 300c 300c 3008 3818 3c30 33e0 3000     .0.0.0.0.80<.3.0
   155c8:	3000 3000 3000 fc00 0000 0000 0000 0000     .0.0.0..........
	...
   155e8:	0060 3c7e 6660 6160 00e0 00e0 0060 0060     `.~<`f`a....`.`.
   155f8:	0060 0060 0060 0060 0060 0060 07fe 0000     `.`.`.`.`.`.....
	...
   15628:	0000 27e0 3830 3018 2018 0018 0070 03e0     ...'08.0. ..p...
   15638:	0f80 1c00 3004 3004 300c 181c 0fec 0000     .....0.0.0......
	...
   15660:	0080 0080 0080 00c0 00e0 1ffc 00c0 00c0     ................
   15670:	00c0 00c0 00c0 00c0 00c0 00c0 00c0 20c0     ............... 
   15680:	20c0 1180 0f00 0000 0000 0000 0000 0000     . ..............
	...
   156a8:	2010 3c1e 3018 3018 3018 3018 3018 3018     . .<.0.0.0.0.0.0
   156b8:	3018 3018 3018 3018 3818 f430 13e0 0000     .0.0.0.0.80.....
	...
   156e8:	0000 3c7e 1818 0818 0838 0430 0430 0270     ..~<....8.0.0.p.
   156f8:	0260 0260 01e0 01c0 01c0 00c0 0080 0000     `.`.............
	...
   15728:	0000 f7df 638e 230c 238c 238c 1398 1398     .....c.#.#.#....
   15738:	1658 1658 0e70 0e70 0e70 0420 0420 0000     X.X.p.p.p. . ...
	...
   15768:	0000 3efc 0870 0470 04e0 02c0 01c0 0380     ...>p.p.........
   15778:	0380 0740 0660 0c20 0c10 1818 7e3e 0000     ..@.`. .....>~..
	...
   157a8:	0000 7c7e 1818 0818 0830 0830 0430 0460     ..~|....0.0.0.`.
   157b8:	0460 02c0 02c0 02c0 0180 0180 0180 0080     `...............
   157c8:	0080 0080 004c 003c 0000 0000 0000 0000     ....L.<.........
	...
   157e8:	0000 1ffc 0c0c 0e04 0604 0300 0380 0180     ................
   157f8:	00c0 00e0 2070 2030 3038 181c 1ffc 0000     ....p 0 80......
	...
   15814:	0000 3000 0800 0400 0400 0400 0400 0400     ...0............
   15824:	0400 0400 0400 0400 0400 0200 0180 0200     ................
   15834:	0400 0400 0400 0400 0400 0400 0400 0400     ................
   15844:	0400 0400 0400 0800 3000 0000 0100 0100     .........0......
   15854:	0100 0100 0100 0100 0100 0100 0100 0100     ................
   15864:	0100 0100 0100 0100 0100 0100 0100 0100     ................
   15874:	0100 0100 0100 0100 0100 0100 0100 0100     ................
   15884:	0100 0100 0100 0100 0100 0100 0000 0000     ................
   15894:	0000 000c 0010 0020 0020 0020 0020 0020     ...... . . . . .
   158a4:	0020 0020 0020 0020 0020 0040 0180 0040      . . . . .@...@.
   158b4:	0020 0020 0020 0020 0020 0020 0020 0020      . . . . . . . .
   158c4:	0020 0020 0020 0010 000c 0000 0000 0038      . . .........8.
   158d4:	00c4 4086 6102 2200 1c00 0000 0000 0000     ...@.a."........
	...

00015910 <tfont16>:
   15910:	d2ce 0000 0220 0a70 121e 1210 0210 7fff     .... .p.........
   15920:	0210 2210 2250 1230 0c18 4416 4a10 5110     ..."P"0....D.J.Q
   15930:	60d4 aeb0 0000 1000 3f80 087e 0844 0488     .`.......?~.D...
   15940:	7ffe 4042 2041 1ffe 0020 0fe0 0850 0488     ..B@A .. ...P...
   15950:	0304 0cc2 e3c4 0000 0110 0110 0110 7f88     ................
   15960:	4088 204c 042c 040a 1489 2488 2448 4448     .@L ,......$H$HD
   15970:	4428 0408 0508 d0d6 0000 0080 0080 0080     (D..............
   15980:	0080 1ffc 1084 1084 1084 1084 1084 1ffc     ................
   15990:	1084 0080 0080 0080 fab9 0000 3ffe 2002     .............?. 
   159a0:	2002 2ffa 2082 2082 27f2 2082 2282 2482     . ./. . .'. .".$
   159b0:	2ffa 2002 2002 3ffe 2002 fdd5 0000 3ffe     ./. . .?. .....?
   159c0:	0080 0080 0080 0080 0088 1f88 0088 0088     ................
   159d0:	0088 0088 0088 0088 7fff 0000 dad4 0040     ..............@.
   159e0:	0040 0020 7fff 0010 0210 0208 020c 3fea     @. ............?
   159f0:	0209 0208 0208 0208 0208 7ff8 0008 f4c6     ................
   15a00:	0080 0100 3ff8 2008 2008 2008 3ff8 0008     .....?. . . .?..
   15a10:	0008 0008 3fe8 2024 2024 2022 3fe1 2020     .....?$ $ " .?  
   15a20:	afb6 0200 0200 023e 0200 3f80 2200 227f     ......>....?."."
   15a30:	2204 2204 2104 2112 2122 20bf 20a2 1440     .".".!.!"!. . @.
   15a40:	0820 c9b3 0a00 1200 0200 7ffc 0204 0204      ...............
   15a50:	2204 227c 2244 1444 1444 4844 4c54 5222     ."|"D"D.D.DHTL"R
   15a60:	6102 4081 a6b9 0200 0200 0200 027f 3f88     .a.@...........?
   15a70:	2208 2208 2208 2208 2108 2108 2178 208f     .".".".".!.!x!. 
   15a80:	2082 1440 0820 c5c3 0004 3fc8 2008 2002     . @. ......?. . 
   15a90:	2002 2002 2002 2002 2002 2002 2002 2002     . . . . . . . . 
   15aa0:	2002 2002 2802 1002 d1d2 0000 0ffc 0800     . . .(..........
   15ab0:	0800 0800 0804 0804 0ffc 0004 0004 0004     ................
   15ac0:	2004 2004 2004 3ff8 0000 cfc9 0040 0040     . . . .?....@.@.
   15ad0:	0040 0040 0040 0040 1fc0 0040 0040 0040     @.@.@.@...@.@.@.
   15ae0:	0040 0040 0040 0040 7fff 0000 f8cb 0408     @.@.@.@.........
   15af0:	2488 253c 1504 0402 3fbd 2088 2488 24bf     .$<%.....?. .$.$
   15b00:	2488 2488 2488 0a28 1118 2088 4040 aca3     .$.$.$(.... @@..
	...
   15b24:	0000 000c 000c 0008 0004 0000 ebc7 0200     ................
   15b34:	0202 3fe4 0204 1fc0 0200 7fe7 0004 1fc4     ...?............
   15b44:	1044 1fc4 1044 1fd4 104c 1444 0840 e4ca     D...D...L.D.@...
   15b54:	0204 0504 0884 105f 6fa4 0002 23ca 2a49     ......_..o...#I*
   15b64:	2a5f 2bc8 2a58 2a4f 2bca 2248 2a48 1348     _*.+X*O*.+H"H*H.
   15b74:	ebc8 0020 0040 0080 0080 0080 0140 0140     .. .@.......@.@.
   15b84:	0140 0220 0220 0410 0410 0808 0804 1002     @. . ...........
   15b94:	6001 dcc3 0040 0080 7ffe 4002 2441 0290     .`..@......@A$..
   15ba4:	1114 28d2 0838 0fe7 0080 1084 1084 1084     ...(8...........
   15bb4:	1ffc 1000 ebc2 0000 1f80 103f 1008 1108     ..........?.....
   15bc4:	1104 113c 7f26 4026 4025 4024 5fa4 403c     ..<.&.&@%@$@._<@
   15bd4:	4024 2804 1000 c5c3 0004 3fc8 2008 2002     $@.(.......?. . 
   15be4:	2002 2002 2002 2002 2002 2002 2002 2002     . . . . . . . . 
   15bf4:	2002 2002 2802 1002 d1d2 0000 0ffc 0800     . . .(..........
   15c04:	0800 0800 0804 0804 0ffc 0004 0004 0004     ................
   15c14:	2004 2004 2004 3ff8 0000 aabf 0000 3ffe     . . . .?.......?
   15c24:	0410 0410 0410 0410 0410 7fff 0410 0410     ................
   15c34:	0410 0410 0408 0408 0404 0402 f4c6 0080     ................
   15c44:	0100 3ff8 2008 2008 2008 3ff8 0008 0008     ...?. . . .?....
   15c54:	0008 3fe8 2024 2024 2022 3fe1 2020 aca3     ...?$ $ " .?  ..
	...
   15c78:	0000 000c 000c 0008 0004 0000 b6bb 0100     ................
   15c88:	0100 013f 3f20 20a0 1092 0254 0228 0208     ..?. ?. ..T.(...
   15c98:	0514 0524 08a2 0881 1040 2020 4010 add3     ..$.....@.  .@..
   15ca8:	0000 0104 3cc8 2448 2440 2440 244f 2448     .....<H$@$@$O$H$
   15cb8:	2448 2d48 14c8 0448 0408 0414 7fe2 0000     H$H-..H.........
   15cc8:	d8bb 0000 1ffc 1004 1004 13e4 1224 1224     ............$.$.
   15cd8:	1224 1224 1224 13e4 1004 1004 1ffc 1004     $.$.$...........
   15ce8:	0000 d2bc 0040 0080 7ffe 4002 2001 3ffe     ....@......@. .?
   15cf8:	0040 10b0 098e 0540 0330 058e 1960 6118     @.....@.0...`..a
   15d08:	0147 0080 6c68 004c 2d41 6146 662d 3938     G...hlL.A-Fa-f89
   15d18:	3130 3332 3534 3736 005d 0000 2d2b 0000     01234567]...+-..
   15d28:	3030 0000 5878 0000                         00..xX..

00015d30 <__sf_fake_stderr>:
	...

00015d50 <__sf_fake_stdin>:
	...

00015d70 <__sf_fake_stdout>:
	...
   15d90:	0043 0000 4f50 4953 0058 0000 002e 0000     C...POSIX.......

00015da0 <_ctype_>:
   15da0:	2000 2020 2020 2020 2020 2828 2828 2028     .         ((((( 
   15db0:	2020 2020 2020 2020 2020 2020 2020 2020                     
   15dc0:	8820 1010 1010 1010 1010 1010 1010 1010      ...............
   15dd0:	0410 0404 0404 0404 0404 1004 1010 1010     ................
   15de0:	1010 4141 4141 4141 0101 0101 0101 0101     ..AAAAAA........
   15df0:	0101 0101 0101 0101 0101 0101 1010 1010     ................
   15e00:	1010 4242 4242 4242 0202 0202 0202 0202     ..BBBBBB........
   15e10:	0202 0202 0202 0202 0202 0202 1010 1010     ................
   15e20:	0020 0000 0000 0000 0000 0000 0000 0000      ...............
	...
